Archive member included to satisfy reference by file (symbol)

C:/SysGCC/raspberry/arm-linux-gnueabihf/lib\libgcc.a(_udivsi3.o)
                              obj/Debug/bcm2835.o (__aeabi_uidiv)
C:/SysGCC/raspberry/arm-linux-gnueabihf/lib\libgcc.a(_divsi3.o)
                              obj/Debug/pigpio.o (__aeabi_idiv)
C:/SysGCC/raspberry/arm-linux-gnueabihf/lib\libgcc.a(_aeabi_ldivmod.o)
                              obj/Debug/ThermoControlLibrary/PIDCalculs.o (__aeabi_ldivmod)
C:/SysGCC/raspberry/arm-linux-gnueabihf/lib\libgcc.a(_aeabi_uldivmod.o)
                              obj/Debug/pigpio.o (__aeabi_uldivmod)
C:/SysGCC/raspberry/arm-linux-gnueabihf/lib\libgcc.a(_dvmd_lnx.o)
                              C:/SysGCC/raspberry/arm-linux-gnueabihf/lib\libgcc.a(_aeabi_ldivmod.o) (__aeabi_ldiv0)
C:/SysGCC/raspberry/arm-linux-gnueabihf/lib\libgcc.a(_popcountsi2.o)
                              obj/Debug/pigpio.o (__popcountsi2)
C:/SysGCC/raspberry/arm-linux-gnueabihf/lib\libgcc.a(_udivmoddi4.o)
                              C:/SysGCC/raspberry/arm-linux-gnueabihf/lib\libgcc.a(_aeabi_ldivmod.o) (__udivmoddi4)
c:\sysgcc\raspberry\bin\../arm-linux-gnueabihf/sysroot/usr/lib/arm-linux-gnueabihf/libc_nonshared.a(elf-init.oS)
                              c:/sysgcc/raspberry/bin/../arm-linux-gnueabihf/sysroot/lib/arm-linux-gnueabihf/crt1.o (__libc_csu_init)
c:\sysgcc\raspberry\bin\../arm-linux-gnueabihf/sysroot/usr/lib/arm-linux-gnueabihf/libc_nonshared.a(atexit.oS)
                              obj/Debug/pigpio.o (atexit)
c:\sysgcc\raspberry\bin\../arm-linux-gnueabihf/sysroot/usr/lib/arm-linux-gnueabihf/libc_nonshared.a(stat.oS)
                              obj/Debug/pigpio.o (stat)
c:\sysgcc\raspberry\bin\../arm-linux-gnueabihf/sysroot/usr/lib/arm-linux-gnueabihf/libc_nonshared.a(mknod.oS)
                              obj/Debug/pigpio.o (mknod)

As-needed library included to satisfy reference by file (symbol)

libpthread.so.0               obj/Debug/pigpio.o (write@@GLIBC_2.4)
libc.so.6                     obj/Debug/pigpio.o (socket@@GLIBC_2.4)

Discarded input sections

 .rodata.cst4   0x0000000000000000        0x4 c:/sysgcc/raspberry/bin/../arm-linux-gnueabihf/sysroot/lib/arm-linux-gnueabihf/crt1.o
 .ARM.extab     0x0000000000000000        0x0 c:/sysgcc/raspberry/bin/../arm-linux-gnueabihf/sysroot/lib/arm-linux-gnueabihf/crt1.o
 .data          0x0000000000000000        0x4 c:/sysgcc/raspberry/bin/../arm-linux-gnueabihf/sysroot/lib/arm-linux-gnueabihf/crt1.o
 .bss           0x0000000000000000        0x0 c:/sysgcc/raspberry/bin/../arm-linux-gnueabihf/sysroot/lib/arm-linux-gnueabihf/crt1.o
 .note.GNU-stack
                0x0000000000000000        0x0 c:/sysgcc/raspberry/bin/../arm-linux-gnueabihf/sysroot/lib/arm-linux-gnueabihf/crt1.o
 .data          0x0000000000000000        0x0 c:/sysgcc/raspberry/bin/../arm-linux-gnueabihf/sysroot/lib/arm-linux-gnueabihf/crti.o
 .bss           0x0000000000000000        0x0 c:/sysgcc/raspberry/bin/../arm-linux-gnueabihf/sysroot/lib/arm-linux-gnueabihf/crti.o
 .note.GNU-stack
                0x0000000000000000        0x0 c:/sysgcc/raspberry/bin/../arm-linux-gnueabihf/sysroot/lib/arm-linux-gnueabihf/crti.o
 .rodata        0x0000000000000000       0x90 c:/sysgcc/raspberry/bin/../lib/gcc/arm-linux-gnueabihf/10/../../../../arm-linux-gnueabihf/lib/crtbegin.o
 .note.GNU-stack
                0x0000000000000000        0x0 c:/sysgcc/raspberry/bin/../lib/gcc/arm-linux-gnueabihf/10/../../../../arm-linux-gnueabihf/lib/crtbegin.o
 .text          0x0000000000000000        0x0 obj/Debug/main.o
 .data          0x0000000000000000        0x0 obj/Debug/main.o
 .bss           0x0000000000000000        0x0 obj/Debug/main.o
 .rodata.ADS1256_DRATE_E
                0x0000000000000000       0x10 obj/Debug/main.o
 .bss.ADC_needed_flag
                0x0000000000000000        0x2 obj/Debug/main.o
 .bss.ADC_ready_flag
                0x0000000000000000        0x2 obj/Debug/main.o
 .bss.ADC_start_cv
                0x0000000000000000       0x30 obj/Debug/main.o
 .bss.ADC_stop_cv
                0x0000000000000000       0x30 obj/Debug/main.o
 .bss.ADC_thread_flag_mutex
                0x0000000000000000       0x18 obj/Debug/main.o
 .note.GNU-stack
                0x0000000000000000        0x0 obj/Debug/main.o
 .text          0x0000000000000000        0x0 obj/Debug/DEV_Config.o
 .data          0x0000000000000000        0x0 obj/Debug/DEV_Config.o
 .bss           0x0000000000000000        0x0 obj/Debug/DEV_Config.o
 .note.GNU-stack
                0x0000000000000000        0x0 obj/Debug/DEV_Config.o
 .text          0x0000000000000000        0x0 obj/Debug/bcm2835.o
 .data          0x0000000000000000        0x0 obj/Debug/bcm2835.o
 .bss           0x0000000000000000        0x0 obj/Debug/bcm2835.o
 .text.bcm2835_regbase
                0x0000000000000000      0x100 obj/Debug/bcm2835.o
 .text.bcm2835_set_debug
                0x0000000000000000       0x34 obj/Debug/bcm2835.o
 .text.bcm2835_version
                0x0000000000000000       0x20 obj/Debug/bcm2835.o
 .text.bcm2835_gpio_set_multi
                0x0000000000000000       0x3c obj/Debug/bcm2835.o
 .text.bcm2835_gpio_clr_multi
                0x0000000000000000       0x3c obj/Debug/bcm2835.o
 .text.bcm2835_gpio_eds
                0x0000000000000000       0x88 obj/Debug/bcm2835.o
 .text.bcm2835_gpio_eds_multi
                0x0000000000000000       0x48 obj/Debug/bcm2835.o
 .text.bcm2835_gpio_set_eds
                0x0000000000000000       0x70 obj/Debug/bcm2835.o
 .text.bcm2835_gpio_set_eds_multi
                0x0000000000000000       0x3c obj/Debug/bcm2835.o
 .text.bcm2835_gpio_ren
                0x0000000000000000       0x74 obj/Debug/bcm2835.o
 .text.bcm2835_gpio_clr_ren
                0x0000000000000000       0x74 obj/Debug/bcm2835.o
 .text.bcm2835_gpio_fen
                0x0000000000000000       0x74 obj/Debug/bcm2835.o
 .text.bcm2835_gpio_clr_fen
                0x0000000000000000       0x74 obj/Debug/bcm2835.o
 .text.bcm2835_gpio_hen
                0x0000000000000000       0x74 obj/Debug/bcm2835.o
 .text.bcm2835_gpio_clr_hen
                0x0000000000000000       0x74 obj/Debug/bcm2835.o
 .text.bcm2835_gpio_len
                0x0000000000000000       0x74 obj/Debug/bcm2835.o
 .text.bcm2835_gpio_clr_len
                0x0000000000000000       0x74 obj/Debug/bcm2835.o
 .text.bcm2835_gpio_aren
                0x0000000000000000       0x74 obj/Debug/bcm2835.o
 .text.bcm2835_gpio_clr_aren
                0x0000000000000000       0x74 obj/Debug/bcm2835.o
 .text.bcm2835_gpio_afen
                0x0000000000000000       0x74 obj/Debug/bcm2835.o
 .text.bcm2835_gpio_clr_afen
                0x0000000000000000       0x74 obj/Debug/bcm2835.o
 .text.bcm2835_gpio_pad
                0x0000000000000000       0x64 obj/Debug/bcm2835.o
 .text.bcm2835_gpio_set_pad
                0x0000000000000000       0x6c obj/Debug/bcm2835.o
 .text.bcm2835_gpio_write_multi
                0x0000000000000000       0x44 obj/Debug/bcm2835.o
 .text.bcm2835_gpio_write_mask
                0x0000000000000000       0x4c obj/Debug/bcm2835.o
 .text.bcm2835_gpio_get_pud
                0x0000000000000000       0xf4 obj/Debug/bcm2835.o
 .text.bcm2835_aux_spi_reset
                0x0000000000000000       0x50 obj/Debug/bcm2835.o
 .text.bcm2835_spi_set_speed_hz
                0x0000000000000000       0x4c obj/Debug/bcm2835.o
 .text.bcm2835_spi_transfernb
                0x0000000000000000      0x184 obj/Debug/bcm2835.o
 .text.bcm2835_spi_writenb
                0x0000000000000000      0x13c obj/Debug/bcm2835.o
 .text.bcm2835_spi_transfern
                0x0000000000000000       0x30 obj/Debug/bcm2835.o
 .text.bcm2835_spi_chipSelect
                0x0000000000000000       0x44 obj/Debug/bcm2835.o
 .text.bcm2835_spi_setChipSelectPolarity
                0x0000000000000000       0x70 obj/Debug/bcm2835.o
 .text.bcm2835_spi_write
                0x0000000000000000       0xd4 obj/Debug/bcm2835.o
 .text.bcm2835_aux_spi_begin
                0x0000000000000000       0xd4 obj/Debug/bcm2835.o
 .text.bcm2835_aux_spi_end
                0x0000000000000000       0x40 obj/Debug/bcm2835.o
 .text.bcm2835_aux_spi_CalcClockDivider
                0x0000000000000000       0xb0 obj/Debug/bcm2835.o
 .bss.spi1_speed
                0x0000000000000000        0x4 obj/Debug/bcm2835.o
 .text.bcm2835_aux_spi_setClockDivider
                0x0000000000000000       0x34 obj/Debug/bcm2835.o
 .text.bcm2835_aux_spi_write
                0x0000000000000000       0xec obj/Debug/bcm2835.o
 .text.bcm2835_aux_spi_writenb
                0x0000000000000000      0x210 obj/Debug/bcm2835.o
 .text.bcm2835_aux_spi_transfernb
                0x0000000000000000      0x3e4 obj/Debug/bcm2835.o
 .text.bcm2835_aux_spi_transfern
                0x0000000000000000       0x30 obj/Debug/bcm2835.o
 .text.bcm2835_aux_spi_transfer
                0x0000000000000000      0x138 obj/Debug/bcm2835.o
 .text.bcm2835_i2c_read
                0x0000000000000000      0x1fc obj/Debug/bcm2835.o
 .text.bcm2835_i2c_read_register_rs
                0x0000000000000000      0x2a8 obj/Debug/bcm2835.o
 .text.bcm2835_i2c_write_read_rs
                0x0000000000000000      0x2ec obj/Debug/bcm2835.o
 .text.malloc_aligned
                0x0000000000000000       0x60 obj/Debug/bcm2835.o
 .note.GNU-stack
                0x0000000000000000        0x0 obj/Debug/bcm2835.o
 .text          0x0000000000000000        0x0 obj/Debug/pigpio.o
 .data          0x0000000000000000        0x0 obj/Debug/pigpio.o
 .bss           0x0000000000000000        0x0 obj/Debug/pigpio.o
 .text.rawWaveCB
                0x0000000000000000      0x104 obj/Debug/pigpio.o
 .text.pthTimerTick
                0x0000000000000000       0xf8 obj/Debug/pigpio.o
 .text.getBitInBytes
                0x0000000000000000       0xa4 obj/Debug/pigpio.o
 .text.putBitInBytes
                0x0000000000000000       0xf8 obj/Debug/pigpio.o
 .text.rawWaveGetOOL
                0x0000000000000000       0x80 obj/Debug/pigpio.o
 .text.rawWaveSetOOL
                0x0000000000000000       0x80 obj/Debug/pigpio.o
 .text.rawWaveGetOut
                0x0000000000000000       0x80 obj/Debug/pigpio.o
 .text.rawWaveSetOut
                0x0000000000000000       0x80 obj/Debug/pigpio.o
 .text.rawWaveGetIn
                0x0000000000000000       0x88 obj/Debug/pigpio.o
 .text.rawWaveSetIn
                0x0000000000000000       0x88 obj/Debug/pigpio.o
 .text.rawWaveInfo
                0x0000000000000000       0xa4 obj/Debug/pigpio.o
 .text.time_time
                0x0000000000000000       0x60 obj/Debug/pigpio.o
 .text.rawDumpWave
                0x0000000000000000      0x144 obj/Debug/pigpio.o
 .text.rawDumpScript
                0x0000000000000000      0x3b0 obj/Debug/pigpio.o
 .text.rawWaveAddSPI
                0x0000000000000000      0x7d0 obj/Debug/pigpio.o
 .text.intEventSetFunc
                0x0000000000000000      0x11c obj/Debug/pigpio.o
 .text.eventSetFunc
                0x0000000000000000      0x154 obj/Debug/pigpio.o
 .text.eventSetFuncEx
                0x0000000000000000      0x164 obj/Debug/pigpio.o
 .text.gpioSetAlertFuncEx
                0x0000000000000000      0x164 obj/Debug/pigpio.o
 .text.gpioSetISRFuncEx
                0x0000000000000000      0x1e4 obj/Debug/pigpio.o
 .text.gpioSetGetSamplesFunc
                0x0000000000000000      0x17c obj/Debug/pigpio.o
 .text.gpioSetGetSamplesFuncEx
                0x0000000000000000      0x180 obj/Debug/pigpio.o
 .text.intGpioSetTimerFunc
                0x0000000000000000      0x558 obj/Debug/pigpio.o
 .text.gpioSetTimerFunc
                0x0000000000000000      0x1ec obj/Debug/pigpio.o
 .text.gpioSetTimerFuncEx
                0x0000000000000000      0x1f0 obj/Debug/pigpio.o
 .text.gpioSetSignalFunc
                0x0000000000000000      0x1b8 obj/Debug/pigpio.o
 .text.gpioSetSignalFuncEx
                0x0000000000000000      0x1c8 obj/Debug/pigpio.o
 .text.gpioTime
                0x0000000000000000      0x234 obj/Debug/pigpio.o
 .text.gpioSleep
                0x0000000000000000      0x2a4 obj/Debug/pigpio.o
 .text.gpioDelay
                0x0000000000000000      0x198 obj/Debug/pigpio.o
 .text.gpioCfgBufferSize
                0x0000000000000000      0x154 obj/Debug/pigpio.o
 .text.gpioCfgDMAchannel
                0x0000000000000000      0x140 obj/Debug/pigpio.o
 .text.gpioCfgDMAchannels
                0x0000000000000000      0x1d0 obj/Debug/pigpio.o
 .text.gpioCfgPermissions
                0x0000000000000000       0xfc obj/Debug/pigpio.o
 .text.gpioCfgInterfaces
                0x0000000000000000      0x140 obj/Debug/pigpio.o
 .text.gpioCfgSocketPort
                0x0000000000000000      0x14c obj/Debug/pigpio.o
 .text.gpioCfgMemAlloc
                0x0000000000000000      0x140 obj/Debug/pigpio.o
 .text.gpioCfgNetAddr
                0x0000000000000000      0x170 obj/Debug/pigpio.o
 .bss.lastPage.151
                0x0000000000000000        0x4 obj/Debug/pigpio.o
 .rodata.__FUNCTION__.105
                0x0000000000000000        0xe obj/Debug/pigpio.o
 .rodata.__FUNCTION__.74
                0x0000000000000000       0x10 obj/Debug/pigpio.o
 .rodata.__FUNCTION__.73
                0x0000000000000000        0xd obj/Debug/pigpio.o
 .rodata.__FUNCTION__.72
                0x0000000000000000        0xf obj/Debug/pigpio.o
 .rodata.__FUNCTION__.67
                0x0000000000000000       0x13 obj/Debug/pigpio.o
 .rodata.__FUNCTION__.63
                0x0000000000000000       0x11 obj/Debug/pigpio.o
 .rodata.__FUNCTION__.51
                0x0000000000000000       0x16 obj/Debug/pigpio.o
 .rodata.__FUNCTION__.50
                0x0000000000000000       0x18 obj/Debug/pigpio.o
 .rodata.__FUNCTION__.49
                0x0000000000000000       0x14 obj/Debug/pigpio.o
 .rodata.__FUNCTION__.48
                0x0000000000000000       0x11 obj/Debug/pigpio.o
 .rodata.__FUNCTION__.47
                0x0000000000000000       0x13 obj/Debug/pigpio.o
 .rodata.__FUNCTION__.37
                0x0000000000000000       0x12 obj/Debug/pigpio.o
 .rodata.__FUNCTION__.36
                0x0000000000000000       0x14 obj/Debug/pigpio.o
 .rodata.__FUNCTION__.17
                0x0000000000000000        0x9 obj/Debug/pigpio.o
 .rodata.__FUNCTION__.16
                0x0000000000000000        0xa obj/Debug/pigpio.o
 .rodata.__FUNCTION__.15
                0x0000000000000000        0xa obj/Debug/pigpio.o
 .rodata.__FUNCTION__.10
                0x0000000000000000       0x12 obj/Debug/pigpio.o
 .rodata.__FUNCTION__.8
                0x0000000000000000       0x12 obj/Debug/pigpio.o
 .rodata.__FUNCTION__.7
                0x0000000000000000       0x13 obj/Debug/pigpio.o
 .rodata.__FUNCTION__.6
                0x0000000000000000       0x13 obj/Debug/pigpio.o
 .rodata.__FUNCTION__.5
                0x0000000000000000       0x12 obj/Debug/pigpio.o
 .rodata.__FUNCTION__.4
                0x0000000000000000       0x12 obj/Debug/pigpio.o
 .rodata.__FUNCTION__.3
                0x0000000000000000       0x10 obj/Debug/pigpio.o
 .rodata.__FUNCTION__.2
                0x0000000000000000        0xf obj/Debug/pigpio.o
 .note.GNU-stack
                0x0000000000000000        0x0 obj/Debug/pigpio.o
 .text          0x0000000000000000        0x0 obj/Debug/command.o
 .data          0x0000000000000000        0x0 obj/Debug/command.o
 .bss           0x0000000000000000        0x0 obj/Debug/command.o
 .data.errInfo  0x0000000000000000      0x490 obj/Debug/command.o
 .text.cmdErrStr
                0x0000000000000000       0x80 obj/Debug/command.o
 .note.GNU-stack
                0x0000000000000000        0x0 obj/Debug/command.o
 .text          0x0000000000000000        0x0 obj/Debug/commonUnit.o
 .data          0x0000000000000000        0x0 obj/Debug/commonUnit.o
 .bss           0x0000000000000000        0x0 obj/Debug/commonUnit.o
 .text.millis   0x0000000000000000       0x80 obj/Debug/commonUnit.o
 .text.deltaMilis
                0x0000000000000000       0xa8 obj/Debug/commonUnit.o
 .note.GNU-stack
                0x0000000000000000        0x0 obj/Debug/commonUnit.o
 .text          0x0000000000000000        0x0 obj/Debug/Executive/SPI1.o
 .data          0x0000000000000000        0x0 obj/Debug/Executive/SPI1.o
 .bss           0x0000000000000000        0x0 obj/Debug/Executive/SPI1.o
 .rodata.ADS1256_DRATE_E
                0x0000000000000000       0x10 obj/Debug/Executive/SPI1.o
 .text.Ind_GPIOConfig
                0x0000000000000000       0x1c obj/Debug/Executive/SPI1.o
 .text.periferal_SPI1_Init
                0x0000000000000000       0x60 obj/Debug/Executive/SPI1.o
 .debug_info    0x0000000000000000      0x1d4 obj/Debug/Executive/SPI1.o
 .debug_abbrev  0x0000000000000000       0xca obj/Debug/Executive/SPI1.o
 .debug_aranges
                0x0000000000000000       0x28 obj/Debug/Executive/SPI1.o
 .debug_ranges  0x0000000000000000       0x18 obj/Debug/Executive/SPI1.o
 .debug_line    0x0000000000000000      0x10e obj/Debug/Executive/SPI1.o
 .debug_str     0x0000000000000000      0x3b0 obj/Debug/Executive/SPI1.o
 .comment       0x0000000000000000       0x2f obj/Debug/Executive/SPI1.o
 .note.GNU-stack
                0x0000000000000000        0x0 obj/Debug/Executive/SPI1.o
 .debug_frame   0x0000000000000000       0x4c obj/Debug/Executive/SPI1.o
 .ARM.attributes
                0x0000000000000000       0x2f obj/Debug/Executive/SPI1.o
 .text          0x0000000000000000        0x0 obj/Debug/Executive/modulSPI.o
 .data          0x0000000000000000        0x0 obj/Debug/Executive/modulSPI.o
 .bss           0x0000000000000000        0x0 obj/Debug/Executive/modulSPI.o
 .bss.RecBuf    0x0000000000000000        0xa obj/Debug/Executive/modulSPI.o
 .data.TransmBuf
                0x0000000000000000        0xa obj/Debug/Executive/modulSPI.o
 .text.Module_GPIOConfig
                0x0000000000000000       0x1c obj/Debug/Executive/modulSPI.o
 .text.transferAndWait
                0x0000000000000000       0x40 obj/Debug/Executive/modulSPI.o
 .text.transferMsG
                0x0000000000000000       0xc0 obj/Debug/Executive/modulSPI.o
 .text.ProcessReceived
                0x0000000000000000       0x98 obj/Debug/Executive/modulSPI.o
 .text.Tx_CheckSumCalcul
                0x0000000000000000       0x68 obj/Debug/Executive/modulSPI.o
 .text.Rx_CheckSumCalcul
                0x0000000000000000       0x68 obj/Debug/Executive/modulSPI.o
 .note.GNU-stack
                0x0000000000000000        0x0 obj/Debug/Executive/modulSPI.o
 .text          0x0000000000000000        0x0 obj/Debug/Executive/nativePWM.o
 .data          0x0000000000000000        0x0 obj/Debug/Executive/nativePWM.o
 .bss           0x0000000000000000        0x0 obj/Debug/Executive/nativePWM.o
 .note.GNU-stack
                0x0000000000000000        0x0 obj/Debug/Executive/nativePWM.o
 .text          0x0000000000000000        0x0 obj/Debug/Executive/additionalMeasurements.o
 .data          0x0000000000000000        0x0 obj/Debug/Executive/additionalMeasurements.o
 .bss           0x0000000000000000        0x0 obj/Debug/Executive/additionalMeasurements.o
 .note.GNU-stack
                0x0000000000000000        0x0 obj/Debug/Executive/additionalMeasurements.o
 .text          0x0000000000000000        0x0 obj/Debug/Keyboard_Indicator/lcd_variables.o
 .data          0x0000000000000000        0x0 obj/Debug/Keyboard_Indicator/lcd_variables.o
 .bss           0x0000000000000000        0x0 obj/Debug/Keyboard_Indicator/lcd_variables.o
 .note.GNU-stack
                0x0000000000000000        0x0 obj/Debug/Keyboard_Indicator/lcd_variables.o
 .text          0x0000000000000000        0x0 obj/Debug/Keyboard_Indicator/Keypad.o
 .data          0x0000000000000000        0x0 obj/Debug/Keyboard_Indicator/Keypad.o
 .bss           0x0000000000000000        0x0 obj/Debug/Keyboard_Indicator/Keypad.o
 .note.GNU-stack
                0x0000000000000000        0x0 obj/Debug/Keyboard_Indicator/Keypad.o
 .text          0x0000000000000000        0x0 obj/Debug/Keyboard_Indicator/Indicator_Variables.o
 .data          0x0000000000000000        0x0 obj/Debug/Keyboard_Indicator/Indicator_Variables.o
 .bss           0x0000000000000000        0x0 obj/Debug/Keyboard_Indicator/Indicator_Variables.o
 .bss.eVarNumber
                0x0000000000000000        0x4 obj/Debug/Keyboard_Indicator/Indicator_Variables.o
 .data.cChangingSpeed
                0x0000000000000000        0x1 obj/Debug/Keyboard_Indicator/Indicator_Variables.o
 .bss.bPointShifted
                0x0000000000000000        0x2 obj/Debug/Keyboard_Indicator/Indicator_Variables.o
 .bss.fIndicatorLeds
                0x0000000000000000        0x1 obj/Debug/Keyboard_Indicator/Indicator_Variables.o
 .note.GNU-stack
                0x0000000000000000        0x0 obj/Debug/Keyboard_Indicator/Indicator_Variables.o
 .text          0x0000000000000000        0x0 obj/Debug/i2c_lcd/i2c_lcd.o
 .data          0x0000000000000000        0x0 obj/Debug/i2c_lcd/i2c_lcd.o
 .bss           0x0000000000000000        0x0 obj/Debug/i2c_lcd/i2c_lcd.o
 .text.LCDI2C_noDisplay
                0x0000000000000000       0x44 obj/Debug/i2c_lcd/i2c_lcd.o
 .text.LCDI2C_noCursor
                0x0000000000000000       0x44 obj/Debug/i2c_lcd/i2c_lcd.o
 .text.LCDI2C_cursor
                0x0000000000000000       0x44 obj/Debug/i2c_lcd/i2c_lcd.o
 .text.LCDI2C_scrollDisplayLeft
                0x0000000000000000       0x18 obj/Debug/i2c_lcd/i2c_lcd.o
 .text.LCDI2C_scrollDisplayRight
                0x0000000000000000       0x18 obj/Debug/i2c_lcd/i2c_lcd.o
 .text.LCDI2C_leftToRight
                0x0000000000000000       0x44 obj/Debug/i2c_lcd/i2c_lcd.o
 .text.LCDI2C_rightToLeft
                0x0000000000000000       0x44 obj/Debug/i2c_lcd/i2c_lcd.o
 .text.LCDI2C_autoscroll
                0x0000000000000000       0x44 obj/Debug/i2c_lcd/i2c_lcd.o
 .text.LCDI2C_noAutoscroll
                0x0000000000000000       0x44 obj/Debug/i2c_lcd/i2c_lcd.o
 .text.LCDI2C_createChar
                0x0000000000000000       0x90 obj/Debug/i2c_lcd/i2c_lcd.o
 .text.LCDI2C_noBacklight
                0x0000000000000000       0x28 obj/Debug/i2c_lcd/i2c_lcd.o
 .text.LCDI2C_cursor_on
                0x0000000000000000       0x14 obj/Debug/i2c_lcd/i2c_lcd.o
 .text.LCDI2C_cursor_off
                0x0000000000000000       0x14 obj/Debug/i2c_lcd/i2c_lcd.o
 .text.LCDI2C_load_custom_character
                0x0000000000000000       0x34 obj/Debug/i2c_lcd/i2c_lcd.o
 .text.LCDI2C_setBacklight
                0x0000000000000000       0x38 obj/Debug/i2c_lcd/i2c_lcd.o
 .note.GNU-stack
                0x0000000000000000        0x0 obj/Debug/i2c_lcd/i2c_lcd.o
 .text          0x0000000000000000        0x0 obj/Debug/i2c_lcd/lcd.o
 .data          0x0000000000000000        0x0 obj/Debug/i2c_lcd/lcd.o
 .bss           0x0000000000000000        0x0 obj/Debug/i2c_lcd/lcd.o
 .text.WriteFullString
                0x0000000000000000       0x80 obj/Debug/i2c_lcd/lcd.o
 .note.GNU-stack
                0x0000000000000000        0x0 obj/Debug/i2c_lcd/lcd.o
 .text          0x0000000000000000        0x0 obj/Debug/ADC/ADC_Unit.o
 .data          0x0000000000000000        0x0 obj/Debug/ADC/ADC_Unit.o
 .bss           0x0000000000000000        0x0 obj/Debug/ADC/ADC_Unit.o
 .rodata.ADS1256_DRATE_E
                0x0000000000000000       0x10 obj/Debug/ADC/ADC_Unit.o
 .bss.iUref     0x0000000000000000        0x2 obj/Debug/ADC/ADC_Unit.o
 .bss.fUref     0x0000000000000000        0x4 obj/Debug/ADC/ADC_Unit.o
 .note.GNU-stack
                0x0000000000000000        0x0 obj/Debug/ADC/ADC_Unit.o
 .text          0x0000000000000000        0x0 obj/Debug/ADC/ADS1256.o
 .data          0x0000000000000000        0x0 obj/Debug/ADC/ADS1256.o
 .bss           0x0000000000000000        0x0 obj/Debug/ADC/ADS1256.o
 .text.ADS1256_GetAll
                0x0000000000000000       0x68 obj/Debug/ADC/ADS1256.o
 .note.GNU-stack
                0x0000000000000000        0x0 obj/Debug/ADC/ADS1256.o
 .text          0x0000000000000000        0x0 obj/Debug/ThermoControlLibrary/Interpolations.o
 .data          0x0000000000000000        0x0 obj/Debug/ThermoControlLibrary/Interpolations.o
 .bss           0x0000000000000000        0x0 obj/Debug/ThermoControlLibrary/Interpolations.o
 .note.GNU-stack
                0x0000000000000000        0x0 obj/Debug/ThermoControlLibrary/Interpolations.o
 .text          0x0000000000000000        0x0 obj/Debug/ThermoControlLibrary/PIDCalculs.o
 .data          0x0000000000000000        0x0 obj/Debug/ThermoControlLibrary/PIDCalculs.o
 .bss           0x0000000000000000        0x0 obj/Debug/ThermoControlLibrary/PIDCalculs.o
 .rodata.ADS1256_DRATE_E
                0x0000000000000000       0x10 obj/Debug/ThermoControlLibrary/PIDCalculs.o
 .text.Kintegr  0x0000000000000000       0x28 obj/Debug/ThermoControlLibrary/PIDCalculs.o
 .note.GNU-stack
                0x0000000000000000        0x0 obj/Debug/ThermoControlLibrary/PIDCalculs.o
 .text          0x0000000000000000        0x0 obj/Debug/ThermoControlLibrary/Interface.o
 .data          0x0000000000000000        0x0 obj/Debug/ThermoControlLibrary/Interface.o
 .bss           0x0000000000000000        0x0 obj/Debug/ThermoControlLibrary/Interface.o
 .rodata        0x0000000000000000        0x3 obj/Debug/ThermoControlLibrary/Interface.o
 .text.getTemperatureSet
                0x0000000000000000       0x3c obj/Debug/ThermoControlLibrary/Interface.o
 .debug_info    0x0000000000000000       0xc3 obj/Debug/ThermoControlLibrary/Interface.o
 .debug_abbrev  0x0000000000000000       0x68 obj/Debug/ThermoControlLibrary/Interface.o
 .debug_aranges
                0x0000000000000000       0x20 obj/Debug/ThermoControlLibrary/Interface.o
 .debug_ranges  0x0000000000000000       0x10 obj/Debug/ThermoControlLibrary/Interface.o
 .debug_line    0x0000000000000000       0xd1 obj/Debug/ThermoControlLibrary/Interface.o
 .debug_str     0x0000000000000000      0x1b9 obj/Debug/ThermoControlLibrary/Interface.o
 .comment       0x0000000000000000       0x2f obj/Debug/ThermoControlLibrary/Interface.o
 .note.GNU-stack
                0x0000000000000000        0x0 obj/Debug/ThermoControlLibrary/Interface.o
 .debug_frame   0x0000000000000000       0x30 obj/Debug/ThermoControlLibrary/Interface.o
 .ARM.attributes
                0x0000000000000000       0x2f obj/Debug/ThermoControlLibrary/Interface.o
 .text          0x0000000000000000        0x0 obj/Debug/ThermoControlLibrary/ThermoControlVariables.o
 .data          0x0000000000000000        0x0 obj/Debug/ThermoControlLibrary/ThermoControlVariables.o
 .bss           0x0000000000000000        0x0 obj/Debug/ThermoControlLibrary/ThermoControlVariables.o
 .note.GNU-stack
                0x0000000000000000        0x0 obj/Debug/ThermoControlLibrary/ThermoControlVariables.o
 .text          0x0000000000000000        0x0 obj/Debug/UART/uart.o
 .data          0x0000000000000000        0x0 obj/Debug/UART/uart.o
 .bss           0x0000000000000000        0x0 obj/Debug/UART/uart.o
 .bss.ByteSReceived
                0x0000000000000000        0x2 obj/Debug/UART/uart.o
 .text.uart_addBuffer
                0x0000000000000000       0x6c obj/Debug/UART/uart.o
 .text.uart_send_responce
                0x0000000000000000       0x24 obj/Debug/UART/uart.o
 .text.uart_close
                0x0000000000000000       0x28 obj/Debug/UART/uart.o
 .note.GNU-stack
                0x0000000000000000        0x0 obj/Debug/UART/uart.o
 .text          0x0000000000000000        0x0 obj/Debug/diskIO.o
 .data          0x0000000000000000        0x0 obj/Debug/diskIO.o
 .bss           0x0000000000000000        0x0 obj/Debug/diskIO.o
 .note.GNU-stack
                0x0000000000000000        0x0 obj/Debug/diskIO.o
 .text          0x0000000000000000        0x0 obj/Debug/globalvardefs.o
 .data          0x0000000000000000        0x0 obj/Debug/globalvardefs.o
 .bss           0x0000000000000000        0x0 obj/Debug/globalvardefs.o
 .bss.HeaterVoltage
                0x0000000000000000        0x2 obj/Debug/globalvardefs.o
 .bss.CoolerVoltage
                0x0000000000000000        0x2 obj/Debug/globalvardefs.o
 .bss.ControlDiodeVoltage
                0x0000000000000000        0x2 obj/Debug/globalvardefs.o
 .note.GNU-stack
                0x0000000000000000        0x0 obj/Debug/globalvardefs.o
 .data          0x0000000000000000        0x0 C:/SysGCC/raspberry/arm-linux-gnueabihf/lib\libgcc.a(_udivsi3.o)
 .bss           0x0000000000000000        0x0 C:/SysGCC/raspberry/arm-linux-gnueabihf/lib\libgcc.a(_udivsi3.o)
 .note.GNU-stack
                0x0000000000000000        0x0 C:/SysGCC/raspberry/arm-linux-gnueabihf/lib\libgcc.a(_udivsi3.o)
 .data          0x0000000000000000        0x0 C:/SysGCC/raspberry/arm-linux-gnueabihf/lib\libgcc.a(_divsi3.o)
 .bss           0x0000000000000000        0x0 C:/SysGCC/raspberry/arm-linux-gnueabihf/lib\libgcc.a(_divsi3.o)
 .note.GNU-stack
                0x0000000000000000        0x0 C:/SysGCC/raspberry/arm-linux-gnueabihf/lib\libgcc.a(_divsi3.o)
 .data          0x0000000000000000        0x0 C:/SysGCC/raspberry/arm-linux-gnueabihf/lib\libgcc.a(_aeabi_ldivmod.o)
 .bss           0x0000000000000000        0x0 C:/SysGCC/raspberry/arm-linux-gnueabihf/lib\libgcc.a(_aeabi_ldivmod.o)
 .note.GNU-stack
                0x0000000000000000        0x0 C:/SysGCC/raspberry/arm-linux-gnueabihf/lib\libgcc.a(_aeabi_ldivmod.o)
 .data          0x0000000000000000        0x0 C:/SysGCC/raspberry/arm-linux-gnueabihf/lib\libgcc.a(_aeabi_uldivmod.o)
 .bss           0x0000000000000000        0x0 C:/SysGCC/raspberry/arm-linux-gnueabihf/lib\libgcc.a(_aeabi_uldivmod.o)
 .note.GNU-stack
                0x0000000000000000        0x0 C:/SysGCC/raspberry/arm-linux-gnueabihf/lib\libgcc.a(_aeabi_uldivmod.o)
 .data          0x0000000000000000        0x0 C:/SysGCC/raspberry/arm-linux-gnueabihf/lib\libgcc.a(_dvmd_lnx.o)
 .bss           0x0000000000000000        0x0 C:/SysGCC/raspberry/arm-linux-gnueabihf/lib\libgcc.a(_dvmd_lnx.o)
 .note.GNU-stack
                0x0000000000000000        0x0 C:/SysGCC/raspberry/arm-linux-gnueabihf/lib\libgcc.a(_dvmd_lnx.o)
 .data          0x0000000000000000        0x0 C:/SysGCC/raspberry/arm-linux-gnueabihf/lib\libgcc.a(_popcountsi2.o)
 .bss           0x0000000000000000        0x0 C:/SysGCC/raspberry/arm-linux-gnueabihf/lib\libgcc.a(_popcountsi2.o)
 .note.GNU-stack
                0x0000000000000000        0x0 C:/SysGCC/raspberry/arm-linux-gnueabihf/lib\libgcc.a(_popcountsi2.o)
 .data          0x0000000000000000        0x0 C:/SysGCC/raspberry/arm-linux-gnueabihf/lib\libgcc.a(_udivmoddi4.o)
 .bss           0x0000000000000000        0x0 C:/SysGCC/raspberry/arm-linux-gnueabihf/lib\libgcc.a(_udivmoddi4.o)
 .ARM.extab     0x0000000000000000        0x0 C:/SysGCC/raspberry/arm-linux-gnueabihf/lib\libgcc.a(_udivmoddi4.o)
 .note.GNU-stack
                0x0000000000000000        0x0 C:/SysGCC/raspberry/arm-linux-gnueabihf/lib\libgcc.a(_udivmoddi4.o)
 .data          0x0000000000000000        0x0 c:\sysgcc\raspberry\bin\../arm-linux-gnueabihf/sysroot/usr/lib/arm-linux-gnueabihf/libc_nonshared.a(elf-init.oS)
 .bss           0x0000000000000000        0x0 c:\sysgcc\raspberry\bin\../arm-linux-gnueabihf/sysroot/usr/lib/arm-linux-gnueabihf/libc_nonshared.a(elf-init.oS)
 .note.GNU-stack
                0x0000000000000000        0x0 c:\sysgcc\raspberry\bin\../arm-linux-gnueabihf/sysroot/usr/lib/arm-linux-gnueabihf/libc_nonshared.a(elf-init.oS)
 .data          0x0000000000000000        0x0 c:\sysgcc\raspberry\bin\../arm-linux-gnueabihf/sysroot/usr/lib/arm-linux-gnueabihf/libc_nonshared.a(atexit.oS)
 .bss           0x0000000000000000        0x0 c:\sysgcc\raspberry\bin\../arm-linux-gnueabihf/sysroot/usr/lib/arm-linux-gnueabihf/libc_nonshared.a(atexit.oS)
 .note.GNU-stack
                0x0000000000000000        0x0 c:\sysgcc\raspberry\bin\../arm-linux-gnueabihf/sysroot/usr/lib/arm-linux-gnueabihf/libc_nonshared.a(atexit.oS)
 .data          0x0000000000000000        0x0 c:\sysgcc\raspberry\bin\../arm-linux-gnueabihf/sysroot/usr/lib/arm-linux-gnueabihf/libc_nonshared.a(stat.oS)
 .bss           0x0000000000000000        0x0 c:\sysgcc\raspberry\bin\../arm-linux-gnueabihf/sysroot/usr/lib/arm-linux-gnueabihf/libc_nonshared.a(stat.oS)
 .note.GNU-stack
                0x0000000000000000        0x0 c:\sysgcc\raspberry\bin\../arm-linux-gnueabihf/sysroot/usr/lib/arm-linux-gnueabihf/libc_nonshared.a(stat.oS)
 .data          0x0000000000000000        0x0 c:\sysgcc\raspberry\bin\../arm-linux-gnueabihf/sysroot/usr/lib/arm-linux-gnueabihf/libc_nonshared.a(mknod.oS)
 .bss           0x0000000000000000        0x0 c:\sysgcc\raspberry\bin\../arm-linux-gnueabihf/sysroot/usr/lib/arm-linux-gnueabihf/libc_nonshared.a(mknod.oS)
 .note.GNU-stack
                0x0000000000000000        0x0 c:\sysgcc\raspberry\bin\../arm-linux-gnueabihf/sysroot/usr/lib/arm-linux-gnueabihf/libc_nonshared.a(mknod.oS)
 .text          0x0000000000000000        0x0 c:/sysgcc/raspberry/bin/../lib/gcc/arm-linux-gnueabihf/10/../../../../arm-linux-gnueabihf/lib/crtend.o
 .data          0x0000000000000000        0x0 c:/sysgcc/raspberry/bin/../lib/gcc/arm-linux-gnueabihf/10/../../../../arm-linux-gnueabihf/lib/crtend.o
 .bss           0x0000000000000000        0x0 c:/sysgcc/raspberry/bin/../lib/gcc/arm-linux-gnueabihf/10/../../../../arm-linux-gnueabihf/lib/crtend.o
 .rodata        0x0000000000000000       0x90 c:/sysgcc/raspberry/bin/../lib/gcc/arm-linux-gnueabihf/10/../../../../arm-linux-gnueabihf/lib/crtend.o
 .note.GNU-stack
                0x0000000000000000        0x0 c:/sysgcc/raspberry/bin/../lib/gcc/arm-linux-gnueabihf/10/../../../../arm-linux-gnueabihf/lib/crtend.o
 .text          0x0000000000000000        0x0 c:/sysgcc/raspberry/bin/../arm-linux-gnueabihf/sysroot/lib/arm-linux-gnueabihf/crtn.o
 .data          0x0000000000000000        0x0 c:/sysgcc/raspberry/bin/../arm-linux-gnueabihf/sysroot/lib/arm-linux-gnueabihf/crtn.o
 .bss           0x0000000000000000        0x0 c:/sysgcc/raspberry/bin/../arm-linux-gnueabihf/sysroot/lib/arm-linux-gnueabihf/crtn.o
 .note.GNU-stack
                0x0000000000000000        0x0 c:/sysgcc/raspberry/bin/../arm-linux-gnueabihf/sysroot/lib/arm-linux-gnueabihf/crtn.o

Memory Configuration

Name             Origin             Length             Attributes
*default*        0x0000000000000000 0xffffffffffffffff

Linker script and memory map

LOAD c:/sysgcc/raspberry/bin/../arm-linux-gnueabihf/sysroot/lib/arm-linux-gnueabihf/crt1.o
LOAD c:/sysgcc/raspberry/bin/../arm-linux-gnueabihf/sysroot/lib/arm-linux-gnueabihf/crti.o
LOAD c:/sysgcc/raspberry/bin/../lib/gcc/arm-linux-gnueabihf/10/../../../../arm-linux-gnueabihf/lib/crtbegin.o
LOAD obj/Debug/main.o
LOAD obj/Debug/DEV_Config.o
LOAD obj/Debug/bcm2835.o
LOAD obj/Debug/pigpio.o
LOAD obj/Debug/command.o
LOAD obj/Debug/commonUnit.o
LOAD obj/Debug/Executive/SPI1.o
LOAD obj/Debug/Executive/modulSPI.o
LOAD obj/Debug/Executive/nativePWM.o
LOAD obj/Debug/Executive/additionalMeasurements.o
LOAD obj/Debug/Keyboard_Indicator/lcd_variables.o
LOAD obj/Debug/Keyboard_Indicator/Keypad.o
LOAD obj/Debug/Keyboard_Indicator/Indicator_Variables.o
LOAD obj/Debug/i2c_lcd/i2c_lcd.o
LOAD obj/Debug/i2c_lcd/lcd.o
LOAD obj/Debug/ADC/ADC_Unit.o
LOAD obj/Debug/ADC/ADS1256.o
LOAD obj/Debug/ThermoControlLibrary/Interpolations.o
LOAD obj/Debug/ThermoControlLibrary/PIDCalculs.o
LOAD obj/Debug/ThermoControlLibrary/Interface.o
LOAD obj/Debug/ThermoControlLibrary/ThermoControlVariables.o
LOAD obj/Debug/UART/uart.o
LOAD obj/Debug/diskIO.o
LOAD obj/Debug/globalvardefs.o
LOAD C:/SysGCC/raspberry/arm-linux-gnueabihf/lib/libstdc++.so
LOAD C:/SysGCC/raspberry/arm-linux-gnueabihf/lib\libgcc.a
LOAD C:/SysGCC/raspberry/arm-linux-gnueabihf/lib/libgcc_s.so
START GROUP
LOAD c:/sysgcc/raspberry/bin/../arm-linux-gnueabihf/sysroot/lib/arm-linux-gnueabihf\libgcc_s.so.1
LOAD C:/SysGCC/raspberry/arm-linux-gnueabihf/lib\libgcc.a
END GROUP
LOAD c:/sysgcc/raspberry/bin/../arm-linux-gnueabihf/sysroot/lib/arm-linux-gnueabihf/libpthread.so
LOAD c:/sysgcc/raspberry/bin/../arm-linux-gnueabihf/sysroot/lib/arm-linux-gnueabihf/libc.so
START GROUP
LOAD c:\sysgcc\raspberry\bin\../arm-linux-gnueabihf/sysroot/lib/arm-linux-gnueabihf/libc.so.6
LOAD c:\sysgcc\raspberry\bin\../arm-linux-gnueabihf/sysroot/usr/lib/arm-linux-gnueabihf/libc_nonshared.a
LOAD c:\sysgcc\raspberry\bin\../arm-linux-gnueabihf/sysroot/lib/ld-linux-armhf.so.3
END GROUP
LOAD C:/SysGCC/raspberry/arm-linux-gnueabihf/lib\libgcc.a
LOAD C:/SysGCC/raspberry/arm-linux-gnueabihf/lib/libgcc_s.so
START GROUP
LOAD c:/sysgcc/raspberry/bin/../arm-linux-gnueabihf/sysroot/lib/arm-linux-gnueabihf\libgcc_s.so.1
LOAD C:/SysGCC/raspberry/arm-linux-gnueabihf/lib\libgcc.a
END GROUP
LOAD c:/sysgcc/raspberry/bin/../lib/gcc/arm-linux-gnueabihf/10/../../../../arm-linux-gnueabihf/lib/crtend.o
LOAD c:/sysgcc/raspberry/bin/../arm-linux-gnueabihf/sysroot/lib/arm-linux-gnueabihf/crtn.o
                [!provide]                        PROVIDE (__executable_start = SEGMENT_START ("text-segment", 0x10000))
                0x0000000000010154                . = (SEGMENT_START ("text-segment", 0x10000) + SIZEOF_HEADERS)

.interp         0x0000000000010154       0x19
 *(.interp)
 .interp        0x0000000000010154       0x19 c:/sysgcc/raspberry/bin/../arm-linux-gnueabihf/sysroot/lib/arm-linux-gnueabihf/crt1.o

.note.gnu.build-id
                0x0000000000010170       0x24
 *(.note.gnu.build-id)
 .note.gnu.build-id
                0x0000000000010170       0x24 linker stubs

.note.ABI-tag   0x0000000000010194       0x20
 .note.ABI-tag  0x0000000000010194       0x20 c:/sysgcc/raspberry/bin/../arm-linux-gnueabihf/sysroot/lib/arm-linux-gnueabihf/crt1.o

.hash
 *(.hash)

.gnu.hash       0x00000000000101b4      0x3f8
 *(.gnu.hash)
 .gnu.hash      0x00000000000101b4      0x3f8 c:/sysgcc/raspberry/bin/../arm-linux-gnueabihf/sysroot/lib/arm-linux-gnueabihf/crt1.o

.dynsym         0x00000000000105ac      0x7d0
 *(.dynsym)
 .dynsym        0x00000000000105ac      0x7d0 c:/sysgcc/raspberry/bin/../arm-linux-gnueabihf/sysroot/lib/arm-linux-gnueabihf/crt1.o

.dynstr         0x0000000000010d7c      0x530
 *(.dynstr)
 .dynstr        0x0000000000010d7c      0x530 c:/sysgcc/raspberry/bin/../arm-linux-gnueabihf/sysroot/lib/arm-linux-gnueabihf/crt1.o

.gnu.version    0x00000000000112ac       0xfa
 *(.gnu.version)
 .gnu.version   0x00000000000112ac       0xfa c:/sysgcc/raspberry/bin/../arm-linux-gnueabihf/sysroot/lib/arm-linux-gnueabihf/crt1.o

.gnu.version_d  0x00000000000113a8        0x0
 *(.gnu.version_d)
 .gnu.version_d
                0x00000000000113a8        0x0 c:/sysgcc/raspberry/bin/../arm-linux-gnueabihf/sysroot/lib/arm-linux-gnueabihf/crt1.o

.gnu.version_r  0x00000000000113a8       0x80
 *(.gnu.version_r)
 .gnu.version_r
                0x00000000000113a8       0x80 c:/sysgcc/raspberry/bin/../arm-linux-gnueabihf/sysroot/lib/arm-linux-gnueabihf/crt1.o

.rel.dyn        0x0000000000011428       0x20
 *(.rel.init)
 *(.rel.text .rel.text.* .rel.gnu.linkonce.t.*)
 *(.rel.fini)
 *(.rel.rodata .rel.rodata.* .rel.gnu.linkonce.r.*)
 *(.rel.data.rel.ro .rel.data.rel.ro.* .rel.gnu.linkonce.d.rel.ro.*)
 .rel.data.rel.ro
                0x0000000000011428       0x10 c:/sysgcc/raspberry/bin/../arm-linux-gnueabihf/sysroot/lib/arm-linux-gnueabihf/crt1.o
 *(.rel.data .rel.data.* .rel.gnu.linkonce.d.*)
 *(.rel.tdata .rel.tdata.* .rel.gnu.linkonce.td.*)
 *(.rel.tbss .rel.tbss.* .rel.gnu.linkonce.tb.*)
 *(.rel.ctors)
 *(.rel.dtors)
 *(.rel.got)
 .rel.got       0x0000000000011438        0x8 c:/sysgcc/raspberry/bin/../arm-linux-gnueabihf/sysroot/lib/arm-linux-gnueabihf/crt1.o
 *(.rel.bss .rel.bss.* .rel.gnu.linkonce.b.*)
 .rel.bss       0x0000000000011440        0x8 c:/sysgcc/raspberry/bin/../arm-linux-gnueabihf/sysroot/lib/arm-linux-gnueabihf/crt1.o
                [!provide]                        PROVIDE (__rel_iplt_start = .)
 *(.rel.iplt)
 .rel.iplt      0x0000000000011448        0x0 c:/sysgcc/raspberry/bin/../arm-linux-gnueabihf/sysroot/lib/arm-linux-gnueabihf/crt1.o
                [!provide]                        PROVIDE (__rel_iplt_end = .)

.rela.dyn       0x0000000000011448        0x0
 *(.rela.init)
 *(.rela.text .rela.text.* .rela.gnu.linkonce.t.*)
 *(.rela.fini)
 *(.rela.rodata .rela.rodata.* .rela.gnu.linkonce.r.*)
 *(.rela.data .rela.data.* .rela.gnu.linkonce.d.*)
 *(.rela.tdata .rela.tdata.* .rela.gnu.linkonce.td.*)
 *(.rela.tbss .rela.tbss.* .rela.gnu.linkonce.tb.*)
 *(.rela.ctors)
 *(.rela.dtors)
 *(.rela.got)
 *(.rela.bss .rela.bss.* .rela.gnu.linkonce.b.*)
                [!provide]                        PROVIDE (__rela_iplt_start = .)
 *(.rela.iplt)
                [!provide]                        PROVIDE (__rela_iplt_end = .)

.rel.plt        0x0000000000011448      0x3b8
 *(.rel.plt)
 .rel.plt       0x0000000000011448      0x3b8 c:/sysgcc/raspberry/bin/../arm-linux-gnueabihf/sysroot/lib/arm-linux-gnueabihf/crt1.o

.rela.plt
 *(.rela.plt)

.init           0x0000000000011800        0xc
 *(SORT_NONE(.init))
 .init          0x0000000000011800        0x8 c:/sysgcc/raspberry/bin/../arm-linux-gnueabihf/sysroot/lib/arm-linux-gnueabihf/crti.o
                0x0000000000011800                _init
 .init          0x0000000000011808        0x4 c:/sysgcc/raspberry/bin/../arm-linux-gnueabihf/sysroot/lib/arm-linux-gnueabihf/crtn.o

.plt            0x000000000001180c      0x5a8
 *(.plt)
 .plt           0x000000000001180c      0x5a8 c:/sysgcc/raspberry/bin/../arm-linux-gnueabihf/sysroot/lib/arm-linux-gnueabihf/crt1.o
                0x0000000000011820                pthread_mutex_unlock@@GLIBC_2.4
                0x000000000001182c                calloc@@GLIBC_2.4
                0x0000000000011838                strstr@@GLIBC_2.4
                0x0000000000011844                raise@@GLIBC_2.4
                0x0000000000011850                cfmakeraw@@GLIBC_2.4
                0x000000000001185c                strcmp@@GLIBC_2.4
                0x0000000000011868                setsockopt@@GLIBC_2.4
                0x0000000000011874                gnu_dev_makedev@@GLIBC_2.4
                0x0000000000011880                printf@@GLIBC_2.4
                0x000000000001188c                __isoc99_fscanf@@GLIBC_2.7
                0x0000000000011898                fopen@@GLIBC_2.4
                0x00000000000118a4                read@@GLIBC_2.4
                0x00000000000118b0                tcflush@@GLIBC_2.4
                0x00000000000118bc                fflush@@GLIBC_2.4
                0x00000000000118c8                free@@GLIBC_2.4
                0x00000000000118d4                fgets@@GLIBC_2.4
                0x00000000000118e0                pthread_mutex_lock@@GLIBC_2.4
                0x00000000000118ec                nanosleep@@GLIBC_2.4
                0x00000000000118f8                clock_gettime@@GLIBC_2.17
                0x0000000000011904                pthread_self@@GLIBC_2.4
                0x0000000000011910                memcpy@@GLIBC_2.4
                0x000000000001191c                pthread_mutex_init@@GLIBC_2.4
                0x0000000000011928                signal@@GLIBC_2.4
                0x0000000000011934                lseek@@GLIBC_2.4
                0x0000000000011940                pthread_attr_setstacksize@@GLIBC_2.4
                0x000000000001194c                htons@@GLIBC_2.4
                0x0000000000011958                pthread_cond_init@@GLIBC_2.4
                0x0000000000011964                unlink@@GLIBC_2.4
                0x0000000000011970                localtime_r@@GLIBC_2.4
                0x000000000001197c                strcasecmp@@GLIBC_2.4
                0x0000000000011988                geteuid@@GLIBC_2.4
                0x0000000000011994                perror@@GLIBC_2.4
                0x00000000000119a0                __xstat@@GLIBC_2.4
                0x00000000000119ac                poll@@GLIBC_2.4
                0x00000000000119b8                accept@@GLIBC_2.4
                0x00000000000119c4                cfsetospeed@@GLIBC_2.4
                0x00000000000119d0                sigaction@@GLIBC_2.4
                0x00000000000119dc                fwrite@@GLIBC_2.4
                0x00000000000119e8                strcat@@GLIBC_2.4
                0x00000000000119f4                ioctl@@GLIBC_2.4
                0x0000000000011a00                pthread_getschedparam@@GLIBC_2.4
                0x0000000000011a0c                usleep@@GLIBC_2.4
                0x0000000000011a18                pthread_attr_setschedparam@@GLIBC_2.4
                0x0000000000011a24                tcsetattr@@GLIBC_2.4
                0x0000000000011a30                strcpy@@GLIBC_2.4
                0x0000000000011a3c                gettimeofday@@GLIBC_2.4
                0x0000000000011a48                fread@@GLIBC_2.4
                0x0000000000011a54                pthread_create@@GLIBC_2.4
                0x0000000000011a60                fnmatch@@GLIBC_2.4
                0x0000000000011a6c                sched_get_priority_max@@GLIBC_2.4
                0x0000000000011a78                getenv@@GLIBC_2.4
                0x0000000000011a84                puts@@GLIBC_2.4
                0x0000000000011a90                malloc@@GLIBC_2.4
                0x0000000000011a9c                __libc_start_main@@GLIBC_2.4
                0x0000000000011aa8                strerror@@GLIBC_2.4
                0x0000000000011ab4                system@@GLIBC_2.4
                0x0000000000011ac0                strftime@@GLIBC_2.4
                0x0000000000011acc                pthread_attr_setschedpolicy@@GLIBC_2.4
                0x0000000000011ae4                open@@GLIBC_2.4
                0x0000000000011af0                kill@@GLIBC_2.4
                0x0000000000011afc                ntohl@@GLIBC_2.4
                0x0000000000011b08                __ctype_b_loc@@GLIBC_2.4
                0x0000000000011b14                getcwd@@GLIBC_2.4
                0x0000000000011b20                getpid@@GLIBC_2.4
                0x0000000000011b2c                exit@@GLIBC_2.4
                0x0000000000011b38                feof@@GLIBC_2.4
                0x0000000000011b44                flock@@GLIBC_2.4
                0x0000000000011b50                pthread_attr_setinheritsched@@GLIBC_2.4
                0x0000000000011b5c                strlen@@GLIBC_2.4
                0x0000000000011b68                mmap@@GLIBC_2.4
                0x0000000000011b74                strchr@@GLIBC_2.4
                0x0000000000011b80                atol@@GLIBC_2.4
                0x0000000000011b8c                fprintf@@GLIBC_2.4
                0x0000000000011b98                cfsetispeed@@GLIBC_2.4
                0x0000000000011ba4                pthread_attr_init@@GLIBC_2.4
                0x0000000000011bb0                __errno_location@@GLIBC_2.4
                0x0000000000011bbc                strncasecmp@@GLIBC_2.4
                0x0000000000011bc8                snprintf@@GLIBC_2.4
                0x0000000000011bd4                __cxa_atexit@@GLIBC_2.4
                0x0000000000011be0                __isoc99_sscanf@@GLIBC_2.7
                0x0000000000011bec                bind@@GLIBC_2.4
                0x0000000000011bf8                fcntl@@GLIBC_2.28
                0x0000000000011c04                memset@@GLIBC_2.4
                0x0000000000011c10                pthread_cancel@@GLIBC_2.4
                0x0000000000011c1c                write@@GLIBC_2.4
                0x0000000000011c28                fileno@@GLIBC_2.4
                0x0000000000011c34                memchr@@GLIBC_2.4
                0x0000000000011c40                pthread_kill@@GLIBC_2.4
                0x0000000000011c4c                fclose@@GLIBC_2.4
                0x0000000000011c58                pthread_exit@@GLIBC_2.4
                0x0000000000011c64                munmap@@GLIBC_2.4
                0x0000000000011c70                htonl@@GLIBC_2.4
                0x0000000000011c7c                toupper@@GLIBC_2.4
                0x0000000000011c88                strrchr@@GLIBC_2.4
                0x0000000000011c94                listen@@GLIBC_2.4
                0x0000000000011ca0                pthread_join@@GLIBC_2.4
                0x0000000000011cac                fputc@@GLIBC_2.4
                0x0000000000011cb8                sprintf@@GLIBC_2.4
                0x0000000000011cc4                atoi@@GLIBC_2.4
                0x0000000000011cd0                pthread_cond_wait@@GLIBC_2.4
                0x0000000000011cdc                glob@@GLIBC_2.27
                0x0000000000011ce8                pthread_setschedparam@@GLIBC_2.4
                0x0000000000011cf4                socket@@GLIBC_2.4
                0x0000000000011d00                atof@@GLIBC_2.4
                0x0000000000011d0c                clock_nanosleep@@GLIBC_2.17
                0x0000000000011d18                chmod@@GLIBC_2.4
                0x0000000000011d24                __xmknod@@GLIBC_2.4
                0x0000000000011d30                pthread_attr_setdetachstate@@GLIBC_2.4
                0x0000000000011d3c                fputs@@GLIBC_2.4
                0x0000000000011d48                strncmp@@GLIBC_2.4
                0x0000000000011d54                pthread_cond_signal@@GLIBC_2.4
                0x0000000000011d60                abort@@GLIBC_2.4
                0x0000000000011d6c                recv@@GLIBC_2.4
                0x0000000000011d78                close@@GLIBC_2.4
                0x0000000000011d84                mkfifo@@GLIBC_2.4
                0x0000000000011d90                globfree@@GLIBC_2.4
                0x0000000000011d9c                sched_setscheduler@@GLIBC_2.4
                0x0000000000011da8                tcgetattr@@GLIBC_2.4

.iplt           0x0000000000011db4        0x0
 *(.iplt)
 .iplt          0x0000000000011db4        0x0 c:/sysgcc/raspberry/bin/../arm-linux-gnueabihf/sysroot/lib/arm-linux-gnueabihf/crt1.o

.text           0x0000000000011db8    0x36288
 *(.text.unlikely .text.*_unlikely .text.unlikely.*)
 *(.text.exit .text.exit.*)
 *(.text.startup .text.startup.*)
 *(.text.hot .text.hot.*)
 *(SORT_BY_NAME(.text.sorted.*))
 *(.text .stub .text.* .gnu.linkonce.t.*)
 .text          0x0000000000011db8       0x3c c:/sysgcc/raspberry/bin/../arm-linux-gnueabihf/sysroot/lib/arm-linux-gnueabihf/crt1.o
                0x0000000000011db8                _start
 .text          0x0000000000011df4       0x24 c:/sysgcc/raspberry/bin/../arm-linux-gnueabihf/sysroot/lib/arm-linux-gnueabihf/crti.o
 .text          0x0000000000011e18       0x90 c:/sysgcc/raspberry/bin/../lib/gcc/arm-linux-gnueabihf/10/../../../../arm-linux-gnueabihf/lib/crtbegin.o
 .text.Interface_Process
                0x0000000000011ea8       0xb8 obj/Debug/main.o
                0x0000000000011ea8                Interface_Process
 .text.ServiceMeasurements_Process
                0x0000000000011f60       0x44 obj/Debug/main.o
                0x0000000000011f60                ServiceMeasurements_Process
 .text.Keypad_service
                0x0000000000011fa4       0x40 obj/Debug/main.o
                0x0000000000011fa4                Keypad_service
 .text.TemperatureRegulator_service
                0x0000000000011fe4      0x1f0 obj/Debug/main.o
                0x0000000000011fe4                TemperatureRegulator_service
 .text.Measurements
                0x00000000000121d4       0x44 obj/Debug/main.o
                0x00000000000121d4                Measurements
 .text.PowerEquipment_service
                0x0000000000012218       0x24 obj/Debug/main.o
                0x0000000000012218                PowerEquipment_service
 .text.UARTCommThread_service
                0x000000000001223c       0x58 obj/Debug/main.o
                0x000000000001223c                UARTCommThread_service
 .text.Inits    0x0000000000012294      0x2a4 obj/Debug/main.o
                0x0000000000012294                Inits
 .text.SetThreadPriority
                0x0000000000012538       0x98 obj/Debug/main.o
                0x0000000000012538                SetThreadPriority
 .text.K45GlobalInit
                0x00000000000125d0       0xf4 obj/Debug/main.o
                0x00000000000125d0                K45GlobalInit
 .text.main     0x00000000000126c4       0x94 obj/Debug/main.o
                0x00000000000126c4                main
 .text.DEV_GPIOConfig
                0x0000000000012758       0x34 obj/Debug/DEV_Config.o
 .text.DEV_ModuleInit
                0x000000000001278c       0x68 obj/Debug/DEV_Config.o
                0x000000000001278c                DEV_ModuleInit
 .text.DEV_ModuleExit
                0x00000000000127f4       0x18 obj/Debug/DEV_Config.o
                0x00000000000127f4                DEV_ModuleExit
 .text.Handler  0x000000000001280c       0x34 obj/Debug/DEV_Config.o
                0x000000000001280c                Handler
 .text.bcm2835_correct_order
                0x0000000000012840       0x50 obj/Debug/bcm2835.o
 .text.bcm2835_peri_read
                0x0000000000012890       0x60 obj/Debug/bcm2835.o
                0x0000000000012890                bcm2835_peri_read
 .text.bcm2835_peri_read_nb
                0x00000000000128f0       0x50 obj/Debug/bcm2835.o
                0x00000000000128f0                bcm2835_peri_read_nb
 .text.bcm2835_peri_write
                0x0000000000012940       0x60 obj/Debug/bcm2835.o
                0x0000000000012940                bcm2835_peri_write
 .text.bcm2835_peri_write_nb
                0x00000000000129a0       0x58 obj/Debug/bcm2835.o
                0x00000000000129a0                bcm2835_peri_write_nb
 .text.bcm2835_peri_set_bits
                0x00000000000129f8       0x60 obj/Debug/bcm2835.o
                0x00000000000129f8                bcm2835_peri_set_bits
 .text.bcm2835_gpio_fsel
                0x0000000000012a58       0xc4 obj/Debug/bcm2835.o
                0x0000000000012a58                bcm2835_gpio_fsel
 .text.bcm2835_gpio_set
                0x0000000000012b1c       0x6c obj/Debug/bcm2835.o
                0x0000000000012b1c                bcm2835_gpio_set
 .text.bcm2835_gpio_clr
                0x0000000000012b88       0x6c obj/Debug/bcm2835.o
                0x0000000000012b88                bcm2835_gpio_clr
 .text.bcm2835_gpio_lev
                0x0000000000012bf4       0x88 obj/Debug/bcm2835.o
                0x0000000000012bf4                bcm2835_gpio_lev
 .text.bcm2835_gpio_pud
                0x0000000000012c7c       0x6c obj/Debug/bcm2835.o
                0x0000000000012c7c                bcm2835_gpio_pud
 .text.bcm2835_gpio_pudclk
                0x0000000000012ce8       0xcc obj/Debug/bcm2835.o
                0x0000000000012ce8                bcm2835_gpio_pudclk
 .text.bcm2835_delay
                0x0000000000012db4       0x98 obj/Debug/bcm2835.o
                0x0000000000012db4                bcm2835_delay
 .text.bcm2835_delayMicroseconds
                0x0000000000012e4c       0xf4 obj/Debug/bcm2835.o
                0x0000000000012e4c                bcm2835_delayMicroseconds
 .text.bcm2835_gpio_write
                0x0000000000012f40       0x54 obj/Debug/bcm2835.o
                0x0000000000012f40                bcm2835_gpio_write
 .text.bcm2835_gpio_set_pud
                0x0000000000012f94      0x168 obj/Debug/bcm2835.o
                0x0000000000012f94                bcm2835_gpio_set_pud
 .text.bcm2835_spi_begin
                0x00000000000130fc       0x98 obj/Debug/bcm2835.o
                0x00000000000130fc                bcm2835_spi_begin
 .text.bcm2835_spi_end
                0x0000000000013194       0x4c obj/Debug/bcm2835.o
                0x0000000000013194                bcm2835_spi_end
 .text.bcm2835_spi_setBitOrder
                0x00000000000131e0       0x34 obj/Debug/bcm2835.o
                0x00000000000131e0                bcm2835_spi_setBitOrder
 .text.bcm2835_spi_setClockDivider
                0x0000000000013214       0x44 obj/Debug/bcm2835.o
                0x0000000000013214                bcm2835_spi_setClockDivider
 .text.bcm2835_spi_setDataMode
                0x0000000000013258       0x48 obj/Debug/bcm2835.o
                0x0000000000013258                bcm2835_spi_setDataMode
 .text.bcm2835_spi_transfer
                0x00000000000132a0       0xec obj/Debug/bcm2835.o
                0x00000000000132a0                bcm2835_spi_transfer
 .text.bcm2835_i2c_begin
                0x000000000001338c       0xc8 obj/Debug/bcm2835.o
                0x000000000001338c                bcm2835_i2c_begin
 .text.bcm2835_i2c_end
                0x0000000000013454       0x28 obj/Debug/bcm2835.o
                0x0000000000013454                bcm2835_i2c_end
 .text.bcm2835_i2c_setSlaveAddress
                0x000000000001347c       0x44 obj/Debug/bcm2835.o
                0x000000000001347c                bcm2835_i2c_setSlaveAddress
 .text.bcm2835_i2c_setClockDivider
                0x00000000000134c0       0x88 obj/Debug/bcm2835.o
                0x00000000000134c0                bcm2835_i2c_setClockDivider
 .text.bcm2835_i2c_set_baudrate
                0x0000000000013548       0x48 obj/Debug/bcm2835.o
                0x0000000000013548                bcm2835_i2c_set_baudrate
 .text.bcm2835_i2c_write
                0x0000000000013590      0x1e8 obj/Debug/bcm2835.o
                0x0000000000013590                bcm2835_i2c_write
 .text.bcm2835_st_read
                0x0000000000013778      0x16c obj/Debug/bcm2835.o
                0x0000000000013778                bcm2835_st_read
 .text.bcm2835_st_delay
                0x00000000000138e4       0x50 obj/Debug/bcm2835.o
                0x00000000000138e4                bcm2835_st_delay
 .text.bcm2835_pwm_set_clock
                0x0000000000013934       0xec obj/Debug/bcm2835.o
                0x0000000000013934                bcm2835_pwm_set_clock
 .text.bcm2835_pwm_set_mode
                0x0000000000013a20      0x140 obj/Debug/bcm2835.o
                0x0000000000013a20                bcm2835_pwm_set_mode
 .text.bcm2835_pwm_set_range
                0x0000000000013b60       0x9c obj/Debug/bcm2835.o
                0x0000000000013b60                bcm2835_pwm_set_range
 .text.bcm2835_pwm_set_data
                0x0000000000013bfc       0x9c obj/Debug/bcm2835.o
                0x0000000000013bfc                bcm2835_pwm_set_data
 .text.mapmem   0x0000000000013c98       0x98 obj/Debug/bcm2835.o
 .text.unmapmem
                0x0000000000013d30       0x54 obj/Debug/bcm2835.o
 .text.bcm2835_init
                0x0000000000013d84      0x570 obj/Debug/bcm2835.o
                0x0000000000013d84                bcm2835_init
 .text.bcm2835_close
                0x00000000000142f4       0xf8 obj/Debug/bcm2835.o
                0x00000000000142f4                bcm2835_close
 .text.myScriptNameValid
                0x00000000000143ec       0xc0 obj/Debug/pigpio.o
                0x00000000000143ec                myScriptNameValid
 .text.myTimeStamp
                0x00000000000144ac       0x80 obj/Debug/pigpio.o
 .text.myPathBad
                0x000000000001452c      0x170 obj/Debug/pigpio.o
                0x000000000001452c                myPathBad
 .text.myBuf2Str
                0x000000000001469c       0xf4 obj/Debug/pigpio.o
 .text.my_smbus_access
                0x0000000000014790       0xf8 obj/Debug/pigpio.o
 .text.myGpioSetMode
                0x0000000000014888       0xc8 obj/Debug/pigpio.o
 .text.myGpioRead
                0x0000000000014950       0x6c obj/Debug/pigpio.o
 .text.myGpioWrite
                0x00000000000149bc       0xa0 obj/Debug/pigpio.o
 .text.myGpioSleep
                0x0000000000014a5c       0x80 obj/Debug/pigpio.o
 .text.myGpioDelay
                0x0000000000014adc       0xdc obj/Debug/pigpio.o
 .text.myCreatePipe
                0x0000000000014bb8       0xb0 obj/Debug/pigpio.o
 .text.myOffPageSlot
                0x0000000000014c68       0x88 obj/Debug/pigpio.o
 .text.myLvsPageSlot
                0x0000000000014cf0       0x88 obj/Debug/pigpio.o
 .text.myTckPageSlot
                0x0000000000014d78       0x60 obj/Debug/pigpio.o
 .text.myGetLevel
                0x0000000000014dd8       0x60 obj/Debug/pigpio.o
 .text.myI2CGetPar
                0x0000000000014e38      0x104 obj/Debug/pigpio.o
 .text.myGetTick
                0x0000000000014f3c       0x60 obj/Debug/pigpio.o
 .text.myPermit
                0x0000000000014f9c       0x74 obj/Debug/pigpio.o
 .text.flushMemory
                0x0000000000015010      0x100 obj/Debug/pigpio.o
 .text.wfRx_lock
                0x0000000000015110       0x4c obj/Debug/pigpio.o
 .text.wfRx_unlock
                0x000000000001515c       0x4c obj/Debug/pigpio.o
 .text.spinWhileStarting
                0x00000000000151a8       0x50 obj/Debug/pigpio.o
 .text.myDoCommand
                0x00000000000151f8     0x28c0 obj/Debug/pigpio.o
 .text.mySetGpioOff
                0x0000000000017ab8       0x9c obj/Debug/pigpio.o
 .text.myClearGpioOff
                0x0000000000017b54       0xa0 obj/Debug/pigpio.o
 .text.mySetGpioOn
                0x0000000000017bf4       0xb4 obj/Debug/pigpio.o
 .text.myClearGpioOn
                0x0000000000017ca8       0xb8 obj/Debug/pigpio.o
 .text.myGpioSetPwm
                0x0000000000017d60      0x510 obj/Debug/pigpio.o
 .text.myGpioSetServo
                0x0000000000018270      0x47c obj/Debug/pigpio.o
 .text.mbCreate
                0x00000000000186ec       0x48 obj/Debug/pigpio.o
 .text.mbOpen   0x0000000000018734       0x58 obj/Debug/pigpio.o
 .text.mbClose  0x000000000001878c       0x24 obj/Debug/pigpio.o
 .text.mbProperty
                0x00000000000187b0       0x38 obj/Debug/pigpio.o
 .text.mbAllocateMemory
                0x00000000000187e8      0x154 obj/Debug/pigpio.o
 .text.mbLockMemory
                0x000000000001893c      0x10c obj/Debug/pigpio.o
 .text.mbUnlockMemory
                0x0000000000018a48      0x10c obj/Debug/pigpio.o
 .text.mbReleaseMemory
                0x0000000000018b54      0x10c obj/Debug/pigpio.o
 .text.mbMapMem
                0x0000000000018c60       0x5c obj/Debug/pigpio.o
 .text.mbUnmapMem
                0x0000000000018cbc       0x30 obj/Debug/pigpio.o
 .text.mbDMAFree
                0x0000000000018cec       0x90 obj/Debug/pigpio.o
 .text.mbDMAAlloc
                0x0000000000018d7c       0xc0 obj/Debug/pigpio.o
 .text.rawWaveCBAdr
                0x0000000000018e3c       0xa0 obj/Debug/pigpio.o
                0x0000000000018e3c                rawWaveCBAdr
 .text.waveCbPOadr
                0x0000000000018edc       0xa0 obj/Debug/pigpio.o
 .text.waveOOLPageSlot
                0x0000000000018f7c       0x84 obj/Debug/pigpio.o
 .text.waveSetOOL
                0x0000000000019000       0x60 obj/Debug/pigpio.o
 .text.waveOOLPOadr
                0x0000000000019060       0x5c obj/Debug/pigpio.o
 .text.waveBitDelay
                0x00000000000190bc      0x128 obj/Debug/pigpio.o
 .text.waveDelayCBs
                0x00000000000191e4       0xb4 obj/Debug/pigpio.o
 .text.waveCBsOOLs
                0x0000000000019298      0x21c obj/Debug/pigpio.o
 .text.wave2Cbs
                0x00000000000194b4      0x8dc obj/Debug/pigpio.o
 .text.waveRxSerial
                0x0000000000019d90      0x2d4 obj/Debug/pigpio.o
 .text.waveRxBit
                0x000000000001a064       0x7c obj/Debug/pigpio.o
 .text.rawWaveAddGeneric
                0x000000000001a0e0      0x800 obj/Debug/pigpio.o
                0x000000000001a0e0                rawWaveAddGeneric
 .text.i2cWriteQuick
                0x000000000001a8e0      0x310 obj/Debug/pigpio.o
                0x000000000001a8e0                i2cWriteQuick
 .text.i2cReadByte
                0x000000000001abf0      0x2a4 obj/Debug/pigpio.o
                0x000000000001abf0                i2cReadByte
 .text.i2cWriteByte
                0x000000000001ae94      0x310 obj/Debug/pigpio.o
                0x000000000001ae94                i2cWriteByte
 .text.i2cReadByteData
                0x000000000001b1a4      0x310 obj/Debug/pigpio.o
                0x000000000001b1a4                i2cReadByteData
 .text.i2cWriteByteData
                0x000000000001b4b4      0x384 obj/Debug/pigpio.o
                0x000000000001b4b4                i2cWriteByteData
 .text.i2cReadWordData
                0x000000000001b838      0x310 obj/Debug/pigpio.o
                0x000000000001b838                i2cReadWordData
 .text.i2cWriteWordData
                0x000000000001bb48      0x384 obj/Debug/pigpio.o
                0x000000000001bb48                i2cWriteWordData
 .text.i2cProcessCall
                0x000000000001becc      0x384 obj/Debug/pigpio.o
                0x000000000001becc                i2cProcessCall
 .text.i2cReadBlockData
                0x000000000001c250      0x380 obj/Debug/pigpio.o
                0x000000000001c250                i2cReadBlockData
 .text.i2cWriteBlockData
                0x000000000001c5d0      0x3fc obj/Debug/pigpio.o
                0x000000000001c5d0                i2cWriteBlockData
 .text.i2cBlockProcessCall
                0x000000000001c9cc      0x460 obj/Debug/pigpio.o
                0x000000000001c9cc                i2cBlockProcessCall
 .text.i2cReadI2CBlockData
                0x000000000001ce2c      0x424 obj/Debug/pigpio.o
                0x000000000001ce2c                i2cReadI2CBlockData
 .text.i2cWriteI2CBlockData
                0x000000000001d250      0x3fc obj/Debug/pigpio.o
                0x000000000001d250                i2cWriteI2CBlockData
 .text.i2cWriteDevice
                0x000000000001d64c      0x2c4 obj/Debug/pigpio.o
                0x000000000001d64c                i2cWriteDevice
 .text.i2cReadDevice
                0x000000000001d910      0x2b4 obj/Debug/pigpio.o
                0x000000000001d910                i2cReadDevice
 .text.i2cOpen  0x000000000001dbc4      0x410 obj/Debug/pigpio.o
                0x000000000001dbc4                i2cOpen
 .text.i2cClose
                0x000000000001dfd4      0x214 obj/Debug/pigpio.o
                0x000000000001dfd4                i2cClose
 .text.i2cSwitchCombined
                0x000000000001e1e8       0xd8 obj/Debug/pigpio.o
                0x000000000001e1e8                i2cSwitchCombined
 .text.i2cSegments
                0x000000000001e2c0      0x2b0 obj/Debug/pigpio.o
                0x000000000001e2c0                i2cSegments
 .text.i2cZip   0x000000000001e570      0x88c obj/Debug/pigpio.o
                0x000000000001e570                i2cZip
 .text._spiTXBits
                0x000000000001edfc       0xc8 obj/Debug/pigpio.o
 .text._spiRXBits
                0x000000000001eec4       0xc4 obj/Debug/pigpio.o
 .text.spiACS   0x000000000001ef88       0x74 obj/Debug/pigpio.o
 .text.spiGoA   0x000000000001effc      0x3bc obj/Debug/pigpio.o
 .text.spiGoS   0x000000000001f3b8      0x448 obj/Debug/pigpio.o
 .text.spiGo    0x000000000001f800       0x9c obj/Debug/pigpio.o
 .text.spiAnyOpen
                0x000000000001f89c       0xc4 obj/Debug/pigpio.o
 .text.spiInit  0x000000000001f960      0x350 obj/Debug/pigpio.o
 .text.spiTerm  0x000000000001fcb0      0x230 obj/Debug/pigpio.o
 .text.spiOpen  0x000000000001fee0      0x440 obj/Debug/pigpio.o
                0x000000000001fee0                spiOpen
 .text.spiClose
                0x0000000000020320      0x234 obj/Debug/pigpio.o
                0x0000000000020320                spiClose
 .text.spiRead  0x0000000000020554      0x28c obj/Debug/pigpio.o
                0x0000000000020554                spiRead
 .text.spiWrite
                0x00000000000207e0      0x28c obj/Debug/pigpio.o
                0x00000000000207e0                spiWrite
 .text.spiXfer  0x0000000000020a6c      0x290 obj/Debug/pigpio.o
                0x0000000000020a6c                spiXfer
 .text.serOpen  0x0000000000020cfc      0x6a0 obj/Debug/pigpio.o
                0x0000000000020cfc                serOpen
 .text.serClose
                0x000000000002139c      0x214 obj/Debug/pigpio.o
                0x000000000002139c                serClose
 .text.serWriteByte
                0x00000000000215b0      0x254 obj/Debug/pigpio.o
                0x00000000000215b0                serWriteByte
 .text.serReadByte
                0x0000000000021804      0x220 obj/Debug/pigpio.o
                0x0000000000021804                serReadByte
 *fill*         0x0000000000021a24        0x4 
 .text.serWrite
                0x0000000000021a28      0x2e4 obj/Debug/pigpio.o
                0x0000000000021a28                serWrite
 .text.serRead  0x0000000000021d0c      0x294 obj/Debug/pigpio.o
                0x0000000000021d0c                serRead
 .text.serDataAvailable
                0x0000000000021fa0      0x1e4 obj/Debug/pigpio.o
                0x0000000000021fa0                serDataAvailable
 *fill*         0x0000000000022184        0x4 
 .text.chooseBestClock
                0x0000000000022188      0x21c obj/Debug/pigpio.o
 .text.dmaCB2adr
                0x00000000000223a4       0xac obj/Debug/pigpio.o
 .text.dmaCbPrint
                0x0000000000022450       0x8c obj/Debug/pigpio.o
 .text.dmaNowAtICB
                0x00000000000224dc      0x184 obj/Debug/pigpio.o
 .text.dmaNowAtOCB
                0x0000000000022660      0x188 obj/Debug/pigpio.o
 .text.dmaCurrentSlot
                0x00000000000227e8       0xc4 obj/Debug/pigpio.o
 .text.dmaPwmDataAdr
                0x00000000000228ac       0x40 obj/Debug/pigpio.o
 .text.dmaGpioOnAdr
                0x00000000000228ec       0x78 obj/Debug/pigpio.o
 .text.dmaGpioOffAdr
                0x0000000000022964       0x60 obj/Debug/pigpio.o
 .text.dmaTickAdr
                0x00000000000229c4       0x5c obj/Debug/pigpio.o
 .text.dmaReadLevelsAdr
                0x0000000000022a20       0x5c obj/Debug/pigpio.o
 .text.dmaCbAdr
                0x0000000000022a7c       0xac obj/Debug/pigpio.o
 .text.dmaGpioOnCb
                0x0000000000022b28       0x9c obj/Debug/pigpio.o
 .text.dmaTickCb
                0x0000000000022bc4       0x9c obj/Debug/pigpio.o
 .text.dmaGpioOffCb
                0x0000000000022c60       0x9c obj/Debug/pigpio.o
 .text.dmaReadLevelsCb
                0x0000000000022cfc       0x9c obj/Debug/pigpio.o
 .text.dmaDelayCb
                0x0000000000022d98      0x11c obj/Debug/pigpio.o
 .text.dmaInitCbs
                0x0000000000022eb4      0x2cc obj/Debug/pigpio.o
 .text.sigHandler
                0x0000000000023180      0x3a4 obj/Debug/pigpio.o
 .text.sigSetHandler
                0x0000000000023524       0x74 obj/Debug/pigpio.o
 .text.alertGlitchFilter
                0x0000000000023598      0x390 obj/Debug/pigpio.o
 .text.alertNoiseFilter
                0x0000000000023928      0x3c8 obj/Debug/pigpio.o
 .text.alertEmit
                0x0000000000023cf0     0x1990 obj/Debug/pigpio.o
 .text.alertWdogCheck
                0x0000000000025680      0x184 obj/Debug/pigpio.o
 .text.pthAlertThread
                0x0000000000025804      0x898 obj/Debug/pigpio.o
 .text.scrPop   0x000000000002609c       0xcc obj/Debug/pigpio.o
 .text.scrPush  0x0000000000026168       0xc8 obj/Debug/pigpio.o
 .text.scrSwap  0x0000000000026230       0x4c obj/Debug/pigpio.o
 .text.scrEvtWait
                0x000000000002627c       0xac obj/Debug/pigpio.o
 .text.scrWait  0x0000000000026328       0xac obj/Debug/pigpio.o
 .text.scrSys   0x00000000000263d4      0x150 obj/Debug/pigpio.o
 .text.pthScript
                0x0000000000026524      0xe50 obj/Debug/pigpio.o
 .text.pthFifoThread
                0x0000000000027374      0x5e0 obj/Debug/pigpio.o
 .text.pthSocketThreadHandler
                0x0000000000027954      0x4a0 obj/Debug/pigpio.o
 .text.addrAllowed
                0x0000000000027df4       0xb4 obj/Debug/pigpio.o
 .text.pthSocketThread
                0x0000000000027ea8      0x424 obj/Debug/pigpio.o
 .text.initCheckLockFile
                0x00000000000282cc      0x1b0 obj/Debug/pigpio.o
 .text.initGrabLockFile
                0x000000000002847c       0xb4 obj/Debug/pigpio.o
 .text.initMapMem
                0x0000000000028530       0x50 obj/Debug/pigpio.o
 .text.initCheckPermitted
                0x0000000000028580      0x140 obj/Debug/pigpio.o
 .text.initPeripherals
                0x00000000000286c0      0x754 obj/Debug/pigpio.o
 .text.initZaps
                0x0000000000028e14      0x2e8 obj/Debug/pigpio.o
 .text.initPagemapBlock
                0x00000000000290fc      0x384 obj/Debug/pigpio.o
 .text.initMboxBlock
                0x0000000000029480      0x1ec obj/Debug/pigpio.o
 .text.initAllocDMAMem
                0x000000000002966c      0x9c0 obj/Debug/pigpio.o
 .text.initPWM  0x000000000002a02c      0x12c obj/Debug/pigpio.o
 .text.initPCM  0x000000000002a158      0x250 obj/Debug/pigpio.o
 .text.initHWClk
                0x000000000002a3a8      0x1c0 obj/Debug/pigpio.o
 .text.initClock
                0x000000000002a568      0x22c obj/Debug/pigpio.o
 .text.initKillDMA
                0x000000000002a794       0x54 obj/Debug/pigpio.o
 .text.initDMAgo
                0x000000000002a7e8       0xb8 obj/Debug/pigpio.o
 .text.initClearGlobals
                0x000000000002a8a0      0x78c obj/Debug/pigpio.o
 .text.initReleaseResources
                0x000000000002b02c      0x854 obj/Debug/pigpio.o
 .text.initInitialise
                0x000000000002b880      0xa48 obj/Debug/pigpio.o
                0x000000000002b880                initInitialise
 .text.time_sleep
                0x000000000002c2c8       0xa8 obj/Debug/pigpio.o
                0x000000000002c2c8                time_sleep
 .text.gpioInitialise
                0x000000000002c370      0x110 obj/Debug/pigpio.o
                0x000000000002c370                gpioInitialise
 .text.gpioTerminate
                0x000000000002c480      0x32c obj/Debug/pigpio.o
                0x000000000002c480                gpioTerminate
 .text.switchFunctionOff
                0x000000000002c7ac      0x178 obj/Debug/pigpio.o
 .text.stopHardwarePWM
                0x000000000002c924      0x12c obj/Debug/pigpio.o
 .text.gpioSetMode
                0x000000000002ca50      0x2b0 obj/Debug/pigpio.o
                0x000000000002ca50                gpioSetMode
 .text.gpioGetMode
                0x000000000002cd00      0x1a4 obj/Debug/pigpio.o
                0x000000000002cd00                gpioGetMode
 .text.gpioSetPullUpDown
                0x000000000002cea4      0x338 obj/Debug/pigpio.o
                0x000000000002cea4                gpioSetPullUpDown
 .text.gpioRead
                0x000000000002d1dc      0x17c obj/Debug/pigpio.o
                0x000000000002d1dc                gpioRead
 .text.gpioWrite
                0x000000000002d358      0x308 obj/Debug/pigpio.o
                0x000000000002d358                gpioWrite
 .text.gpioPWM  0x000000000002d660      0x2ac obj/Debug/pigpio.o
                0x000000000002d660                gpioPWM
 .text.gpioGetPWMdutycycle
                0x000000000002d90c      0x230 obj/Debug/pigpio.o
                0x000000000002d90c                gpioGetPWMdutycycle
 .text.gpioSetPWMrange
                0x000000000002db3c      0x330 obj/Debug/pigpio.o
                0x000000000002db3c                gpioSetPWMrange
 .text.gpioGetPWMrange
                0x000000000002de6c      0x190 obj/Debug/pigpio.o
                0x000000000002de6c                gpioGetPWMrange
 .text.gpioGetPWMrealRange
                0x000000000002dffc      0x1e0 obj/Debug/pigpio.o
                0x000000000002dffc                gpioGetPWMrealRange
 .text.gpioSetPWMfrequency
                0x000000000002e1dc      0x31c obj/Debug/pigpio.o
                0x000000000002e1dc                gpioSetPWMfrequency
 .text.gpioGetPWMfrequency
                0x000000000002e4f8      0x208 obj/Debug/pigpio.o
                0x000000000002e4f8                gpioGetPWMfrequency
 .text.gpioServo
                0x000000000002e700      0x2f8 obj/Debug/pigpio.o
                0x000000000002e700                gpioServo
 .text.gpioGetServoPulsewidth
                0x000000000002e9f8      0x1d0 obj/Debug/pigpio.o
                0x000000000002e9f8                gpioGetServoPulsewidth
 .text.gpioWaveClear
                0x000000000002ebc8      0x180 obj/Debug/pigpio.o
                0x000000000002ebc8                gpioWaveClear
 .text.gpioWaveAddNew
                0x000000000002ed48      0x124 obj/Debug/pigpio.o
                0x000000000002ed48                gpioWaveAddNew
 .text.gpioWaveAddGeneric
                0x000000000002ee6c      0x2b8 obj/Debug/pigpio.o
                0x000000000002ee6c                gpioWaveAddGeneric
 .text.gpioWaveAddSerial
                0x000000000002f124      0x9b8 obj/Debug/pigpio.o
                0x000000000002f124                gpioWaveAddSerial
 .text.gpioWaveCreate
                0x000000000002fadc      0x654 obj/Debug/pigpio.o
                0x000000000002fadc                gpioWaveCreate
 .text.gpioWaveCreatePad
                0x0000000000030130      0x894 obj/Debug/pigpio.o
                0x0000000000030130                gpioWaveCreatePad
 .text.gpioWaveDelete
                0x00000000000309c4      0x260 obj/Debug/pigpio.o
                0x00000000000309c4                gpioWaveDelete
 .text.gpioWaveTxStart
                0x0000000000030c24       0xc8 obj/Debug/pigpio.o
                0x0000000000030c24                gpioWaveTxStart
 .text.gpioWaveTxSend
                0x0000000000030cec      0x3bc obj/Debug/pigpio.o
                0x0000000000030cec                gpioWaveTxSend
 .text.chainGetCB
                0x00000000000310a8       0xb4 obj/Debug/pigpio.o
 .text.chainSetVal
                0x000000000003115c       0xc4 obj/Debug/pigpio.o
 .text.chainGetValPadr
                0x0000000000031220       0xc0 obj/Debug/pigpio.o
 .text.chainGetCntVal
                0x00000000000312e0       0x9c obj/Debug/pigpio.o
 .text.chainSetCntVal
                0x000000000003137c       0xa4 obj/Debug/pigpio.o
 .text.chainGetCntValPadr
                0x0000000000031420       0x98 obj/Debug/pigpio.o
 .text.chainGetCntCB
                0x00000000000314b8       0x7c obj/Debug/pigpio.o
 .text.chainMakeCounter
                0x0000000000031534      0x4c8 obj/Debug/pigpio.o
 .text.gpioWaveChain
                0x00000000000319fc     0x10a0 obj/Debug/pigpio.o
                0x00000000000319fc                gpioWaveChain
 .text.gpioWaveTxBusy
                0x0000000000032a9c       0xe8 obj/Debug/pigpio.o
                0x0000000000032a9c                gpioWaveTxBusy
 .text.gpioWaveTxAt
                0x0000000000032b84      0x18c obj/Debug/pigpio.o
                0x0000000000032b84                gpioWaveTxAt
 .text.gpioWaveTxStop
                0x0000000000032d10       0xe8 obj/Debug/pigpio.o
                0x0000000000032d10                gpioWaveTxStop
 .text.gpioWaveGetMicros
                0x0000000000032df8       0xcc obj/Debug/pigpio.o
                0x0000000000032df8                gpioWaveGetMicros
 .text.gpioWaveGetHighMicros
                0x0000000000032ec4       0xcc obj/Debug/pigpio.o
                0x0000000000032ec4                gpioWaveGetHighMicros
 .text.gpioWaveGetMaxMicros
                0x0000000000032f90       0xcc obj/Debug/pigpio.o
                0x0000000000032f90                gpioWaveGetMaxMicros
 .text.gpioWaveGetPulses
                0x000000000003305c       0xcc obj/Debug/pigpio.o
                0x000000000003305c                gpioWaveGetPulses
 .text.gpioWaveGetHighPulses
                0x0000000000033128       0xcc obj/Debug/pigpio.o
                0x0000000000033128                gpioWaveGetHighPulses
 .text.gpioWaveGetMaxPulses
                0x00000000000331f4       0xcc obj/Debug/pigpio.o
                0x00000000000331f4                gpioWaveGetMaxPulses
 .text.gpioWaveGetCbs
                0x00000000000332c0       0xcc obj/Debug/pigpio.o
                0x00000000000332c0                gpioWaveGetCbs
 .text.gpioWaveGetHighCbs
                0x000000000003338c       0xcc obj/Debug/pigpio.o
                0x000000000003338c                gpioWaveGetHighCbs
 .text.gpioWaveGetMaxCbs
                0x0000000000033458       0xcc obj/Debug/pigpio.o
                0x0000000000033458                gpioWaveGetMaxCbs
 .text.read_SDA
                0x0000000000033524       0x44 obj/Debug/pigpio.o
 .text.set_SDA  0x0000000000033568       0x30 obj/Debug/pigpio.o
 .text.clear_SDA
                0x0000000000033598       0x44 obj/Debug/pigpio.o
 .text.clear_SCL
                0x00000000000335dc       0x44 obj/Debug/pigpio.o
 .text.I2C_delay
                0x0000000000033620       0x2c obj/Debug/pigpio.o
 .text.I2C_clock_stretch
                0x000000000003364c       0x80 obj/Debug/pigpio.o
 .text.I2CStart
                0x00000000000336cc       0x78 obj/Debug/pigpio.o
 .text.I2CStop  0x0000000000033744       0x58 obj/Debug/pigpio.o
 .text.I2CPutBit
                0x000000000003379c       0x60 obj/Debug/pigpio.o
 .text.I2CGetBit
                0x00000000000337fc       0x54 obj/Debug/pigpio.o
 .text.I2CPutByte
                0x0000000000033850       0x74 obj/Debug/pigpio.o
 .text.I2CGetByte
                0x00000000000338c4       0x7c obj/Debug/pigpio.o
 .text.bbI2COpen
                0x0000000000033940      0x508 obj/Debug/pigpio.o
                0x0000000000033940                bbI2COpen
 .text.bbI2CClose
                0x0000000000033e48      0x2e4 obj/Debug/pigpio.o
                0x0000000000033e48                bbI2CClose
 .text.bbI2CZip
                0x000000000003412c      0x74c obj/Debug/pigpio.o
                0x000000000003412c                bbI2CZip
 .text.bscInit  0x0000000000034878      0x15c obj/Debug/pigpio.o
                0x0000000000034878                bscInit
 .text.bscTerm  0x00000000000349d4      0x134 obj/Debug/pigpio.o
                0x00000000000349d4                bscTerm
 .text.bscXfer  0x0000000000034b08      0x3bc obj/Debug/pigpio.o
                0x0000000000034b08                bscXfer
 .text.set_CS   0x0000000000034ec4       0x40 obj/Debug/pigpio.o
 .text.clear_CS
                0x0000000000034f04       0x50 obj/Debug/pigpio.o
 .text.set_SCLK
                0x0000000000034f54       0x50 obj/Debug/pigpio.o
 .text.clear_SCLK
                0x0000000000034fa4       0x40 obj/Debug/pigpio.o
 .text.SPI_delay
                0x0000000000034fe4       0x2c obj/Debug/pigpio.o
 .text.bbSPIStart
                0x0000000000035010       0x3c obj/Debug/pigpio.o
 .text.bbSPIStop
                0x000000000003504c       0x3c obj/Debug/pigpio.o
 .text.bbSPIXferByte
                0x0000000000035088      0x2b0 obj/Debug/pigpio.o
 .text.bbSPIOpen
                0x0000000000035338      0x97c obj/Debug/pigpio.o
                0x0000000000035338                bbSPIOpen
 .text.bbSPIClose
                0x0000000000035cb4      0x498 obj/Debug/pigpio.o
                0x0000000000035cb4                bbSPIClose
 .text.bbSPIXfer
                0x000000000003614c      0x460 obj/Debug/pigpio.o
                0x000000000003614c                bbSPIXfer
 .text.gpioSerialReadOpen
                0x00000000000365ac      0x5cc obj/Debug/pigpio.o
                0x00000000000365ac                gpioSerialReadOpen
 .text.gpioSerialReadInvert
                0x0000000000036b78      0x248 obj/Debug/pigpio.o
                0x0000000000036b78                gpioSerialReadInvert
 .text.gpioSerialRead
                0x0000000000036dc0      0x374 obj/Debug/pigpio.o
                0x0000000000036dc0                gpioSerialRead
 .text.gpioSerialReadClose
                0x0000000000037134      0x228 obj/Debug/pigpio.o
                0x0000000000037134                gpioSerialReadClose
 .text.eventMonitor
                0x000000000003735c      0x1e4 obj/Debug/pigpio.o
                0x000000000003735c                eventMonitor
 .text.eventTrigger
                0x0000000000037540      0x160 obj/Debug/pigpio.o
                0x0000000000037540                eventTrigger
 .text.intGpioSetAlertFunc
                0x00000000000376a0      0x1c8 obj/Debug/pigpio.o
 .text.gpioSetAlertFunc
                0x0000000000037868      0x154 obj/Debug/pigpio.o
                0x0000000000037868                gpioSetAlertFunc
 .text.pthISRThread
                0x00000000000379bc      0x2c0 obj/Debug/pigpio.o
 .text.intGpioSetISRFunc
                0x0000000000037c7c      0x7cc obj/Debug/pigpio.o
 .text.gpioSetISRFunc
                0x0000000000038448      0x1d8 obj/Debug/pigpio.o
                0x0000000000038448                gpioSetISRFunc
 .text.closeOrphanedNotifications
                0x0000000000038620      0x148 obj/Debug/pigpio.o
 .text.notifyMutex
                0x0000000000038768       0x40 obj/Debug/pigpio.o
 .text.gpioNotifyOpenWithSize
                0x00000000000387a8      0x46c obj/Debug/pigpio.o
                0x00000000000387a8                gpioNotifyOpenWithSize
 .text.gpioNotifyOpen
                0x0000000000038c14       0x1c obj/Debug/pigpio.o
                0x0000000000038c14                gpioNotifyOpen
 .text.gpioNotifyOpenInBand
                0x0000000000038c30      0x2f4 obj/Debug/pigpio.o
 .text.intScriptBits
                0x0000000000038f24       0xfc obj/Debug/pigpio.o
 .text.intScriptEventBits
                0x0000000000039020       0xb8 obj/Debug/pigpio.o
 .text.intNotifyBits
                0x00000000000390d8       0xfc obj/Debug/pigpio.o
 .text.gpioNotifyBegin
                0x00000000000391d4      0x210 obj/Debug/pigpio.o
                0x00000000000391d4                gpioNotifyBegin
 .text.gpioNotifyPause
                0x00000000000393e4      0x204 obj/Debug/pigpio.o
                0x00000000000393e4                gpioNotifyPause
 .text.gpioNotifyClose
                0x00000000000395e8      0x330 obj/Debug/pigpio.o
                0x00000000000395e8                gpioNotifyClose
 .text.gpioTrigger
                0x0000000000039918      0x31c obj/Debug/pigpio.o
                0x0000000000039918                gpioTrigger
 .text.gpioSetWatchdog
                0x0000000000039c34      0x288 obj/Debug/pigpio.o
                0x0000000000039c34                gpioSetWatchdog
 .text.gpioNoiseFilter
                0x0000000000039ebc      0x36c obj/Debug/pigpio.o
                0x0000000000039ebc                gpioNoiseFilter
 .text.gpioGlitchFilter
                0x000000000003a228      0x264 obj/Debug/pigpio.o
                0x000000000003a228                gpioGlitchFilter
 .text.gpioStartThread
                0x000000000003a48c      0x248 obj/Debug/pigpio.o
                0x000000000003a48c                gpioStartThread
 .text.gpioStopThread
                0x000000000003a6d4      0x12c obj/Debug/pigpio.o
                0x000000000003a6d4                gpioStopThread
 .text.gpioStoreScript
                0x000000000003a800      0x308 obj/Debug/pigpio.o
                0x000000000003a800                gpioStoreScript
 .text.gpioRunScript
                0x000000000003ab08      0x310 obj/Debug/pigpio.o
                0x000000000003ab08                gpioRunScript
 .text.gpioUpdateScript
                0x000000000003ae18      0x234 obj/Debug/pigpio.o
                0x000000000003ae18                gpioUpdateScript
 .text.gpioScriptStatus
                0x000000000003b04c      0x1d8 obj/Debug/pigpio.o
                0x000000000003b04c                gpioScriptStatus
 .text.gpioStopScript
                0x000000000003b224      0x238 obj/Debug/pigpio.o
                0x000000000003b224                gpioStopScript
 .text.gpioDeleteScript
                0x000000000003b45c      0x374 obj/Debug/pigpio.o
                0x000000000003b45c                gpioDeleteScript
 .text.gpioRead_Bits_0_31
                0x000000000003b7d0       0xd4 obj/Debug/pigpio.o
                0x000000000003b7d0                gpioRead_Bits_0_31
 .text.gpioRead_Bits_32_53
                0x000000000003b8a4       0xd4 obj/Debug/pigpio.o
                0x000000000003b8a4                gpioRead_Bits_32_53
 .text.gpioWrite_Bits_0_31_Clear
                0x000000000003b978       0xf0 obj/Debug/pigpio.o
                0x000000000003b978                gpioWrite_Bits_0_31_Clear
 .text.gpioWrite_Bits_32_53_Clear
                0x000000000003ba68       0xf0 obj/Debug/pigpio.o
                0x000000000003ba68                gpioWrite_Bits_32_53_Clear
 .text.gpioWrite_Bits_0_31_Set
                0x000000000003bb58       0xf0 obj/Debug/pigpio.o
                0x000000000003bb58                gpioWrite_Bits_0_31_Set
 .text.gpioWrite_Bits_32_53_Set
                0x000000000003bc48       0xf0 obj/Debug/pigpio.o
                0x000000000003bc48                gpioWrite_Bits_32_53_Set
 .text.gpioHardwareClock
                0x000000000003bd38      0x668 obj/Debug/pigpio.o
                0x000000000003bd38                gpioHardwareClock
 .text.gpioHardwarePWM
                0x000000000003c3a0      0x6a4 obj/Debug/pigpio.o
                0x000000000003c3a0                gpioHardwarePWM
 .text.gpioSetPad
                0x000000000003ca44      0x1fc obj/Debug/pigpio.o
                0x000000000003ca44                gpioSetPad
 .text.gpioGetPad
                0x000000000003cc40      0x174 obj/Debug/pigpio.o
                0x000000000003cc40                gpioGetPad
 .text.shell    0x000000000003cdb4      0x23c obj/Debug/pigpio.o
                0x000000000003cdb4                shell
 .text.fileApprove
                0x000000000003cff0      0x258 obj/Debug/pigpio.o
                0x000000000003cff0                fileApprove
 .text.fileOpen
                0x000000000003d248      0x540 obj/Debug/pigpio.o
                0x000000000003d248                fileOpen
 .text.fileClose
                0x000000000003d788      0x214 obj/Debug/pigpio.o
                0x000000000003d788                fileClose
 .text.fileWrite
                0x000000000003d99c      0x338 obj/Debug/pigpio.o
                0x000000000003d99c                fileWrite
 .text.fileRead
                0x000000000003dcd4      0x32c obj/Debug/pigpio.o
                0x000000000003dcd4                fileRead
 .text.fileSeek
                0x000000000003e000      0x2fc obj/Debug/pigpio.o
                0x000000000003e000                fileSeek
 .text.fileList
                0x000000000003e2fc      0x25c obj/Debug/pigpio.o
                0x000000000003e2fc                fileList
 .text.gpioTick
                0x000000000003e558       0x8c obj/Debug/pigpio.o
                0x000000000003e558                gpioTick
 .text.gpioVersion
                0x000000000003e5e4       0x68 obj/Debug/pigpio.o
                0x000000000003e5e4                gpioVersion
 .text.gpioHardwareRevision
                0x000000000003e64c      0x648 obj/Debug/pigpio.o
                0x000000000003e64c                gpioHardwareRevision
 .text.gpioCfgClock
                0x000000000003ec94      0x230 obj/Debug/pigpio.o
                0x000000000003ec94                gpioCfgClock
 .text.gpioCfgGetInternals
                0x000000000003eec4       0x24 obj/Debug/pigpio.o
                0x000000000003eec4                gpioCfgGetInternals
 .text.gpioCfgSetInternals
                0x000000000003eee8       0x58 obj/Debug/pigpio.o
                0x000000000003eee8                gpioCfgSetInternals
 .text.gpioCustom1
                0x000000000003ef40      0x18c obj/Debug/pigpio.o
                0x000000000003ef40                gpioCustom1
 .text.gpioCustom2
                0x000000000003f0cc      0x1b0 obj/Debug/pigpio.o
                0x000000000003f0cc                gpioCustom2
 .text.cmdMatch
                0x000000000003f27c       0x8c obj/Debug/command.o
 .text.getNum   0x000000000003f308      0x14c obj/Debug/command.o
 .text.cmdStr   0x000000000003f454       0x20 obj/Debug/command.o
                0x000000000003f454                cmdStr
 .text.cmdParse
                0x000000000003f474     0x1f78 obj/Debug/command.o
                0x000000000003f474                cmdParse
 .text.cmdParseScript
                0x00000000000413ec      0x7ec obj/Debug/command.o
                0x00000000000413ec                cmdParseScript
 .text.appMillis
                0x0000000000041bd8       0x88 obj/Debug/commonUnit.o
                0x0000000000041bd8                appMillis
 .text.setExecuteModule
                0x0000000000041c60       0x94 obj/Debug/Executive/modulSPI.o
                0x0000000000041c60                setExecuteModule
 .text.executeModulControl
                0x0000000000041cf4       0x14 obj/Debug/Executive/modulSPI.o
                0x0000000000041cf4                executeModulControl
 .text.LimitPWM
                0x0000000000041d08       0x5c obj/Debug/Executive/modulSPI.o
                0x0000000000041d08                LimitPWM
 .text.PWM_init
                0x0000000000041d64      0x15c obj/Debug/Executive/nativePWM.o
                0x0000000000041d64                PWM_init
 .text.PWM_set  0x0000000000041ec0       0x9c obj/Debug/Executive/nativePWM.o
                0x0000000000041ec0                PWM_set
 .text.PigpioInit
                0x0000000000041f5c       0x84 obj/Debug/Executive/additionalMeasurements.o
                0x0000000000041f5c                PigpioInit
 .text.ImpulsCounter
                0x0000000000041fe0       0x8c obj/Debug/Executive/additionalMeasurements.o
                0x0000000000041fe0                ImpulsCounter
 .text.FrequencyMeasurement
                0x000000000004206c      0x140 obj/Debug/Executive/additionalMeasurements.o
                0x000000000004206c                FrequencyMeasurement
 .text.ControlDiodeCheck
                0x00000000000421ac       0x5c obj/Debug/Executive/additionalMeasurements.o
                0x00000000000421ac                ControlDiodeCheck
 .text.CoolerCheck
                0x0000000000042208       0x5c obj/Debug/Executive/additionalMeasurements.o
                0x0000000000042208                CoolerCheck
 .text.HeaterCheck
                0x0000000000042264       0x5c obj/Debug/Executive/additionalMeasurements.o
                0x0000000000042264                HeaterCheck
 .text.ControlVoltagesCheck
                0x00000000000422c0       0x18 obj/Debug/Executive/additionalMeasurements.o
                0x00000000000422c0                ControlVoltagesCheck
 .text.get_key  0x00000000000422d8      0x138 obj/Debug/Keyboard_Indicator/Keypad.o
                0x00000000000422d8                get_key
 .text.wait_key
                0x0000000000042410      0x184 obj/Debug/Keyboard_Indicator/Keypad.o
                0x0000000000042410                wait_key
 .text.init_keypad
                0x0000000000042594       0xbc obj/Debug/Keyboard_Indicator/Keypad.o
                0x0000000000042594                init_keypad
 .text.KeyboardProcess
                0x0000000000042650       0x8c obj/Debug/Keyboard_Indicator/Keypad.o
                0x0000000000042650                KeyboardProcess
 .text.GetCommand
                0x00000000000426dc      0x65c obj/Debug/Keyboard_Indicator/Keypad.o
                0x00000000000426dc                GetCommand
 .text.ProcessCommand
                0x0000000000042d38      0x2b4 obj/Debug/Keyboard_Indicator/Keypad.o
                0x0000000000042d38                ProcessCommand
 *fill*         0x0000000000042fec        0x4 
 .text.PerceiveInputValue
                0x0000000000042ff0      0x28c obj/Debug/Keyboard_Indicator/Keypad.o
                0x0000000000042ff0                PerceiveInputValue
 .text.PossibleInput
                0x000000000004327c       0x68 obj/Debug/Keyboard_Indicator/Keypad.o
                0x000000000004327c                PossibleInput
 .text.PerceiveInputCommand
                0x00000000000432e4       0xc0 obj/Debug/Keyboard_Indicator/Keypad.o
                0x00000000000432e4                PerceiveInputCommand
 .text.LCDI2C_write
                0x00000000000433a4       0x30 obj/Debug/i2c_lcd/i2c_lcd.o
                0x00000000000433a4                LCDI2C_write
 .text.LCDI2C_init
                0x00000000000433d4       0x9c obj/Debug/i2c_lcd/i2c_lcd.o
                0x00000000000433d4                LCDI2C_init
 .text.LCDI2C_begin
                0x0000000000043470      0x114 obj/Debug/i2c_lcd/i2c_lcd.o
                0x0000000000043470                LCDI2C_begin
 .text.LCDI2C_clear
                0x0000000000043584       0x20 obj/Debug/i2c_lcd/i2c_lcd.o
                0x0000000000043584                LCDI2C_clear
 .text.LCDI2C_home
                0x00000000000435a4       0x20 obj/Debug/i2c_lcd/i2c_lcd.o
                0x00000000000435a4                LCDI2C_home
 .text.LCDI2C_setCursor
                0x00000000000435c4       0xa8 obj/Debug/i2c_lcd/i2c_lcd.o
                0x00000000000435c4                LCDI2C_setCursor
 .text.LCDI2C_display
                0x000000000004366c       0x44 obj/Debug/i2c_lcd/i2c_lcd.o
                0x000000000004366c                LCDI2C_display
 .text.LCDI2C_noBlink
                0x00000000000436b0       0x44 obj/Debug/i2c_lcd/i2c_lcd.o
                0x00000000000436b0                LCDI2C_noBlink
 .text.LCDI2C_blink
                0x00000000000436f4       0x44 obj/Debug/i2c_lcd/i2c_lcd.o
                0x00000000000436f4                LCDI2C_blink
 .text.LCDI2C_backlight
                0x0000000000043738       0x28 obj/Debug/i2c_lcd/i2c_lcd.o
                0x0000000000043738                LCDI2C_backlight
 .text.LCDI2C_command
                0x0000000000043760       0x30 obj/Debug/i2c_lcd/i2c_lcd.o
                0x0000000000043760                LCDI2C_command
 .text.LCDI2C_send
                0x0000000000043790       0x74 obj/Debug/i2c_lcd/i2c_lcd.o
                0x0000000000043790                LCDI2C_send
 .text.LCDI2C_write4bits
                0x0000000000043804       0x38 obj/Debug/i2c_lcd/i2c_lcd.o
                0x0000000000043804                LCDI2C_write4bits
 .text.LCDI2C_expanderWrite
                0x000000000004383c       0x60 obj/Debug/i2c_lcd/i2c_lcd.o
                0x000000000004383c                LCDI2C_expanderWrite
 .text.LCDI2C_pulseEnable
                0x000000000004389c       0x60 obj/Debug/i2c_lcd/i2c_lcd.o
                0x000000000004389c                LCDI2C_pulseEnable
 .text.LCDI2C_blink_on
                0x00000000000438fc       0x14 obj/Debug/i2c_lcd/i2c_lcd.o
                0x00000000000438fc                LCDI2C_blink_on
 .text.LCDI2C_blink_off
                0x0000000000043910       0x14 obj/Debug/i2c_lcd/i2c_lcd.o
                0x0000000000043910                LCDI2C_blink_off
 .text.LCDI2C_write_String
                0x0000000000043924       0x68 obj/Debug/i2c_lcd/i2c_lcd.o
                0x0000000000043924                LCDI2C_write_String
 .text.HelloShow
                0x000000000004398c       0x40 obj/Debug/i2c_lcd/lcd.o
                0x000000000004398c                HelloShow
 .text.GoodbyeShow
                0x00000000000439cc       0x28 obj/Debug/i2c_lcd/lcd.o
                0x00000000000439cc                GoodbyeShow
 .text.lcd_Init
                0x00000000000439f4       0xfc obj/Debug/i2c_lcd/lcd.o
                0x00000000000439f4                lcd_Init
 .text.SetCursorInZone
                0x0000000000043af0       0xd8 obj/Debug/i2c_lcd/lcd.o
 .text.clearZone
                0x0000000000043bc8       0xd4 obj/Debug/i2c_lcd/lcd.o
                0x0000000000043bc8                clearZone
 .text.lcd_update
                0x0000000000043c9c      0x1c4 obj/Debug/i2c_lcd/lcd.o
                0x0000000000043c9c                lcd_update
 .text.ShowScanOrSetMode
                0x0000000000043e60       0xd8 obj/Debug/i2c_lcd/lcd.o
                0x0000000000043e60                ShowScanOrSetMode
 .text.ShowErrorExecutivePlate
                0x0000000000043f38      0x284 obj/Debug/i2c_lcd/lcd.o
                0x0000000000043f38                ShowErrorExecutivePlate
 .text.ShowVariable
                0x00000000000441bc      0x17c obj/Debug/i2c_lcd/lcd.o
                0x00000000000441bc                ShowVariable
 .text.GetStringOfVariable
                0x0000000000044338      0x5d8 obj/Debug/i2c_lcd/lcd.o
                0x0000000000044338                GetStringOfVariable
 .text.GetStringOfEnterMode
                0x0000000000044910      0x3a8 obj/Debug/i2c_lcd/lcd.o
                0x0000000000044910                GetStringOfEnterMode
 .text.ShowSensor
                0x0000000000044cb8       0x28 obj/Debug/i2c_lcd/lcd.o
                0x0000000000044cb8                ShowSensor
 .text.K45_Exit
                0x0000000000044ce0       0xa0 obj/Debug/i2c_lcd/lcd.o
                0x0000000000044ce0                K45_Exit
 .text.ADC_Init
                0x0000000000044d80       0x3c obj/Debug/ADC/ADC_Unit.o
                0x0000000000044d80                ADC_Init
 .text.GetADCData
                0x0000000000044dbc       0x38 obj/Debug/ADC/ADC_Unit.o
                0x0000000000044dbc                GetADCData
 .text.updateCurrentVoltages
                0x0000000000044df4      0x154 obj/Debug/ADC/ADC_Unit.o
                0x0000000000044df4                updateCurrentVoltages
 .text.getSensorData
                0x0000000000044f48       0x40 obj/Debug/ADC/ADC_Unit.o
                0x0000000000044f48                getSensorData
 .text.convertCodeADC
                0x0000000000044f88       0x98 obj/Debug/ADC/ADC_Unit.o
                0x0000000000044f88                convertCodeADC
 .text.getMicroVoltsADC
                0x0000000000045020       0xa0 obj/Debug/ADC/ADC_Unit.o
                0x0000000000045020                getMicroVoltsADC
 .text.ADC_service
                0x00000000000450c0       0x28 obj/Debug/ADC/ADC_Unit.o
                0x00000000000450c0                ADC_service
 .text.ADC_Calibration
                0x00000000000450e8       0x38 obj/Debug/ADC/ADC_Unit.o
                0x00000000000450e8                ADC_Calibration
 .text.ADS1256_reset
                0x0000000000045120       0x44 obj/Debug/ADC/ADS1256.o
 .text.ADS1256_WriteCmd
                0x0000000000045164       0x44 obj/Debug/ADC/ADS1256.o
 .text.ADS1256_WriteReg
                0x00000000000451a8       0x6c obj/Debug/ADC/ADS1256.o
 .text.ADS1256_Read_data
                0x0000000000045214       0x78 obj/Debug/ADC/ADS1256.o
 .text.ADS1256_WaitDRDY
                0x000000000004528c       0x90 obj/Debug/ADC/ADS1256.o
 .text.ADS1256_ReadChipID
                0x000000000004531c       0x38 obj/Debug/ADC/ADS1256.o
                0x000000000004531c                ADS1256_ReadChipID
 .text.ADS1256_ConfigADC
                0x0000000000045354       0xc0 obj/Debug/ADC/ADS1256.o
                0x0000000000045354                ADS1256_ConfigADC
 .text.ADS1256_SetChannal
                0x0000000000045414       0x54 obj/Debug/ADC/ADS1256.o
 .text.ADS1256_SetDiffChannal
                0x0000000000045468       0x8c obj/Debug/ADC/ADS1256.o
                0x0000000000045468                ADS1256_SetDiffChannal
 .text.ADS1256_SetMode
                0x00000000000454f4       0x50 obj/Debug/ADC/ADS1256.o
                0x00000000000454f4                ADS1256_SetMode
 .text.ADS1256_init
                0x0000000000045544       0x64 obj/Debug/ADC/ADS1256.o
                0x0000000000045544                ADS1256_init
 .text.ADS1256_Read_ADC_Data
                0x00000000000455a8       0xfc obj/Debug/ADC/ADS1256.o
 .text.ADS1256_GetChannalValue
                0x00000000000456a4      0x104 obj/Debug/ADC/ADS1256.o
                0x00000000000456a4                ADS1256_GetChannalValue
 .text.ADS1256_Cal
                0x00000000000457a8       0x24 obj/Debug/ADC/ADS1256.o
                0x00000000000457a8                ADS1256_Cal
 .text.TableLineInterpolation
                0x00000000000457cc      0x3c4 obj/Debug/ThermoControlLibrary/Interpolations.o
                0x00000000000457cc                TableLineInterpolation
 .text.iniTemperaturController
                0x0000000000045b90       0x30 obj/Debug/ThermoControlLibrary/Interpolations.o
                0x0000000000045b90                iniTemperaturController
 .text.getTemperatureValue
                0x0000000000045bc0       0x48 obj/Debug/ThermoControlLibrary/Interpolations.o
                0x0000000000045bc0                getTemperatureValue
 .text.getTemperatures
                0x0000000000045c08      0x1a0 obj/Debug/ThermoControlLibrary/PIDCalculs.o
                0x0000000000045c08                getTemperatures
 .text.CalculRegulator
                0x0000000000045da8      0x210 obj/Debug/ThermoControlLibrary/PIDCalculs.o
                0x0000000000045da8                CalculRegulator
 .text.Kprop    0x0000000000045fb8       0x54 obj/Debug/ThermoControlLibrary/PIDCalculs.o
                0x0000000000045fb8                Kprop
 .text.Kdif     0x000000000004600c       0x50 obj/Debug/ThermoControlLibrary/PIDCalculs.o
                0x000000000004600c                Kdif
 .text.getRegulatorOuputs
                0x000000000004605c      0x198 obj/Debug/ThermoControlLibrary/PIDCalculs.o
                0x000000000004605c                getRegulatorOuputs
 .text.GetHeaterSetpoint
                0x00000000000461f4       0x24 obj/Debug/ThermoControlLibrary/PIDCalculs.o
                0x00000000000461f4                GetHeaterSetpoint
 .text.GetCoolerSetpoint
                0x0000000000046218       0x24 obj/Debug/ThermoControlLibrary/PIDCalculs.o
                0x0000000000046218                GetCoolerSetpoint
 .text.AutoSettingTemperature
                0x000000000004623c      0x178 obj/Debug/ThermoControlLibrary/PIDCalculs.o
                0x000000000004623c                AutoSettingTemperature
 .text.uart_init
                0x00000000000463b4      0x120 obj/Debug/UART/uart.o
                0x00000000000463b4                uart_init
 .text.uart_send
                0x00000000000464d4      0x418 obj/Debug/UART/uart.o
                0x00000000000464d4                uart_send
 .text.uart_read
                0x00000000000468ec      0x128 obj/Debug/UART/uart.o
                0x00000000000468ec                uart_read
 .text.uart_data_receive
                0x0000000000046a14      0x318 obj/Debug/UART/uart.o
                0x0000000000046a14                uart_data_receive
 .text.GetNextChar
                0x0000000000046d2c       0x74 obj/Debug/UART/uart.o
                0x0000000000046d2c                GetNextChar
 .text.DataProcess
                0x0000000000046da0      0x3f8 obj/Debug/UART/uart.o
                0x0000000000046da0                DataProcess
 .text.getSensCharacteristic
                0x0000000000047198      0x2dc obj/Debug/diskIO.o
                0x0000000000047198                getSensCharacteristic
 .text.getPIDcoefs
                0x0000000000047474      0x278 obj/Debug/diskIO.o
                0x0000000000047474                getPIDcoefs
 .text.getDirectory
                0x00000000000476ec       0x60 obj/Debug/diskIO.o
                0x00000000000476ec                getDirectory
 .text.saveSettings
                0x000000000004774c      0x16c obj/Debug/diskIO.o
                0x000000000004774c                saveSettings
 .text          0x00000000000478b8      0x20c C:/SysGCC/raspberry/arm-linux-gnueabihf/lib\libgcc.a(_udivsi3.o)
                0x00000000000478b8                __udivsi3
                0x00000000000478b8                __aeabi_uidiv
                0x0000000000047aa4                __aeabi_uidivmod
 .text          0x0000000000047ac4      0x240 C:/SysGCC/raspberry/arm-linux-gnueabihf/lib\libgcc.a(_divsi3.o)
                0x0000000000047ac4                __divsi3
                0x0000000000047ac4                __aeabi_idiv
                0x0000000000047ce4                __aeabi_idivmod
 .text          0x0000000000047d04       0xd4 C:/SysGCC/raspberry/arm-linux-gnueabihf/lib\libgcc.a(_aeabi_ldivmod.o)
                0x0000000000047d04                __aeabi_ldivmod
 .text          0x0000000000047dd8       0x3c C:/SysGCC/raspberry/arm-linux-gnueabihf/lib\libgcc.a(_aeabi_uldivmod.o)
                0x0000000000047dd8                __aeabi_uldivmod
 .text          0x0000000000047e14       0x10 C:/SysGCC/raspberry/arm-linux-gnueabihf/lib\libgcc.a(_dvmd_lnx.o)
                0x0000000000047e14                __aeabi_idiv0
                0x0000000000047e14                __aeabi_ldiv0
 .text          0x0000000000047e24       0x44 C:/SysGCC/raspberry/arm-linux-gnueabihf/lib\libgcc.a(_popcountsi2.o)
                0x0000000000047e24                __popcountsi2
 .text          0x0000000000047e68      0x120 C:/SysGCC/raspberry/arm-linux-gnueabihf/lib\libgcc.a(_udivmoddi4.o)
                0x0000000000047e68                __udivmoddi4
 .text          0x0000000000047f88       0x64 c:\sysgcc\raspberry\bin\../arm-linux-gnueabihf/sysroot/usr/lib/arm-linux-gnueabihf/libc_nonshared.a(elf-init.oS)
                0x0000000000047f88                __libc_csu_init
                0x0000000000047fe8                __libc_csu_fini
 .text          0x0000000000047fec       0x18 c:\sysgcc\raspberry\bin\../arm-linux-gnueabihf/sysroot/usr/lib/arm-linux-gnueabihf/libc_nonshared.a(atexit.oS)
                0x0000000000047fec                atexit
 .text          0x0000000000048004       0x10 c:\sysgcc\raspberry\bin\../arm-linux-gnueabihf/sysroot/usr/lib/arm-linux-gnueabihf/libc_nonshared.a(stat.oS)
                0x0000000000048004                stat
                0x0000000000048004                __stat
 .text          0x0000000000048014       0x2c c:\sysgcc\raspberry\bin\../arm-linux-gnueabihf/sysroot/usr/lib/arm-linux-gnueabihf/libc_nonshared.a(mknod.oS)
                0x0000000000048014                __mknod
                0x0000000000048014                mknod
 *(.gnu.warning)
 *(.glue_7t)
 .glue_7t       0x0000000000048040        0x0 linker stubs
 *(.glue_7)
 .glue_7        0x0000000000048040        0x0 linker stubs
 *(.vfp11_veneer)
 .vfp11_veneer  0x0000000000048040        0x0 linker stubs
 *(.v4_bx)
 .v4_bx         0x0000000000048040        0x0 linker stubs

.fini           0x0000000000048040        0x8
 *(SORT_NONE(.fini))
 .fini          0x0000000000048040        0x4 c:/sysgcc/raspberry/bin/../arm-linux-gnueabihf/sysroot/lib/arm-linux-gnueabihf/crti.o
                0x0000000000048040                _fini
 .fini          0x0000000000048044        0x4 c:/sysgcc/raspberry/bin/../arm-linux-gnueabihf/sysroot/lib/arm-linux-gnueabihf/crtn.o
                [!provide]                        PROVIDE (__etext = .)
                [!provide]                        PROVIDE (_etext = .)
                [!provide]                        PROVIDE (etext = .)

.rodata         0x0000000000048048     0x724e
 *(.rodata .rodata.* .gnu.linkonce.r.*)
 .rodata        0x0000000000048048      0x244 obj/Debug/main.o
 .rodata        0x000000000004828c       0x35 obj/Debug/DEV_Config.o
 *fill*         0x00000000000482c1        0x3 
 .rodata        0x00000000000482c4      0x18f obj/Debug/bcm2835.o
 *fill*         0x0000000000048453        0x1 
 .rodata        0x0000000000048454     0x3600 obj/Debug/pigpio.o
 .rodata.clkDef
                0x000000000004ba54       0x36 obj/Debug/pigpio.o
 *fill*         0x000000000004ba8a        0x2 
 .rodata.PWMDef
                0x000000000004ba8c       0x36 obj/Debug/pigpio.o
 *fill*         0x000000000004bac2        0x2 
 .rodata.clkCfg
                0x000000000004bac4       0x2c obj/Debug/pigpio.o
 .rodata.pwmCycles
                0x000000000004baf0       0x24 obj/Debug/pigpio.o
 .rodata.pwmRealRange
                0x000000000004bb14       0x24 obj/Debug/pigpio.o
 .rodata.__FUNCTION__.196
                0x000000000004bb38       0x10 obj/Debug/pigpio.o
 .rodata.__FUNCTION__.195
                0x000000000004bb48        0xd obj/Debug/pigpio.o
 *fill*         0x000000000004bb55        0x3 
 .rodata.__FUNCTION__.194
                0x000000000004bb58        0xc obj/Debug/pigpio.o
 .rodata.__FUNCTION__.192
                0x000000000004bb64        0xc obj/Debug/pigpio.o
 .rodata.__FUNCTION__.191
                0x000000000004bb70        0xd obj/Debug/pigpio.o
 *fill*         0x000000000004bb7d        0x3 
 .rodata.__FUNCTION__.190
                0x000000000004bb80        0xf obj/Debug/pigpio.o
 *fill*         0x000000000004bb8f        0x1 
 .rodata.__FUNCTION__.189
                0x000000000004bb90        0xe obj/Debug/pigpio.o
 *fill*         0x000000000004bb9e        0x2 
 .rodata.__FUNCTION__.188
                0x000000000004bba0        0xc obj/Debug/pigpio.o
 .rodata.__FUNCTION__.187
                0x000000000004bbac        0xd obj/Debug/pigpio.o
 *fill*         0x000000000004bbb9        0x3 
 .rodata.__FUNCTION__.186
                0x000000000004bbbc       0x10 obj/Debug/pigpio.o
 .rodata.__FUNCTION__.185
                0x000000000004bbcc       0x11 obj/Debug/pigpio.o
 *fill*         0x000000000004bbdd        0x3 
 .rodata.__FUNCTION__.184
                0x000000000004bbe0       0x10 obj/Debug/pigpio.o
 .rodata.__FUNCTION__.183
                0x000000000004bbf0       0x11 obj/Debug/pigpio.o
 *fill*         0x000000000004bc01        0x3 
 .rodata.__FUNCTION__.182
                0x000000000004bc04        0xf obj/Debug/pigpio.o
 *fill*         0x000000000004bc13        0x1 
 .rodata.__FUNCTION__.181
                0x000000000004bc14       0x11 obj/Debug/pigpio.o
 *fill*         0x000000000004bc25        0x3 
 .rodata.__FUNCTION__.180
                0x000000000004bc28       0x12 obj/Debug/pigpio.o
 *fill*         0x000000000004bc3a        0x2 
 .rodata.__FUNCTION__.179
                0x000000000004bc3c       0x14 obj/Debug/pigpio.o
 .rodata.__FUNCTION__.178
                0x000000000004bc50       0x14 obj/Debug/pigpio.o
 .rodata.__FUNCTION__.177
                0x000000000004bc64       0x15 obj/Debug/pigpio.o
 *fill*         0x000000000004bc79        0x3 
 .rodata.__FUNCTION__.176
                0x000000000004bc7c        0xf obj/Debug/pigpio.o
 *fill*         0x000000000004bc8b        0x1 
 .rodata.__FUNCTION__.175
                0x000000000004bc8c        0xe obj/Debug/pigpio.o
 *fill*         0x000000000004bc9a        0x2 
 .rodata.__FUNCTION__.174
                0x000000000004bc9c        0x8 obj/Debug/pigpio.o
 .rodata.__FUNCTION__.172
                0x000000000004bca4        0x9 obj/Debug/pigpio.o
 *fill*         0x000000000004bcad        0x3 
 .rodata.__FUNCTION__.171
                0x000000000004bcb0       0x12 obj/Debug/pigpio.o
 *fill*         0x000000000004bcc2        0x2 
 .rodata.__FUNCTION__.170
                0x000000000004bcc4        0xc obj/Debug/pigpio.o
 .rodata.__FUNCTION__.169
                0x000000000004bcd0        0x7 obj/Debug/pigpio.o
 *fill*         0x000000000004bcd7        0x1 
 .rodata.__FUNCTION__.166
                0x000000000004bcd8        0x8 obj/Debug/pigpio.o
 .rodata.__FUNCTION__.164
                0x000000000004bce0        0x9 obj/Debug/pigpio.o
 *fill*         0x000000000004bce9        0x3 
 .rodata.__FUNCTION__.163
                0x000000000004bcec        0x8 obj/Debug/pigpio.o
 .rodata.__FUNCTION__.162
                0x000000000004bcf4        0x9 obj/Debug/pigpio.o
 *fill*         0x000000000004bcfd        0x3 
 .rodata.__FUNCTION__.161
                0x000000000004bd00        0x8 obj/Debug/pigpio.o
 .rodata.__FUNCTION__.160
                0x000000000004bd08        0x8 obj/Debug/pigpio.o
 .rodata.__FUNCTION__.158
                0x000000000004bd10        0x9 obj/Debug/pigpio.o
 *fill*         0x000000000004bd19        0x3 
 .rodata.__FUNCTION__.157
                0x000000000004bd1c        0xd obj/Debug/pigpio.o
 *fill*         0x000000000004bd29        0x3 
 .rodata.__FUNCTION__.156
                0x000000000004bd2c        0xc obj/Debug/pigpio.o
 .rodata.__FUNCTION__.155
                0x000000000004bd38        0x9 obj/Debug/pigpio.o
 *fill*         0x000000000004bd41        0x3 
 .rodata.__FUNCTION__.154
                0x000000000004bd44        0x8 obj/Debug/pigpio.o
 .rodata.__FUNCTION__.153
                0x000000000004bd4c       0x11 obj/Debug/pigpio.o
 *fill*         0x000000000004bd5d        0x3 
 .rodata.__FUNCTION__.150
                0x000000000004bd60        0xb obj/Debug/pigpio.o
 *fill*         0x000000000004bd6b        0x1 
 .rodata.__FUNCTION__.149
                0x000000000004bd6c        0xb obj/Debug/pigpio.o
 *fill*         0x000000000004bd77        0x1 
 .rodata.__FUNCTION__.148
                0x000000000004bd78        0xa obj/Debug/pigpio.o
 *fill*         0x000000000004bd82        0x2 
 .rodata.__FUNCTION__.147
                0x000000000004bd84        0xf obj/Debug/pigpio.o
 *fill*         0x000000000004bd93        0x1 
 .rodata.__FUNCTION__.146
                0x000000000004bd94        0x7 obj/Debug/pigpio.o
 *fill*         0x000000000004bd9b        0x1 
 .rodata.__FUNCTION__.145
                0x000000000004bd9c        0x8 obj/Debug/pigpio.o
 .rodata.__FUNCTION__.144
                0x000000000004bda4        0x7 obj/Debug/pigpio.o
 *fill*         0x000000000004bdab        0x1 
 .rodata.__FUNCTION__.143
                0x000000000004bdac        0xe obj/Debug/pigpio.o
 *fill*         0x000000000004bdba        0x2 
 .rodata.__FUNCTION__.142
                0x000000000004bdbc       0x17 obj/Debug/pigpio.o
 *fill*         0x000000000004bdd3        0x1 
 .rodata.__FUNCTION__.141
                0x000000000004bdd4       0x10 obj/Debug/pigpio.o
 .rodata.__FUNCTION__.140
                0x000000000004bde4       0x12 obj/Debug/pigpio.o
 *fill*         0x000000000004bdf6        0x2 
 .rodata.__FUNCTION__.139
                0x000000000004bdf8       0x13 obj/Debug/pigpio.o
 *fill*         0x000000000004be0b        0x1 
 .rodata.__FUNCTION__.138
                0x000000000004be0c       0x10 obj/Debug/pigpio.o
 .rodata.__FUNCTION__.137
                0x000000000004be1c        0x9 obj/Debug/pigpio.o
 *fill*         0x000000000004be25        0x3 
 .rodata.__FUNCTION__.136
                0x000000000004be28       0x11 obj/Debug/pigpio.o
 *fill*         0x000000000004be39        0x3 
 .rodata.__FUNCTION__.135
                0x000000000004be3c        0xe obj/Debug/pigpio.o
 *fill*         0x000000000004be4a        0x2 
 .rodata.__FUNCTION__.134
                0x000000000004be4c       0x10 obj/Debug/pigpio.o
 .rodata.__FUNCTION__.133
                0x000000000004be5c        0x8 obj/Debug/pigpio.o
 .rodata.__FUNCTION__.132
                0x000000000004be64        0x8 obj/Debug/pigpio.o
 .rodata.__FUNCTION__.131
                0x000000000004be6c        0xa obj/Debug/pigpio.o
 *fill*         0x000000000004be76        0x2 
 .rodata.__FUNCTION__.130
                0x000000000004be78        0xa obj/Debug/pigpio.o
 *fill*         0x000000000004be82        0x2 
 .rodata.__FUNCTION__.129
                0x000000000004be84        0xa obj/Debug/pigpio.o
 *fill*         0x000000000004be8e        0x2 
 .rodata.__FUNCTION__.128
                0x000000000004be90       0x11 obj/Debug/pigpio.o
 *fill*         0x000000000004bea1        0x3 
 .rodata.__FUNCTION__.127
                0x000000000004bea4       0x15 obj/Debug/pigpio.o
 *fill*         0x000000000004beb9        0x3 
 .rodata.__FUNCTION__.126
                0x000000000004bebc        0xf obj/Debug/pigpio.o
 *fill*         0x000000000004becb        0x1 
 .rodata.__FUNCTION__.125
                0x000000000004becc        0xf obj/Debug/pigpio.o
 *fill*         0x000000000004bedb        0x1 
 .rodata.__FUNCTION__.124
                0x000000000004bedc        0xe obj/Debug/pigpio.o
 *fill*         0x000000000004beea        0x2 
 .rodata.__FUNCTION__.123
                0x000000000004beec        0xc obj/Debug/pigpio.o
 .rodata.__FUNCTION__.122
                0x000000000004bef8        0xc obj/Debug/pigpio.o
 .rodata.__FUNCTION__.121
                0x000000000004bf04       0x12 obj/Debug/pigpio.o
 *fill*         0x000000000004bf16        0x2 
 .rodata.__FUNCTION__.120
                0x000000000004bf18        0x9 obj/Debug/pigpio.o
 *fill*         0x000000000004bf21        0x3 
 .rodata.__FUNCTION__.119
                0x000000000004bf24        0xa obj/Debug/pigpio.o
 *fill*         0x000000000004bf2e        0x2 
 .rodata.__FUNCTION__.118
                0x000000000004bf30        0x8 obj/Debug/pigpio.o
 .rodata.__FUNCTION__.117
                0x000000000004bf38       0x14 obj/Debug/pigpio.o
 .rodata.__FUNCTION__.116
                0x000000000004bf4c       0x10 obj/Debug/pigpio.o
 .rodata.__FUNCTION__.115
                0x000000000004bf5c       0x10 obj/Debug/pigpio.o
 .rodata.__FUNCTION__.114
                0x000000000004bf6c       0x14 obj/Debug/pigpio.o
 .rodata.__FUNCTION__.113
                0x000000000004bf80       0x14 obj/Debug/pigpio.o
 .rodata.__FUNCTION__.112
                0x000000000004bf94       0x14 obj/Debug/pigpio.o
 .rodata.__FUNCTION__.111
                0x000000000004bfa8        0xa obj/Debug/pigpio.o
 *fill*         0x000000000004bfb2        0x2 
 .rodata.__FUNCTION__.110
                0x000000000004bfb4       0x17 obj/Debug/pigpio.o
 *fill*         0x000000000004bfcb        0x1 
 .rodata.__FUNCTION__.109
                0x000000000004bfcc        0xe obj/Debug/pigpio.o
 *fill*         0x000000000004bfda        0x2 
 .rodata.__FUNCTION__.108
                0x000000000004bfdc        0xf obj/Debug/pigpio.o
 *fill*         0x000000000004bfeb        0x1 
 .rodata.__FUNCTION__.107
                0x000000000004bfec       0x13 obj/Debug/pigpio.o
 *fill*         0x000000000004bfff        0x1 
 .rodata.__FUNCTION__.106
                0x000000000004c000       0x12 obj/Debug/pigpio.o
 *fill*         0x000000000004c012        0x2 
 .rodata.__FUNCTION__.104
                0x000000000004c014        0xf obj/Debug/pigpio.o
 *fill*         0x000000000004c023        0x1 
 .rodata.__FUNCTION__.103
                0x000000000004c024       0x12 obj/Debug/pigpio.o
 *fill*         0x000000000004c036        0x2 
 .rodata.__FUNCTION__.102
                0x000000000004c038        0xf obj/Debug/pigpio.o
 *fill*         0x000000000004c047        0x1 
 .rodata.__FUNCTION__.101
                0x000000000004c048       0x10 obj/Debug/pigpio.o
 .rodata.__FUNCTION__.100
                0x000000000004c058        0xf obj/Debug/pigpio.o
 *fill*         0x000000000004c067        0x1 
 .rodata.__FUNCTION__.99
                0x000000000004c068        0xe obj/Debug/pigpio.o
 *fill*         0x000000000004c076        0x2 
 .rodata.__FUNCTION__.98
                0x000000000004c078        0xf obj/Debug/pigpio.o
 *fill*         0x000000000004c087        0x1 
 .rodata.__FUNCTION__.97
                0x000000000004c088        0xd obj/Debug/pigpio.o
 *fill*         0x000000000004c095        0x3 
 .rodata.__FUNCTION__.96
                0x000000000004c098        0xf obj/Debug/pigpio.o
 *fill*         0x000000000004c0a7        0x1 
 .rodata.__FUNCTION__.95
                0x000000000004c0a8       0x12 obj/Debug/pigpio.o
 *fill*         0x000000000004c0ba        0x2 
 .rodata.__FUNCTION__.94
                0x000000000004c0bc       0x16 obj/Debug/pigpio.o
 *fill*         0x000000000004c0d2        0x2 
 .rodata.__FUNCTION__.93
                0x000000000004c0d4       0x15 obj/Debug/pigpio.o
 *fill*         0x000000000004c0e9        0x3 
 .rodata.__FUNCTION__.92
                0x000000000004c0ec       0x12 obj/Debug/pigpio.o
 *fill*         0x000000000004c0fe        0x2 
 .rodata.__FUNCTION__.91
                0x000000000004c100       0x16 obj/Debug/pigpio.o
 *fill*         0x000000000004c116        0x2 
 .rodata.__FUNCTION__.90
                0x000000000004c118       0x15 obj/Debug/pigpio.o
 *fill*         0x000000000004c12d        0x3 
 .rodata.__FUNCTION__.89
                0x000000000004c130        0xf obj/Debug/pigpio.o
 *fill*         0x000000000004c13f        0x1 
 .rodata.__FUNCTION__.88
                0x000000000004c140       0x13 obj/Debug/pigpio.o
 *fill*         0x000000000004c153        0x1 
 .rodata.__FUNCTION__.87
                0x000000000004c154       0x12 obj/Debug/pigpio.o
 *fill*         0x000000000004c166        0x2 
 .rodata.__FUNCTION__.86
                0x000000000004c168        0xa obj/Debug/pigpio.o
 *fill*         0x000000000004c172        0x2 
 .rodata.__FUNCTION__.85
                0x000000000004c174        0xb obj/Debug/pigpio.o
 *fill*         0x000000000004c17f        0x1 
 .rodata.__FUNCTION__.84
                0x000000000004c180        0x9 obj/Debug/pigpio.o
 *fill*         0x000000000004c189        0x3 
 .rodata.__FUNCTION__.83
                0x000000000004c18c        0x8 obj/Debug/pigpio.o
 .rodata.__FUNCTION__.81
                0x000000000004c194        0xa obj/Debug/pigpio.o
 *fill*         0x000000000004c19e        0x2 
 .rodata.__FUNCTION__.80
                0x000000000004c1a0        0xb obj/Debug/pigpio.o
 *fill*         0x000000000004c1ab        0x1 
 .rodata.__FUNCTION__.79
                0x000000000004c1ac        0xa obj/Debug/pigpio.o
 *fill*         0x000000000004c1b6        0x2 
 .rodata.__FUNCTION__.78
                0x000000000004c1b8       0x13 obj/Debug/pigpio.o
 *fill*         0x000000000004c1cb        0x1 
 .rodata.__FUNCTION__.77
                0x000000000004c1cc       0x15 obj/Debug/pigpio.o
 *fill*         0x000000000004c1e1        0x3 
 .rodata.__FUNCTION__.76
                0x000000000004c1e4        0xf obj/Debug/pigpio.o
 *fill*         0x000000000004c1f3        0x1 
 .rodata.__FUNCTION__.75
                0x000000000004c1f4       0x14 obj/Debug/pigpio.o
 .rodata.__FUNCTION__.71
                0x000000000004c208        0xd obj/Debug/pigpio.o
 *fill*         0x000000000004c215        0x3 
 .rodata.__FUNCTION__.70
                0x000000000004c218        0xd obj/Debug/pigpio.o
 *fill*         0x000000000004c225        0x3 
 .rodata.__FUNCTION__.69
                0x000000000004c228       0x14 obj/Debug/pigpio.o
 .rodata.__FUNCTION__.68
                0x000000000004c23c       0x11 obj/Debug/pigpio.o
 *fill*         0x000000000004c24d        0x3 
 .rodata.__FUNCTION__.66
                0x000000000004c250        0xd obj/Debug/pigpio.o
 *fill*         0x000000000004c25d        0x3 
 .rodata.__FUNCTION__.65
                0x000000000004c260       0x12 obj/Debug/pigpio.o
 *fill*         0x000000000004c272        0x2 
 .rodata.__FUNCTION__.64
                0x000000000004c274        0xf obj/Debug/pigpio.o
 *fill*         0x000000000004c283        0x1 
 .rodata.__FUNCTION__.62
                0x000000000004c284       0x1b obj/Debug/pigpio.o
 *fill*         0x000000000004c29f        0x1 
 .rodata.__FUNCTION__.60
                0x000000000004c2a0       0x17 obj/Debug/pigpio.o
 *fill*         0x000000000004c2b7        0x1 
 .rodata.__FUNCTION__.59
                0x000000000004c2b8       0x15 obj/Debug/pigpio.o
 *fill*         0x000000000004c2cd        0x3 
 .rodata.__FUNCTION__.58
                0x000000000004c2d0       0x10 obj/Debug/pigpio.o
 .rodata.__FUNCTION__.57
                0x000000000004c2e0       0x10 obj/Debug/pigpio.o
 .rodata.__FUNCTION__.56
                0x000000000004c2f0       0x10 obj/Debug/pigpio.o
 .rodata.__FUNCTION__.55
                0x000000000004c300        0xc obj/Debug/pigpio.o
 .rodata.__FUNCTION__.54
                0x000000000004c30c       0x10 obj/Debug/pigpio.o
 .rodata.__FUNCTION__.53
                0x000000000004c31c       0x10 obj/Debug/pigpio.o
 .rodata.__FUNCTION__.52
                0x000000000004c32c       0x11 obj/Debug/pigpio.o
 *fill*         0x000000000004c33d        0x3 
 .rodata.__FUNCTION__.46
                0x000000000004c340       0x10 obj/Debug/pigpio.o
 .rodata.__FUNCTION__.45
                0x000000000004c350        0xf obj/Debug/pigpio.o
 *fill*         0x000000000004c35f        0x1 
 .rodata.__FUNCTION__.44
                0x000000000004c360       0x10 obj/Debug/pigpio.o
 .rodata.__FUNCTION__.42
                0x000000000004c370        0xe obj/Debug/pigpio.o
 *fill*         0x000000000004c37e        0x2 
 .rodata.__FUNCTION__.41
                0x000000000004c380       0x11 obj/Debug/pigpio.o
 *fill*         0x000000000004c391        0x3 
 .rodata.__FUNCTION__.40
                0x000000000004c394       0x11 obj/Debug/pigpio.o
 *fill*         0x000000000004c3a5        0x3 
 .rodata.__FUNCTION__.39
                0x000000000004c3a8        0xf obj/Debug/pigpio.o
 *fill*         0x000000000004c3b7        0x1 
 .rodata.__FUNCTION__.38
                0x000000000004c3b8       0x11 obj/Debug/pigpio.o
 *fill*         0x000000000004c3c9        0x3 
 .rodata.__FUNCTION__.35
                0x000000000004c3cc       0x13 obj/Debug/pigpio.o
 *fill*         0x000000000004c3df        0x1 
 .rodata.__FUNCTION__.34
                0x000000000004c3e0       0x14 obj/Debug/pigpio.o
 .rodata.__FUNCTION__.33
                0x000000000004c3f4       0x1a obj/Debug/pigpio.o
 *fill*         0x000000000004c40e        0x2 
 .rodata.__FUNCTION__.32
                0x000000000004c410       0x1b obj/Debug/pigpio.o
 *fill*         0x000000000004c42b        0x1 
 .rodata.__FUNCTION__.31
                0x000000000004c42c       0x18 obj/Debug/pigpio.o
 .rodata.__FUNCTION__.30
                0x000000000004c444       0x19 obj/Debug/pigpio.o
 *fill*         0x000000000004c45d        0x3 
 .rodata.__FUNCTION__.29
                0x000000000004c460       0x12 obj/Debug/pigpio.o
 *fill*         0x000000000004c472        0x2 
 .rodata.__FUNCTION__.28
                0x000000000004c474       0x10 obj/Debug/pigpio.o
 .rodata.__FUNCTION__.27
                0x000000000004c484        0xb obj/Debug/pigpio.o
 *fill*         0x000000000004c48f        0x1 
 .rodata.__FUNCTION__.26
                0x000000000004c490        0xb obj/Debug/pigpio.o
 *fill*         0x000000000004c49b        0x1 
 .rodata.__FUNCTION__.25
                0x000000000004c49c        0x6 obj/Debug/pigpio.o
 *fill*         0x000000000004c4a2        0x2 
 .rodata.__FUNCTION__.24
                0x000000000004c4a4        0x9 obj/Debug/pigpio.o
 *fill*         0x000000000004c4ad        0x3 
 .rodata.__FUNCTION__.22
                0x000000000004c4b0        0xa obj/Debug/pigpio.o
 *fill*         0x000000000004c4ba        0x2 
 .rodata.__FUNCTION__.21
                0x000000000004c4bc        0xa obj/Debug/pigpio.o
 *fill*         0x000000000004c4c6        0x2 
 .rodata.__FUNCTION__.20
                0x000000000004c4c8        0x9 obj/Debug/pigpio.o
 *fill*         0x000000000004c4d1        0x3 
 .rodata.__FUNCTION__.19
                0x000000000004c4d4        0x9 obj/Debug/pigpio.o
 *fill*         0x000000000004c4dd        0x3 
 .rodata.__FUNCTION__.18
                0x000000000004c4e0        0x9 obj/Debug/pigpio.o
 *fill*         0x000000000004c4e9        0x3 
 .rodata.__FUNCTION__.14
                0x000000000004c4ec        0x9 obj/Debug/pigpio.o
 *fill*         0x000000000004c4f5        0x3 
 .rodata.__FUNCTION__.13
                0x000000000004c4f8        0xc obj/Debug/pigpio.o
 .rodata.__FUNCTION__.12
                0x000000000004c504       0x15 obj/Debug/pigpio.o
 *fill*         0x000000000004c519        0x3 
 .rodata.__FUNCTION__.9
                0x000000000004c51c        0xd obj/Debug/pigpio.o
 *fill*         0x000000000004c529        0x3 
 .rodata.__FUNCTION__.1
                0x000000000004c52c        0xc obj/Debug/pigpio.o
 .rodata.__FUNCTION__.0
                0x000000000004c538        0xc obj/Debug/pigpio.o
 .rodata        0x000000000004c544     0x28de obj/Debug/command.o
 *fill*         0x000000000004ee22        0x2 
 .rodata.PWMConfs
                0x000000000004ee24       0x18 obj/Debug/Executive/nativePWM.o
                0x000000000004ee24                PWMConfs
 .rodata        0x000000000004ee3c       0x26 obj/Debug/Executive/additionalMeasurements.o
 *fill*         0x000000000004ee62        0x2 
 .rodata.VarForIndication
                0x000000000004ee64       0x80 obj/Debug/Keyboard_Indicator/Indicator_Variables.o
                0x000000000004ee64                VarForIndication
 .rodata        0x000000000004eee4       0x10 obj/Debug/i2c_lcd/i2c_lcd.o
 .rodata        0x000000000004eef4       0xda obj/Debug/i2c_lcd/lcd.o
 *fill*         0x000000000004efce        0x2 
 .rodata        0x000000000004efd0       0x19 obj/Debug/ADC/ADC_Unit.o
 *fill*         0x000000000004efe9        0x3 
 .rodata.ADS1256_DRATE_E
                0x000000000004efec       0x10 obj/Debug/ADC/ADS1256.o
 .rodata        0x000000000004effc       0x33 obj/Debug/ADC/ADS1256.o
 *fill*         0x000000000004f02f        0x1 
 .rodata        0x000000000004f030       0xa3 obj/Debug/UART/uart.o
 *fill*         0x000000000004f0d3        0x1 
 .rodata        0x000000000004f0d4      0x1c2 obj/Debug/diskIO.o

.rodata1
 *(.rodata1)

.ARM.extab
 *(.ARM.extab* .gnu.linkonce.armextab.*)

.ARM.exidx      0x000000000004f298        0x8
                [!provide]                        PROVIDE (__exidx_start = .)
 *(.ARM.exidx* .gnu.linkonce.armexidx.*)
 .ARM.exidx     0x000000000004f298        0x8 c:/sysgcc/raspberry/bin/../arm-linux-gnueabihf/sysroot/lib/arm-linux-gnueabihf/crt1.o
 .ARM.exidx     0x000000000004f2a0        0x0 C:/SysGCC/raspberry/arm-linux-gnueabihf/lib\libgcc.a(_udivmoddi4.o)
                                          0x8 (size before relaxing)
                [!provide]                        PROVIDE (__exidx_end = .)

.eh_frame_hdr
 *(.eh_frame_hdr)
 *(.eh_frame_entry .eh_frame_entry.*)

.eh_frame       0x000000000004f2a0        0x4
 *(.eh_frame)
 .eh_frame      0x000000000004f2a0        0x4 c:/sysgcc/raspberry/bin/../lib/gcc/arm-linux-gnueabihf/10/../../../../arm-linux-gnueabihf/lib/crtend.o
 *(.eh_frame.*)

.gcc_except_table
 *(.gcc_except_table .gcc_except_table.*)

.gnu_extab
 *(.gnu_extab*)

.exception_ranges
 *(.exception_ranges*)
                0x000000000005fee8                . = DATA_SEGMENT_ALIGN (CONSTANT (MAXPAGESIZE), CONSTANT (COMMONPAGESIZE))

.eh_frame
 *(.eh_frame)
 *(.eh_frame.*)

.gnu_extab
 *(.gnu_extab)

.gcc_except_table
 *(.gcc_except_table .gcc_except_table.*)

.exception_ranges
 *(.exception_ranges*)

.tdata          0x000000000005fee8        0x0
                [!provide]                        PROVIDE (__tdata_start = .)
 *(.tdata .tdata.* .gnu.linkonce.td.*)

.tbss
 *(.tbss .tbss.* .gnu.linkonce.tb.*)
 *(.tcommon)

.preinit_array  0x000000000005fee8        0x0
                [!provide]                        PROVIDE (__preinit_array_start = .)
 *(.preinit_array)
                [!provide]                        PROVIDE (__preinit_array_end = .)

.init_array     0x000000000005fee8        0x4
                0x000000000005fee8                PROVIDE (__init_array_start = .)
 *(SORT_BY_INIT_PRIORITY(.init_array.*) SORT_BY_INIT_PRIORITY(.ctors.*))
 *(.init_array EXCLUDE_FILE(*crtend?.o *crtend.o *crtbegin?.o *crtbegin.o) .ctors)
 .init_array    0x000000000005fee8        0x4 c:/sysgcc/raspberry/bin/../lib/gcc/arm-linux-gnueabihf/10/../../../../arm-linux-gnueabihf/lib/crtbegin.o
                0x000000000005feec                PROVIDE (__init_array_end = .)

.fini_array     0x000000000005feec        0x4
                [!provide]                        PROVIDE (__fini_array_start = .)
 *(SORT_BY_INIT_PRIORITY(.fini_array.*) SORT_BY_INIT_PRIORITY(.dtors.*))
 *(.fini_array EXCLUDE_FILE(*crtend?.o *crtend.o *crtbegin?.o *crtbegin.o) .dtors)
 .fini_array    0x000000000005feec        0x4 c:/sysgcc/raspberry/bin/../lib/gcc/arm-linux-gnueabihf/10/../../../../arm-linux-gnueabihf/lib/crtbegin.o
                [!provide]                        PROVIDE (__fini_array_end = .)

.ctors
 *crtbegin.o(.ctors)
 *crtbegin?.o(.ctors)
 *(EXCLUDE_FILE(*crtend?.o *crtend.o) .ctors)
 *(SORT_BY_NAME(.ctors.*))
 *(.ctors)

.dtors
 *crtbegin.o(.dtors)
 *crtbegin?.o(.dtors)
 *(EXCLUDE_FILE(*crtend?.o *crtend.o) .dtors)
 *(SORT_BY_NAME(.dtors.*))
 *(.dtors)

.jcr
 *(.jcr)

.data.rel.ro    0x000000000005fef0       0x20
 *(.data.rel.ro.local* .gnu.linkonce.d.rel.ro.local.*)
 *(.data.rel.ro .data.rel.ro.* .gnu.linkonce.d.rel.ro.*)
 .data.rel.ro   0x000000000005fef0       0x20 c:/sysgcc/raspberry/bin/../arm-linux-gnueabihf/sysroot/lib/arm-linux-gnueabihf/crt1.o
                0x000000000005fef0                in6addr_any@@GLIBC_2.4
                0x000000000005ff00                in6addr_loopback@@GLIBC_2.4

.dynamic        0x000000000005ff10       0xf0
 *(.dynamic)
 .dynamic       0x000000000005ff10       0xf0 c:/sysgcc/raspberry/bin/../arm-linux-gnueabihf/sysroot/lib/arm-linux-gnueabihf/crt1.o
                0x000000000005ff10                _DYNAMIC
                0x0000000000060000                . = DATA_SEGMENT_RELRO_END (., 0x0)

.got            0x0000000000060000      0x1ec
 *(.got.plt)
 .got.plt       0x0000000000060000      0x1e8 c:/sysgcc/raspberry/bin/../arm-linux-gnueabihf/sysroot/lib/arm-linux-gnueabihf/crt1.o
                0x0000000000060000                _GLOBAL_OFFSET_TABLE_
 *(.igot.plt)
 .igot.plt      0x00000000000601e8        0x0 c:/sysgcc/raspberry/bin/../arm-linux-gnueabihf/sysroot/lib/arm-linux-gnueabihf/crt1.o
 *(.got)
 .got           0x00000000000601e8        0x4 c:/sysgcc/raspberry/bin/../arm-linux-gnueabihf/sysroot/lib/arm-linux-gnueabihf/crt1.o
 *(.igot)

.data           0x00000000000601ec      0xfec
                [!provide]                        PROVIDE (__data_start = .)
 *(.data .data.* .gnu.linkonce.d.*)
 .data          0x00000000000601ec        0x4 c:/sysgcc/raspberry/bin/../lib/gcc/arm-linux-gnueabihf/10/../../../../arm-linux-gnueabihf/lib/crtbegin.o
                0x00000000000601ec                __dso_handle
 .data.bcm2835_peripherals_base
                0x00000000000601f0        0x4 obj/Debug/bcm2835.o
                0x00000000000601f0                bcm2835_peripherals_base
 .data.bcm2835_peripherals_size
                0x00000000000601f4        0x4 obj/Debug/bcm2835.o
                0x00000000000601f4                bcm2835_peripherals_size
 .data.bcm2835_peripherals
                0x00000000000601f8        0x4 obj/Debug/bcm2835.o
                0x00000000000601f8                bcm2835_peripherals
 .data.bcm2835_gpio
                0x00000000000601fc        0x4 obj/Debug/bcm2835.o
                0x00000000000601fc                bcm2835_gpio
 .data.bcm2835_pwm
                0x0000000000060200        0x4 obj/Debug/bcm2835.o
                0x0000000000060200                bcm2835_pwm
 .data.bcm2835_clk
                0x0000000000060204        0x4 obj/Debug/bcm2835.o
                0x0000000000060204                bcm2835_clk
 .data.bcm2835_pads
                0x0000000000060208        0x4 obj/Debug/bcm2835.o
                0x0000000000060208                bcm2835_pads
 .data.bcm2835_spi0
                0x000000000006020c        0x4 obj/Debug/bcm2835.o
                0x000000000006020c                bcm2835_spi0
 .data.bcm2835_bsc0
                0x0000000000060210        0x4 obj/Debug/bcm2835.o
                0x0000000000060210                bcm2835_bsc0
 .data.bcm2835_bsc1
                0x0000000000060214        0x4 obj/Debug/bcm2835.o
                0x0000000000060214                bcm2835_bsc1
 .data.bcm2835_st
                0x0000000000060218        0x4 obj/Debug/bcm2835.o
                0x0000000000060218                bcm2835_st
 .data.bcm2835_aux
                0x000000000006021c        0x4 obj/Debug/bcm2835.o
                0x000000000006021c                bcm2835_aux
 .data.bcm2835_spi1
                0x0000000000060220        0x4 obj/Debug/bcm2835.o
                0x0000000000060220                bcm2835_spi1
 .data.bcm2835_spi_bit_order
                0x0000000000060224        0x1 obj/Debug/bcm2835.o
 *fill*         0x0000000000060225        0x3 
 .data.bcm2835_byte_reverse_table
                0x0000000000060228      0x100 obj/Debug/bcm2835.o
 .data.pi_peri_phys
                0x0000000000060328        0x4 obj/Debug/pigpio.o
 .data.pi_dram_bus
                0x000000000006032c        0x4 obj/Debug/pigpio.o
 .data.pi_mem_flag
                0x0000000000060330        0x4 obj/Debug/pigpio.o
 .data.clk_osc_freq
                0x0000000000060334        0x4 obj/Debug/pigpio.o
 .data.clk_plld_freq
                0x0000000000060338        0x4 obj/Debug/pigpio.o
 .data.hw_pwm_max_freq
                0x000000000006033c        0x4 obj/Debug/pigpio.o
 .data.hw_clk_min_freq
                0x0000000000060340        0x4 obj/Debug/pigpio.o
 .data.hw_clk_max_freq
                0x0000000000060344        0x4 obj/Debug/pigpio.o
 .data.wfStats  0x0000000000060348       0x24 obj/Debug/pigpio.o
 .data.waveOutBotCB
                0x000000000006036c        0x4 obj/Debug/pigpio.o
 .data.waveOutBotOOL
                0x0000000000060370        0x4 obj/Debug/pigpio.o
 .data.waveOutTopOOL
                0x0000000000060374        0x4 obj/Debug/pigpio.o
 .data.fdLock   0x0000000000060378        0x4 obj/Debug/pigpio.o
 .data.fdMem    0x000000000006037c        0x4 obj/Debug/pigpio.o
 .data.fdSock   0x0000000000060380        0x4 obj/Debug/pigpio.o
 .data.fdPmap   0x0000000000060384        0x4 obj/Debug/pigpio.o
 .data.fdMbox   0x0000000000060388        0x4 obj/Debug/pigpio.o
 .data.dmaMboxBlk
                0x000000000006038c        0x4 obj/Debug/pigpio.o
 .data.dmaPMapBlk
                0x0000000000060390        0x4 obj/Debug/pigpio.o
 .data.dmaVirt  0x0000000000060394        0x4 obj/Debug/pigpio.o
 .data.dmaBus   0x0000000000060398        0x4 obj/Debug/pigpio.o
 .data.dmaIVirt
                0x000000000006039c        0x4 obj/Debug/pigpio.o
 .data.dmaIBus  0x00000000000603a0        0x4 obj/Debug/pigpio.o
 .data.dmaOVirt
                0x00000000000603a4        0x4 obj/Debug/pigpio.o
 .data.dmaOBus  0x00000000000603a8        0x4 obj/Debug/pigpio.o
 .data.auxReg   0x00000000000603ac        0x4 obj/Debug/pigpio.o
 .data.bscsReg  0x00000000000603b0        0x4 obj/Debug/pigpio.o
 .data.clkReg   0x00000000000603b4        0x4 obj/Debug/pigpio.o
 .data.dmaReg   0x00000000000603b8        0x4 obj/Debug/pigpio.o
 .data.gpioReg  0x00000000000603bc        0x4 obj/Debug/pigpio.o
 .data.padsReg  0x00000000000603c0        0x4 obj/Debug/pigpio.o
 .data.pcmReg   0x00000000000603c4        0x4 obj/Debug/pigpio.o
 .data.pwmReg   0x00000000000603c8        0x4 obj/Debug/pigpio.o
 .data.spiReg   0x00000000000603cc        0x4 obj/Debug/pigpio.o
 .data.systReg  0x00000000000603d0        0x4 obj/Debug/pigpio.o
 .data.dmaIn    0x00000000000603d4        0x4 obj/Debug/pigpio.o
 .data.dmaOut   0x00000000000603d8        0x4 obj/Debug/pigpio.o
 .data.gpioCfg  0x00000000000603dc       0x2c obj/Debug/pigpio.o
 .data.alert_delays
                0x0000000000060408       0x40 obj/Debug/pigpio.o
                0x0000000000060408                alert_delays
 .data.cmdInfo  0x0000000000060448      0xd34 obj/Debug/command.o
                0x0000000000060448                cmdInfo
 .data.cmdUsage
                0x000000000006117c        0x4 obj/Debug/command.o
                0x000000000006117c                cmdUsage
 .data.fmtMdeStr
                0x0000000000061180        0x4 obj/Debug/command.o
 .data.fmtPudStr
                0x0000000000061184        0x4 obj/Debug/command.o
 .data.cols     0x0000000000061188        0x4 obj/Debug/Keyboard_Indicator/Keypad.o
                0x0000000000061188                cols
 .data.row      0x000000000006118c        0x5 obj/Debug/Keyboard_Indicator/Keypad.o
                0x000000000006118c                row
 *fill*         0x0000000000061191        0x3 
 .data.map      0x0000000000061194       0x14 obj/Debug/Keyboard_Indicator/Keypad.o
                0x0000000000061194                map
 .data.eCurrentCursorZone
                0x00000000000611a8        0x4 obj/Debug/Keyboard_Indicator/Indicator_Variables.o
                0x00000000000611a8                eCurrentCursorZone
 .data.lTemperaturePrevious
                0x00000000000611ac        0x4 obj/Debug/globalvardefs.o
                0x00000000000611ac                lTemperaturePrevious
 .data.lTemperatureReal
                0x00000000000611b0        0x4 obj/Debug/globalvardefs.o
                0x00000000000611b0                lTemperatureReal
 .data.slTemperatureSpeed
                0x00000000000611b4        0x4 obj/Debug/globalvardefs.o
                0x00000000000611b4                slTemperatureSpeed
 .data.lTemperatureSet
                0x00000000000611b8        0x4 obj/Debug/globalvardefs.o
                0x00000000000611b8                lTemperatureSet
 .data.bCelsiumOrKelvin
                0x00000000000611bc        0x2 obj/Debug/globalvardefs.o
                0x00000000000611bc                bCelsiumOrKelvin
 *fill*         0x00000000000611be        0x2 
 .data.lKprop   0x00000000000611c0        0x4 obj/Debug/globalvardefs.o
                0x00000000000611c0                lKprop
 .data.lKint    0x00000000000611c4        0x4 obj/Debug/globalvardefs.o
                0x00000000000611c4                lKint
 .data.lKdiff   0x00000000000611c8        0x4 obj/Debug/globalvardefs.o
                0x00000000000611c8                lKdiff
 .data.lTemperatureCurrentSet
                0x00000000000611cc        0x4 obj/Debug/globalvardefs.o
                0x00000000000611cc                lTemperatureCurrentSet
 .data.lDelta_t
                0x00000000000611d0        0x4 obj/Debug/globalvardefs.o
                0x00000000000611d0                lDelta_t
 .data.lDelta_T
                0x00000000000611d4        0x4 obj/Debug/globalvardefs.o
                0x00000000000611d4                lDelta_T

.tm_clone_table
                0x00000000000611d8        0x0
 .tm_clone_table
                0x00000000000611d8        0x0 c:/sysgcc/raspberry/bin/../lib/gcc/arm-linux-gnueabihf/10/../../../../arm-linux-gnueabihf/lib/crtbegin.o
 .tm_clone_table
                0x00000000000611d8        0x0 c:/sysgcc/raspberry/bin/../lib/gcc/arm-linux-gnueabihf/10/../../../../arm-linux-gnueabihf/lib/crtend.o

.data1
 *(.data1)
                0x00000000000611d8                _edata = .
                [!provide]                        PROVIDE (edata = .)
                0x00000000000611d8                . = .
                0x00000000000611d8                __bss_start = .
                0x00000000000611d8                __bss_start__ = .

.bss            0x00000000000611d8    0x948a4
 *(.dynbss)
 .dynbss        0x00000000000611d8        0x4 c:/sysgcc/raspberry/bin/../arm-linux-gnueabihf/sysroot/lib/arm-linux-gnueabihf/crt1.o
                0x00000000000611d8                stderr@@GLIBC_2.4
 *(.bss .bss.* .gnu.linkonce.b.*)
 .bss           0x00000000000611dc        0x1 c:/sysgcc/raspberry/bin/../lib/gcc/arm-linux-gnueabihf/10/../../../../arm-linux-gnueabihf/lib/crtbegin.o
 *fill*         0x00000000000611dd        0x3 
 .bss.ADC_Thread
                0x00000000000611e0        0x4 obj/Debug/main.o
                0x00000000000611e0                ADC_Thread
 .bss.TemperatureRegulator
                0x00000000000611e4        0x4 obj/Debug/main.o
                0x00000000000611e4                TemperatureRegulator
 .bss.Interface
                0x00000000000611e8        0x4 obj/Debug/main.o
                0x00000000000611e8                Interface
 .bss.Keypad_Thread
                0x00000000000611ec        0x4 obj/Debug/main.o
                0x00000000000611ec                Keypad_Thread
 .bss.PowerEquipment
                0x00000000000611f0        0x4 obj/Debug/main.o
                0x00000000000611f0                PowerEquipment
 .bss.ServiceMeasurements
                0x00000000000611f4        0x4 obj/Debug/main.o
                0x00000000000611f4                ServiceMeasurements
 .bss.UARTCommThread
                0x00000000000611f8        0x4 obj/Debug/main.o
                0x00000000000611f8                UARTCommThread
 .bss.iLocalCounter.0
                0x00000000000611fc        0x2 obj/Debug/main.o
 .bss.debug     0x00000000000611fe        0x1 obj/Debug/bcm2835.o
 .bss.pud_type_rpi4
                0x00000000000611ff        0x1 obj/Debug/bcm2835.o
 .bss.pud_compat_setting
                0x0000000000061200        0x1 obj/Debug/bcm2835.o
 *fill*         0x0000000000061201        0x3 
 .bss.i2c_byte_wait_us
                0x0000000000061204        0x4 obj/Debug/bcm2835.o
 .bss.piCores   0x0000000000061208        0x4 obj/Debug/pigpio.o
 .bss.pi_ispi   0x000000000006120c        0x4 obj/Debug/pigpio.o
 .bss.pi_is_2711
                0x0000000000061210        0x4 obj/Debug/pigpio.o
 .bss.libInitialised
                0x0000000000061214        0x4 obj/Debug/pigpio.o
 .bss.libStarted
                0x0000000000061218        0x8 obj/Debug/pigpio.o
 .bss.sockNetAddr
                0x0000000000061220      0x400 obj/Debug/pigpio.o
 .bss.numSockNetAddr
                0x0000000000061620        0x4 obj/Debug/pigpio.o
 .bss.reportedLevel
                0x0000000000061624        0x4 obj/Debug/pigpio.o
 .bss.waveClockInited
                0x0000000000061628        0x4 obj/Debug/pigpio.o
 .bss.PWMClockInited
                0x000000000006162c        0x4 obj/Debug/pigpio.o
 .bss.gpioStats
                0x0000000000061630      0x100 obj/Debug/pigpio.o
 .bss.gpioMaskSet
                0x0000000000061730        0x4 obj/Debug/pigpio.o
 *fill*         0x0000000000061734        0x4 
 .bss.gpioMask  0x0000000000061738        0x8 obj/Debug/pigpio.o
 .bss.wf        0x0000000000061740    0x8ca00 obj/Debug/pigpio.o
 .bss.wfc       0x00000000000ee140        0xc obj/Debug/pigpio.o
 .bss.wfcur     0x00000000000ee14c        0x4 obj/Debug/pigpio.o
 .bss.waveInfo  0x00000000000ee150      0xfa0 obj/Debug/pigpio.o
 .bss.wfRx      0x00000000000ef0f0      0xc00 obj/Debug/pigpio.o
 .bss.waveOutCount
                0x00000000000efcf0        0x4 obj/Debug/pigpio.o
 .bss.waveEndPtr
                0x00000000000efcf4        0x4 obj/Debug/pigpio.o
 .bss.alertBits
                0x00000000000efcf8        0x4 obj/Debug/pigpio.o
 .bss.monitorBits
                0x00000000000efcfc        0x4 obj/Debug/pigpio.o
 .bss.notifyBits
                0x00000000000efd00        0x4 obj/Debug/pigpio.o
 .bss.scriptBits
                0x00000000000efd04        0x4 obj/Debug/pigpio.o
 .bss.gFilterBits
                0x00000000000efd08        0x4 obj/Debug/pigpio.o
 .bss.nFilterBits
                0x00000000000efd0c        0x4 obj/Debug/pigpio.o
 .bss.wdogBits  0x00000000000efd10        0x4 obj/Debug/pigpio.o
 .bss.scriptEventBits
                0x00000000000efd14        0x4 obj/Debug/pigpio.o
 .bss.runState  0x00000000000efd18        0x4 obj/Debug/pigpio.o
 .bss.pthAlertRunning
                0x00000000000efd1c        0x4 obj/Debug/pigpio.o
 .bss.pthFifoRunning
                0x00000000000efd20        0x4 obj/Debug/pigpio.o
 .bss.pthSocketRunning
                0x00000000000efd24        0x4 obj/Debug/pigpio.o
 .bss.gpioAlert
                0x00000000000efd28      0x900 obj/Debug/pigpio.o
 .bss.eventAlert
                0x00000000000f0628      0x280 obj/Debug/pigpio.o
 .bss.gpioISR   0x00000000000f08a8      0x798 obj/Debug/pigpio.o
 .bss.gpioGetSamples
                0x00000000000f1040       0x10 obj/Debug/pigpio.o
 .bss.gpioInfo  0x00000000000f1050      0x288 obj/Debug/pigpio.o
 .bss.gpioNotify
                0x00000000000f12d8      0x380 obj/Debug/pigpio.o
 .bss.fileInfo  0x00000000000f1658       0x80 obj/Debug/pigpio.o
 .bss.i2cInfo   0x00000000000f16d8     0x2000 obj/Debug/pigpio.o
 .bss.serInfo   0x00000000000f36d8       0x80 obj/Debug/pigpio.o
 .bss.spiInfo   0x00000000000f3758      0x180 obj/Debug/pigpio.o
 .bss.gpioScript
                0x00000000000f38d8     0x1100 obj/Debug/pigpio.o
 .bss.gpioSignal
                0x00000000000f49d8      0x300 obj/Debug/pigpio.o
 .bss.gpioTimer
                0x00000000000f4cd8      0x118 obj/Debug/pigpio.o
 .bss.pwmFreq   0x00000000000f4df0       0x48 obj/Debug/pigpio.o
 .bss.inpFifo   0x00000000000f4e38        0x4 obj/Debug/pigpio.o
 .bss.outFifo   0x00000000000f4e3c        0x4 obj/Debug/pigpio.o
 .bss.hw_clk_freq
                0x00000000000f4e40        0xc obj/Debug/pigpio.o
 .bss.hw_pwm_freq
                0x00000000000f4e4c        0x8 obj/Debug/pigpio.o
 .bss.hw_pwm_duty
                0x00000000000f4e54        0x8 obj/Debug/pigpio.o
 .bss.hw_pwm_real_range
                0x00000000000f4e5c        0x8 obj/Debug/pigpio.o
 .bss.bufferBlocks
                0x00000000000f4e64        0x4 obj/Debug/pigpio.o
 .bss.bufferCycles
                0x00000000000f4e68        0x4 obj/Debug/pigpio.o
 .bss.pthAlert  0x00000000000f4e6c        0x4 obj/Debug/pigpio.o
 .bss.pthFifo   0x00000000000f4e70        0x4 obj/Debug/pigpio.o
 .bss.pthSocket
                0x00000000000f4e74        0x4 obj/Debug/pigpio.o
 .bss.spi_dummy
                0x00000000000f4e78        0x4 obj/Debug/pigpio.o
 .bss.old_mode_ce0
                0x00000000000f4e7c        0x4 obj/Debug/pigpio.o
 .bss.old_mode_ce1
                0x00000000000f4e80        0x4 obj/Debug/pigpio.o
 .bss.old_mode_sclk
                0x00000000000f4e84        0x4 obj/Debug/pigpio.o
 .bss.old_mode_miso
                0x00000000000f4e88        0x4 obj/Debug/pigpio.o
 .bss.old_mode_mosi
                0x00000000000f4e8c        0x4 obj/Debug/pigpio.o
 .bss.old_spi_cs
                0x00000000000f4e90        0x4 obj/Debug/pigpio.o
 .bss.old_spi_clk
                0x00000000000f4e94        0x4 obj/Debug/pigpio.o
 .bss.old_mode_ace0
                0x00000000000f4e98        0x4 obj/Debug/pigpio.o
 .bss.old_mode_ace1
                0x00000000000f4e9c        0x4 obj/Debug/pigpio.o
 .bss.old_mode_ace2
                0x00000000000f4ea0        0x4 obj/Debug/pigpio.o
 .bss.old_mode_asclk
                0x00000000000f4ea4        0x4 obj/Debug/pigpio.o
 .bss.old_mode_amiso
                0x00000000000f4ea8        0x4 obj/Debug/pigpio.o
 .bss.old_mode_amosi
                0x00000000000f4eac        0x4 obj/Debug/pigpio.o
 .bss.old_spi_cntl0
                0x00000000000f4eb0        0x4 obj/Debug/pigpio.o
 .bss.old_spi_cntl1
                0x00000000000f4eb4        0x4 obj/Debug/pigpio.o
 .bss.bscFR     0x00000000000f4eb8        0x4 obj/Debug/pigpio.o
 .bss.last.199  0x00000000000f4ebc        0x8 obj/Debug/pigpio.o
 .bss.buf.198   0x00000000000f4ec4       0x20 obj/Debug/pigpio.o
 .bss.str.197   0x00000000000f4ee4       0x80 obj/Debug/pigpio.o
 .bss.val.193   0x00000000000f4f64        0x4 obj/Debug/pigpio.o
 .bss.mutex.173
                0x00000000000f4f68       0x18 obj/Debug/pigpio.o
 .bss.aux_mutex.168
                0x00000000000f4f80       0x18 obj/Debug/pigpio.o
 .bss.main_mutex.167
                0x00000000000f4f98       0x18 obj/Debug/pigpio.o
 .bss.mutex.165
                0x00000000000f4fb0       0x18 obj/Debug/pigpio.o
 .bss.mutex.159
                0x00000000000f4fc8       0x18 obj/Debug/pigpio.o
 .bss.lastPage.152
                0x00000000000f4fe0        0x4 obj/Debug/pigpio.o
 .bss.bscMode.82
                0x00000000000f4fe4        0x4 obj/Debug/pigpio.o
 .bss.mutex.61  0x00000000000f4fe8       0x18 obj/Debug/pigpio.o
 .bss.mutex.43  0x00000000000f5000       0x18 obj/Debug/pigpio.o
 .bss.mutex.23  0x00000000000f5018       0x18 obj/Debug/pigpio.o
 .bss.rev.11    0x00000000000f5030        0x4 obj/Debug/pigpio.o
 .bss.intCmdStr
                0x00000000000f5034       0x20 obj/Debug/command.o
 .bss.intCmdIdx
                0x00000000000f5054        0x4 obj/Debug/command.o
 .bss.ImpulsCounter_lock
                0x00000000000f5058       0x18 obj/Debug/Executive/additionalMeasurements.o
 .bss.iLocalImpulsCounter
                0x00000000000f5070        0x2 obj/Debug/Executive/additionalMeasurements.o
 .bss.iMeasuredFrequency
                0x00000000000f5072        0x2 obj/Debug/Executive/additionalMeasurements.o
                0x00000000000f5072                iMeasuredFrequency
 .bss.spec.0    0x00000000000f5074        0x8 obj/Debug/Executive/additionalMeasurements.o
 .bss.sDisplay_Zone
                0x00000000000f507c       0xd8 obj/Debug/Keyboard_Indicator/lcd_variables.o
                0x00000000000f507c                sDisplay_Zone
 .bss.sInputString
                0x00000000000f5154        0xe obj/Debug/Keyboard_Indicator/lcd_variables.o
                0x00000000000f5154                sInputString
 *fill*         0x00000000000f5162        0x2 
 .bss.eKeyboardState
                0x00000000000f5164        0x4 obj/Debug/Keyboard_Indicator/Indicator_Variables.o
                0x00000000000f5164                eKeyboardState
 .bss.lcdi2c    0x00000000000f5168        0x8 obj/Debug/i2c_lcd/i2c_lcd.o
                0x00000000000f5168                lcdi2c
 .bss.bLocalShowingSensorName
                0x00000000000f5170        0x2 obj/Debug/i2c_lcd/lcd.o
 *fill*         0x00000000000f5172        0x2 
 .bss.eError_ToShow.0
                0x00000000000f5174        0x4 obj/Debug/i2c_lcd/lcd.o
 .bss.data_lock
                0x00000000000f5178       0x18 obj/Debug/ADC/ADC_Unit.o
 .bss.ADC_lock  0x00000000000f5190       0x18 obj/Debug/ADC/ADC_Unit.o
 .bss.spec.1    0x00000000000f51a8        0x8 obj/Debug/ADC/ADC_Unit.o
 .bss.iLocalCounter.0
                0x00000000000f51b0        0x2 obj/Debug/ADC/ADC_Unit.o
 .bss.ScanMode  0x00000000000f51b2        0x1 obj/Debug/ADC/ADS1256.o
                0x00000000000f51b2                ScanMode
 *fill*         0x00000000000f51b3        0x1 
 .bss.bLocalFlag.0
                0x00000000000f51b4        0x2 obj/Debug/ADC/ADS1256.o
 *fill*         0x00000000000f51b6        0x2 
 .bss.PID_lock  0x00000000000f51b8       0x18 obj/Debug/ThermoControlLibrary/PIDCalculs.o
 .bss.iRegulatorEffect
                0x00000000000f51d0        0x2 obj/Debug/ThermoControlLibrary/PIDCalculs.o
 .bss.bFirstMeasurement.1
                0x00000000000f51d2        0x2 obj/Debug/ThermoControlLibrary/PIDCalculs.o
 .bss.lTau.0    0x00000000000f51d4        0x4 obj/Debug/ThermoControlLibrary/PIDCalculs.o
 .bss.eSystemState
                0x00000000000f51d8        0x4 obj/Debug/ThermoControlLibrary/ThermoControlVariables.o
                0x00000000000f51d8                eSystemState
 .bss.serial    0x00000000000f51dc       0x3c obj/Debug/UART/uart.o
                0x00000000000f51dc                serial
 .bss.buffer_out
                0x00000000000f5218       0x64 obj/Debug/UART/uart.o
                0x00000000000f5218                buffer_out
 .bss.received_data
                0x00000000000f527c       0x64 obj/Debug/UART/uart.o
                0x00000000000f527c                received_data
 .bss.buffer_in
                0x00000000000f52e0       0xff obj/Debug/UART/uart.o
                0x00000000000f52e0                buffer_in
 *fill*         0x00000000000f53df        0x1 
 .bss.pBufferWritePointer
                0x00000000000f53e0        0x4 obj/Debug/UART/uart.o
                0x00000000000f53e0                pBufferWritePointer
 .bss.pBufferReadPointer
                0x00000000000f53e4        0x4 obj/Debug/UART/uart.o
                0x00000000000f53e4                pBufferReadPointer
 .bss.fd_PC_Communication
                0x00000000000f53e8        0x4 obj/Debug/UART/uart.o
                0x00000000000f53e8                fd_PC_Communication
 .bss.eReadingState.4
                0x00000000000f53ec        0x4 obj/Debug/UART/uart.o
 .bss.Sym2.3    0x00000000000f53f0        0x1 obj/Debug/UART/uart.o
 .bss.Sym1.2    0x00000000000f53f1        0x1 obj/Debug/UART/uart.o
 .bss.Sym3.1    0x00000000000f53f2        0x1 obj/Debug/UART/uart.o
 *fill*         0x00000000000f53f3        0x1 
 .bss.sCommandStr.0
                0x00000000000f53f4        0xc obj/Debug/UART/uart.o
 .bss.sSensorData
                0x00000000000f5400       0x18 obj/Debug/globalvardefs.o
                0x00000000000f5400                sSensorData
 .bss.iTMH_Length
                0x00000000000f5418        0x2 obj/Debug/globalvardefs.o
                0x00000000000f5418                iTMH_Length
 *fill*         0x00000000000f541a        0x2 
 .bss.iTMH_Temperature_points
                0x00000000000f541c      0x320 obj/Debug/globalvardefs.o
                0x00000000000f541c                iTMH_Temperature_points
 .bss.iTMH_Voltage_points
                0x00000000000f573c      0x320 obj/Debug/globalvardefs.o
                0x00000000000f573c                iTMH_Voltage_points
 .bss.SensorName
                0x00000000000f5a5c        0xa obj/Debug/globalvardefs.o
                0x00000000000f5a5c                SensorName
 .bss.iHeaterEffect
                0x00000000000f5a66        0x2 obj/Debug/globalvardefs.o
                0x00000000000f5a66                iHeaterEffect
 .bss.iCoolerEffect
                0x00000000000f5a68        0x2 obj/Debug/globalvardefs.o
                0x00000000000f5a68                iCoolerEffect
 .bss.iValveOutput
                0x00000000000f5a6a        0x2 obj/Debug/globalvardefs.o
                0x00000000000f5a6a                iValveOutput
 .bss.bScanOrSetMode
                0x00000000000f5a6c        0x2 obj/Debug/globalvardefs.o
                0x00000000000f5a6c                bScanOrSetMode
 .bss.bTempSetAchieved
                0x00000000000f5a6e        0x2 obj/Debug/globalvardefs.o
                0x00000000000f5a6e                bTempSetAchieved
 .bss.fPowerModulStatus
                0x00000000000f5a70        0x1 obj/Debug/globalvardefs.o
                0x00000000000f5a70                fPowerModulStatus
 *fill*         0x00000000000f5a71        0x1 
 .bss.bUART_Active
                0x00000000000f5a72        0x2 obj/Debug/globalvardefs.o
                0x00000000000f5a72                bUART_Active
 .bss.bADCCalibrationProcess
                0x00000000000f5a74        0x2 obj/Debug/globalvardefs.o
                0x00000000000f5a74                bADCCalibrationProcess
 *fill*         0x00000000000f5a76        0x2 
 .bss.fSystemThreadControl
                0x00000000000f5a78        0x1 obj/Debug/globalvardefs.o
                0x00000000000f5a78                fSystemThreadControl
 *(COMMON)
                0x00000000000f5a7c                . = ALIGN ((. != 0x0)?0x4:0x1)
 *fill*         0x00000000000f5a79        0x3 
                0x00000000000f5a7c                _bss_end__ = .
                0x00000000000f5a7c                __bss_end__ = .
                0x00000000000f5a7c                . = ALIGN (0x4)
                0x00000000000f5a7c                . = SEGMENT_START ("ldata-segment", .)
                0x00000000000f5a7c                . = ALIGN (0x4)
                0x00000000000f5a7c                __end__ = .
                0x00000000000f5a7c                _end = .
                [!provide]                        PROVIDE (end = .)
                0x00000000000f5a7c                . = DATA_SEGMENT_END (.)

.stab
 *(.stab)

.stabstr
 *(.stabstr)

.stab.excl
 *(.stab.excl)

.stab.exclstr
 *(.stab.exclstr)

.stab.index
 *(.stab.index)

.stab.indexstr
 *(.stab.indexstr)

.comment        0x0000000000000000       0x2e
 *(.comment)
 .comment       0x0000000000000000       0x2e c:/sysgcc/raspberry/bin/../lib/gcc/arm-linux-gnueabihf/10/../../../../arm-linux-gnueabihf/lib/crtbegin.o
                                         0x2f (size before relaxing)
 .comment       0x000000000000002e       0x2f obj/Debug/main.o
 .comment       0x000000000000002e       0x2f obj/Debug/DEV_Config.o
 .comment       0x000000000000002e       0x2f obj/Debug/bcm2835.o
 .comment       0x000000000000002e       0x2f obj/Debug/pigpio.o
 .comment       0x000000000000002e       0x2f obj/Debug/command.o
 .comment       0x000000000000002e       0x2f obj/Debug/commonUnit.o
 .comment       0x000000000000002e       0x2f obj/Debug/Executive/modulSPI.o
 .comment       0x000000000000002e       0x2f obj/Debug/Executive/nativePWM.o
 .comment       0x000000000000002e       0x2f obj/Debug/Executive/additionalMeasurements.o
 .comment       0x000000000000002e       0x2f obj/Debug/Keyboard_Indicator/lcd_variables.o
 .comment       0x000000000000002e       0x2f obj/Debug/Keyboard_Indicator/Keypad.o
 .comment       0x000000000000002e       0x2f obj/Debug/Keyboard_Indicator/Indicator_Variables.o
 .comment       0x000000000000002e       0x2f obj/Debug/i2c_lcd/i2c_lcd.o
 .comment       0x000000000000002e       0x2f obj/Debug/i2c_lcd/lcd.o
 .comment       0x000000000000002e       0x2f obj/Debug/ADC/ADC_Unit.o
 .comment       0x000000000000002e       0x2f obj/Debug/ADC/ADS1256.o
 .comment       0x000000000000002e       0x2f obj/Debug/ThermoControlLibrary/Interpolations.o
 .comment       0x000000000000002e       0x2f obj/Debug/ThermoControlLibrary/PIDCalculs.o
 .comment       0x000000000000002e       0x2f obj/Debug/ThermoControlLibrary/ThermoControlVariables.o
 .comment       0x000000000000002e       0x2f obj/Debug/UART/uart.o
 .comment       0x000000000000002e       0x2f obj/Debug/diskIO.o
 .comment       0x000000000000002e       0x2f obj/Debug/globalvardefs.o
 .comment       0x000000000000002e       0x2f c:/sysgcc/raspberry/bin/../lib/gcc/arm-linux-gnueabihf/10/../../../../arm-linux-gnueabihf/lib/crtend.o

.ARM.attributes
                0x0000000000000000       0x2f
 .ARM.attributes
                0x0000000000000000       0x2f c:/sysgcc/raspberry/bin/../arm-linux-gnueabihf/sysroot/lib/arm-linux-gnueabihf/crt1.o
 .ARM.attributes
                0x000000000000002f       0x23 c:/sysgcc/raspberry/bin/../arm-linux-gnueabihf/sysroot/lib/arm-linux-gnueabihf/crti.o
 .ARM.attributes
                0x0000000000000052       0x2f c:/sysgcc/raspberry/bin/../lib/gcc/arm-linux-gnueabihf/10/../../../../arm-linux-gnueabihf/lib/crtbegin.o
 .ARM.attributes
                0x0000000000000081       0x2f obj/Debug/main.o
 .ARM.attributes
                0x00000000000000b0       0x2f obj/Debug/DEV_Config.o
 .ARM.attributes
                0x00000000000000df       0x2f obj/Debug/bcm2835.o
 .ARM.attributes
                0x000000000000010e       0x2f obj/Debug/pigpio.o
 .ARM.attributes
                0x000000000000013d       0x2f obj/Debug/command.o
 .ARM.attributes
                0x000000000000016c       0x2f obj/Debug/commonUnit.o
 .ARM.attributes
                0x000000000000019b       0x2f obj/Debug/Executive/modulSPI.o
 .ARM.attributes
                0x00000000000001ca       0x2f obj/Debug/Executive/nativePWM.o
 .ARM.attributes
                0x00000000000001f9       0x2f obj/Debug/Executive/additionalMeasurements.o
 .ARM.attributes
                0x0000000000000228       0x2f obj/Debug/Keyboard_Indicator/lcd_variables.o
 .ARM.attributes
                0x0000000000000257       0x2f obj/Debug/Keyboard_Indicator/Keypad.o
 .ARM.attributes
                0x0000000000000286       0x2f obj/Debug/Keyboard_Indicator/Indicator_Variables.o
 .ARM.attributes
                0x00000000000002b5       0x2f obj/Debug/i2c_lcd/i2c_lcd.o
 .ARM.attributes
                0x00000000000002e4       0x2f obj/Debug/i2c_lcd/lcd.o
 .ARM.attributes
                0x0000000000000313       0x2f obj/Debug/ADC/ADC_Unit.o
 .ARM.attributes
                0x0000000000000342       0x2f obj/Debug/ADC/ADS1256.o
 .ARM.attributes
                0x0000000000000371       0x2f obj/Debug/ThermoControlLibrary/Interpolations.o
 .ARM.attributes
                0x00000000000003a0       0x2f obj/Debug/ThermoControlLibrary/PIDCalculs.o
 .ARM.attributes
                0x00000000000003cf       0x2f obj/Debug/ThermoControlLibrary/ThermoControlVariables.o
 .ARM.attributes
                0x00000000000003fe       0x2f obj/Debug/UART/uart.o
 .ARM.attributes
                0x000000000000042d       0x2f obj/Debug/diskIO.o
 .ARM.attributes
                0x000000000000045c       0x2f obj/Debug/globalvardefs.o
 .ARM.attributes
                0x000000000000048b       0x1d C:/SysGCC/raspberry/arm-linux-gnueabihf/lib\libgcc.a(_udivsi3.o)
 .ARM.attributes
                0x00000000000004a8       0x1d C:/SysGCC/raspberry/arm-linux-gnueabihf/lib\libgcc.a(_divsi3.o)
 .ARM.attributes
                0x00000000000004c5       0x1d C:/SysGCC/raspberry/arm-linux-gnueabihf/lib\libgcc.a(_aeabi_ldivmod.o)
 .ARM.attributes
                0x00000000000004e2       0x1d C:/SysGCC/raspberry/arm-linux-gnueabihf/lib\libgcc.a(_aeabi_uldivmod.o)
 .ARM.attributes
                0x00000000000004ff       0x1d C:/SysGCC/raspberry/arm-linux-gnueabihf/lib\libgcc.a(_dvmd_lnx.o)
 .ARM.attributes
                0x000000000000051c       0x2f C:/SysGCC/raspberry/arm-linux-gnueabihf/lib\libgcc.a(_popcountsi2.o)
 .ARM.attributes
                0x000000000000054b       0x2f C:/SysGCC/raspberry/arm-linux-gnueabihf/lib\libgcc.a(_udivmoddi4.o)
 .ARM.attributes
                0x000000000000057a       0x31 c:\sysgcc\raspberry\bin\../arm-linux-gnueabihf/sysroot/usr/lib/arm-linux-gnueabihf/libc_nonshared.a(elf-init.oS)
 .ARM.attributes
                0x00000000000005ab       0x31 c:\sysgcc\raspberry\bin\../arm-linux-gnueabihf/sysroot/usr/lib/arm-linux-gnueabihf/libc_nonshared.a(atexit.oS)
 .ARM.attributes
                0x00000000000005dc       0x31 c:\sysgcc\raspberry\bin\../arm-linux-gnueabihf/sysroot/usr/lib/arm-linux-gnueabihf/libc_nonshared.a(stat.oS)
 .ARM.attributes
                0x000000000000060d       0x31 c:\sysgcc\raspberry\bin\../arm-linux-gnueabihf/sysroot/usr/lib/arm-linux-gnueabihf/libc_nonshared.a(mknod.oS)
 .ARM.attributes
                0x000000000000063e       0x2f c:/sysgcc/raspberry/bin/../lib/gcc/arm-linux-gnueabihf/10/../../../../arm-linux-gnueabihf/lib/crtend.o
 .ARM.attributes
                0x000000000000066d       0x23 c:/sysgcc/raspberry/bin/../arm-linux-gnueabihf/sysroot/lib/arm-linux-gnueabihf/crtn.o

.gnu.build.attributes
 *(.gnu.build.attributes .gnu.build.attributes.*)

.debug
 *(.debug)

.line
 *(.line)

.debug_srcinfo
 *(.debug_srcinfo)

.debug_sfnames
 *(.debug_sfnames)

.debug_aranges  0x0000000000000000     0x1368
 *(.debug_aranges)
 .debug_aranges
                0x0000000000000000       0x70 obj/Debug/main.o
 .debug_aranges
                0x0000000000000070       0x38 obj/Debug/DEV_Config.o
 .debug_aranges
                0x00000000000000a8      0x2c0 obj/Debug/bcm2835.o
 .debug_aranges
                0x0000000000000368      0xa38 obj/Debug/pigpio.o
 .debug_aranges
                0x0000000000000da0       0x48 obj/Debug/command.o
 .debug_aranges
                0x0000000000000de8       0x30 obj/Debug/commonUnit.o
 .debug_aranges
                0x0000000000000e18       0x60 obj/Debug/Executive/modulSPI.o
 .debug_aranges
                0x0000000000000e78       0x28 obj/Debug/Executive/nativePWM.o
 .debug_aranges
                0x0000000000000ea0       0x50 obj/Debug/Executive/additionalMeasurements.o
 .debug_aranges
                0x0000000000000ef0       0x18 obj/Debug/Keyboard_Indicator/lcd_variables.o
 .debug_aranges
                0x0000000000000f08       0x60 obj/Debug/Keyboard_Indicator/Keypad.o
 .debug_aranges
                0x0000000000000f68       0x18 obj/Debug/Keyboard_Indicator/Indicator_Variables.o
 .debug_aranges
                0x0000000000000f80      0x120 obj/Debug/i2c_lcd/i2c_lcd.o
 .debug_aranges
                0x00000000000010a0       0x88 obj/Debug/i2c_lcd/lcd.o
 .debug_aranges
                0x0000000000001128       0x58 obj/Debug/ADC/ADC_Unit.o
 .debug_aranges
                0x0000000000001180       0x90 obj/Debug/ADC/ADS1256.o
 .debug_aranges
                0x0000000000001210       0x30 obj/Debug/ThermoControlLibrary/Interpolations.o
 .debug_aranges
                0x0000000000001240       0x60 obj/Debug/ThermoControlLibrary/PIDCalculs.o
 .debug_aranges
                0x00000000000012a0       0x18 obj/Debug/ThermoControlLibrary/ThermoControlVariables.o
 .debug_aranges
                0x00000000000012b8       0x60 obj/Debug/UART/uart.o
 .debug_aranges
                0x0000000000001318       0x38 obj/Debug/diskIO.o
 .debug_aranges
                0x0000000000001350       0x18 obj/Debug/globalvardefs.o

.debug_pubnames
 *(.debug_pubnames)

.debug_info     0x0000000000000000    0x1438f
 *(.debug_info .gnu.linkonce.wi.*)
 .debug_info    0x0000000000000000      0xaf2 obj/Debug/main.o
 .debug_info    0x0000000000000af2      0x1f3 obj/Debug/DEV_Config.o
 .debug_info    0x0000000000000ce5     0x2319 obj/Debug/bcm2835.o
 .debug_info    0x0000000000002ffe     0xb457 obj/Debug/pigpio.o
 .debug_info    0x000000000000e455      0x9e3 obj/Debug/command.o
 .debug_info    0x000000000000ee38      0x1de obj/Debug/commonUnit.o
 .debug_info    0x000000000000f016      0x647 obj/Debug/Executive/modulSPI.o
 .debug_info    0x000000000000f65d      0x453 obj/Debug/Executive/nativePWM.o
 .debug_info    0x000000000000fab0      0x540 obj/Debug/Executive/additionalMeasurements.o
 .debug_info    0x000000000000fff0      0x247 obj/Debug/Keyboard_Indicator/lcd_variables.o
 .debug_info    0x0000000000010237      0x74c obj/Debug/Keyboard_Indicator/Keypad.o
 .debug_info    0x0000000000010983      0x404 obj/Debug/Keyboard_Indicator/Indicator_Variables.o
 .debug_info    0x0000000000010d87      0x605 obj/Debug/i2c_lcd/i2c_lcd.o
 .debug_info    0x000000000001138c      0x980 obj/Debug/i2c_lcd/lcd.o
 .debug_info    0x0000000000011d0c      0x5ef obj/Debug/ADC/ADC_Unit.o
 .debug_info    0x00000000000122fb      0x5cd obj/Debug/ADC/ADS1256.o
 .debug_info    0x00000000000128c8      0x1d9 obj/Debug/ThermoControlLibrary/Interpolations.o
 .debug_info    0x0000000000012aa1      0x62e obj/Debug/ThermoControlLibrary/PIDCalculs.o
 .debug_info    0x00000000000130cf       0xbf obj/Debug/ThermoControlLibrary/ThermoControlVariables.o
 .debug_info    0x000000000001318e      0x7be obj/Debug/UART/uart.o
 .debug_info    0x000000000001394c      0x595 obj/Debug/diskIO.o
 .debug_info    0x0000000000013ee1      0x4ae obj/Debug/globalvardefs.o

.debug_abbrev   0x0000000000000000     0x24f8
 *(.debug_abbrev)
 .debug_abbrev  0x0000000000000000      0x277 obj/Debug/main.o
 .debug_abbrev  0x0000000000000277       0xd9 obj/Debug/DEV_Config.o
 .debug_abbrev  0x0000000000000350      0x30e obj/Debug/bcm2835.o
 .debug_abbrev  0x000000000000065e      0x481 obj/Debug/pigpio.o
 .debug_abbrev  0x0000000000000adf      0x206 obj/Debug/command.o
 .debug_abbrev  0x0000000000000ce5       0xd1 obj/Debug/commonUnit.o
 .debug_abbrev  0x0000000000000db6      0x1ef obj/Debug/Executive/modulSPI.o
 .debug_abbrev  0x0000000000000fa5      0x12f obj/Debug/Executive/nativePWM.o
 .debug_abbrev  0x00000000000010d4      0x195 obj/Debug/Executive/additionalMeasurements.o
 .debug_abbrev  0x0000000000001269       0x96 obj/Debug/Keyboard_Indicator/lcd_variables.o
 .debug_abbrev  0x00000000000012ff      0x201 obj/Debug/Keyboard_Indicator/Keypad.o
 .debug_abbrev  0x0000000000001500      0x10c obj/Debug/Keyboard_Indicator/Indicator_Variables.o
 .debug_abbrev  0x000000000000160c      0x1c7 obj/Debug/i2c_lcd/i2c_lcd.o
 .debug_abbrev  0x00000000000017d3      0x1fa obj/Debug/i2c_lcd/lcd.o
 .debug_abbrev  0x00000000000019cd      0x1ec obj/Debug/ADC/ADC_Unit.o
 .debug_abbrev  0x0000000000001bb9      0x1f9 obj/Debug/ADC/ADS1256.o
 .debug_abbrev  0x0000000000001db2       0xe3 obj/Debug/ThermoControlLibrary/Interpolations.o
 .debug_abbrev  0x0000000000001e95      0x19f obj/Debug/ThermoControlLibrary/PIDCalculs.o
 .debug_abbrev  0x0000000000002034       0x73 obj/Debug/ThermoControlLibrary/ThermoControlVariables.o
 .debug_abbrev  0x00000000000020a7      0x22b obj/Debug/UART/uart.o
 .debug_abbrev  0x00000000000022d2      0x148 obj/Debug/diskIO.o
 .debug_abbrev  0x000000000000241a       0xde obj/Debug/globalvardefs.o

.debug_line     0x0000000000000000    0x1234d
 *(.debug_line .debug_line.* .debug_line_end)
 .debug_line    0x0000000000000000      0x503 obj/Debug/main.o
 .debug_line    0x0000000000000503      0x12f obj/Debug/DEV_Config.o
 .debug_line    0x0000000000000632     0x17c6 obj/Debug/bcm2835.o
 .debug_line    0x0000000000001df8     0xc2aa obj/Debug/pigpio.o
 .debug_line    0x000000000000e0a2      0xe8c obj/Debug/command.o
 .debug_line    0x000000000000ef2e      0x1fc obj/Debug/commonUnit.o
 .debug_line    0x000000000000f12a      0x2b2 obj/Debug/Executive/modulSPI.o
 .debug_line    0x000000000000f3dc      0x136 obj/Debug/Executive/nativePWM.o
 .debug_line    0x000000000000f512      0x31d obj/Debug/Executive/additionalMeasurements.o
 .debug_line    0x000000000000f82f       0xdc obj/Debug/Keyboard_Indicator/lcd_variables.o
 .debug_line    0x000000000000f90b      0x5c8 obj/Debug/Keyboard_Indicator/Keypad.o
 .debug_line    0x000000000000fed3      0x106 obj/Debug/Keyboard_Indicator/Indicator_Variables.o
 .debug_line    0x000000000000ffd9      0x4e7 obj/Debug/i2c_lcd/i2c_lcd.o
 .debug_line    0x00000000000104c0      0x726 obj/Debug/i2c_lcd/lcd.o
 .debug_line    0x0000000000010be6      0x35b obj/Debug/ADC/ADC_Unit.o
 .debug_line    0x0000000000010f41      0x395 obj/Debug/ADC/ADS1256.o
 .debug_line    0x00000000000112d6      0x1df obj/Debug/ThermoControlLibrary/Interpolations.o
 .debug_line    0x00000000000114b5      0x454 obj/Debug/ThermoControlLibrary/PIDCalculs.o
 .debug_line    0x0000000000011909       0x70 obj/Debug/ThermoControlLibrary/ThermoControlVariables.o
 .debug_line    0x0000000000011979      0x58e obj/Debug/UART/uart.o
 .debug_line    0x0000000000011f07      0x36d obj/Debug/diskIO.o
 .debug_line    0x0000000000012274       0xd9 obj/Debug/globalvardefs.o

.debug_frame    0x0000000000000000     0x49a8
 *(.debug_frame)
 .debug_frame   0x0000000000000000      0x15c obj/Debug/main.o
 .debug_frame   0x000000000000015c       0x84 obj/Debug/DEV_Config.o
 .debug_frame   0x00000000000001e0      0xad4 obj/Debug/bcm2835.o
 .debug_frame   0x0000000000000cb4     0x2bdc obj/Debug/pigpio.o
 .debug_frame   0x0000000000003890       0xd8 obj/Debug/command.o
 .debug_frame   0x0000000000003968       0x74 obj/Debug/commonUnit.o
 .debug_frame   0x00000000000039dc      0x128 obj/Debug/Executive/modulSPI.o
 .debug_frame   0x0000000000003b04       0x50 obj/Debug/Executive/nativePWM.o
 .debug_frame   0x0000000000003b54       0xf0 obj/Debug/Executive/additionalMeasurements.o
 .debug_frame   0x0000000000003c44      0x138 obj/Debug/Keyboard_Indicator/Keypad.o
 .debug_frame   0x0000000000003d7c      0x3e0 obj/Debug/i2c_lcd/i2c_lcd.o
 .debug_frame   0x000000000000415c      0x1cc obj/Debug/i2c_lcd/lcd.o
 .debug_frame   0x0000000000004328      0x10c obj/Debug/ADC/ADC_Unit.o
 .debug_frame   0x0000000000004434      0x1ec obj/Debug/ADC/ADS1256.o
 .debug_frame   0x0000000000004620       0x70 obj/Debug/ThermoControlLibrary/Interpolations.o
 .debug_frame   0x0000000000004690      0x148 obj/Debug/ThermoControlLibrary/PIDCalculs.o
 .debug_frame   0x00000000000047d8      0x138 obj/Debug/UART/uart.o
 .debug_frame   0x0000000000004910       0x98 obj/Debug/diskIO.o

.debug_str      0x0000000000000000     0x6924
 *(.debug_str)
 .debug_str     0x0000000000000000      0x8f7 obj/Debug/main.o
                                        0x9ae (size before relaxing)
 .debug_str     0x00000000000008f7      0x390 obj/Debug/DEV_Config.o
                                        0x506 (size before relaxing)
 .debug_str     0x0000000000000c87     0x1094 obj/Debug/bcm2835.o
                                       0x1595 (size before relaxing)
 .debug_str     0x0000000000001d1b     0x2f9c obj/Debug/pigpio.o
                                       0x36d6 (size before relaxing)
 .debug_str     0x0000000000004cb7       0xc9 obj/Debug/command.o
                                        0x4c0 (size before relaxing)
 .debug_str     0x0000000000004d80       0x63 obj/Debug/commonUnit.o
                                        0x227 (size before relaxing)
 .debug_str     0x0000000000004de3      0x2de obj/Debug/Executive/modulSPI.o
                                        0x63d (size before relaxing)
 .debug_str     0x00000000000050c1      0x1e6 obj/Debug/Executive/nativePWM.o
                                        0x9b8 (size before relaxing)
 .debug_str     0x00000000000052a7       0xc0 obj/Debug/Executive/additionalMeasurements.o
                                        0x56a (size before relaxing)
 .debug_str     0x0000000000005367      0x134 obj/Debug/Keyboard_Indicator/lcd_variables.o
                                        0x35f (size before relaxing)
 .debug_str     0x000000000000549b      0x429 obj/Debug/Keyboard_Indicator/Keypad.o
                                        0x891 (size before relaxing)
 .debug_str     0x00000000000058c4      0x12f obj/Debug/Keyboard_Indicator/Indicator_Variables.o
                                        0x4fc (size before relaxing)
 .debug_str     0x00000000000059f3      0x309 obj/Debug/i2c_lcd/i2c_lcd.o
                                        0x540 (size before relaxing)
 .debug_str     0x0000000000005cfc      0x27f obj/Debug/i2c_lcd/lcd.o
                                        0x847 (size before relaxing)
 .debug_str     0x0000000000005f7b       0xcd obj/Debug/ADC/ADC_Unit.o
                                        0x6be (size before relaxing)
 .debug_str     0x0000000000006048      0x2d0 obj/Debug/ADC/ADS1256.o
                                        0x640 (size before relaxing)
 .debug_str     0x0000000000006318       0xf8 obj/Debug/ThermoControlLibrary/Interpolations.o
                                        0x28f (size before relaxing)
 .debug_str     0x0000000000006410      0x18d obj/Debug/ThermoControlLibrary/PIDCalculs.o
                                        0x737 (size before relaxing)
 .debug_str     0x000000000000659d       0x32 obj/Debug/ThermoControlLibrary/ThermoControlVariables.o
                                        0x1d6 (size before relaxing)
 .debug_str     0x00000000000065cf      0x243 obj/Debug/UART/uart.o
                                        0x75f (size before relaxing)
 .debug_str     0x0000000000006812       0xfe obj/Debug/diskIO.o
                                        0x4e5 (size before relaxing)
 .debug_str     0x0000000000006910       0x14 obj/Debug/globalvardefs.o
                                        0x4dd (size before relaxing)

.debug_loc
 *(.debug_loc)

.debug_macinfo
 *(.debug_macinfo)

.debug_weaknames
 *(.debug_weaknames)

.debug_funcnames
 *(.debug_funcnames)

.debug_typenames
 *(.debug_typenames)

.debug_varnames
 *(.debug_varnames)

.debug_pubtypes
 *(.debug_pubtypes)

.debug_ranges   0x0000000000000000     0x1200
 *(.debug_ranges)
 .debug_ranges  0x0000000000000000       0x60 obj/Debug/main.o
 .debug_ranges  0x0000000000000060       0x28 obj/Debug/DEV_Config.o
 .debug_ranges  0x0000000000000088      0x2c8 obj/Debug/bcm2835.o
 .debug_ranges  0x0000000000000350      0xa28 obj/Debug/pigpio.o
 .debug_ranges  0x0000000000000d78       0x38 obj/Debug/command.o
 .debug_ranges  0x0000000000000db0       0x20 obj/Debug/commonUnit.o
 .debug_ranges  0x0000000000000dd0       0x50 obj/Debug/Executive/modulSPI.o
 .debug_ranges  0x0000000000000e20       0x18 obj/Debug/Executive/nativePWM.o
 .debug_ranges  0x0000000000000e38       0x40 obj/Debug/Executive/additionalMeasurements.o
 .debug_ranges  0x0000000000000e78       0x50 obj/Debug/Keyboard_Indicator/Keypad.o
 .debug_ranges  0x0000000000000ec8      0x110 obj/Debug/i2c_lcd/i2c_lcd.o
 .debug_ranges  0x0000000000000fd8       0x78 obj/Debug/i2c_lcd/lcd.o
 .debug_ranges  0x0000000000001050       0x48 obj/Debug/ADC/ADC_Unit.o
 .debug_ranges  0x0000000000001098       0x80 obj/Debug/ADC/ADS1256.o
 .debug_ranges  0x0000000000001118       0x20 obj/Debug/ThermoControlLibrary/Interpolations.o
 .debug_ranges  0x0000000000001138       0x50 obj/Debug/ThermoControlLibrary/PIDCalculs.o
 .debug_ranges  0x0000000000001188       0x50 obj/Debug/UART/uart.o
 .debug_ranges  0x00000000000011d8       0x28 obj/Debug/diskIO.o

.debug_macro
 *(.debug_macro)

.debug_addr
 *(.debug_addr)

.gnu.attributes
 *(.gnu.attributes)

.note.gnu.arm.ident
 *(.note.gnu.arm.ident)

/DISCARD/
 *(.note.GNU-stack)
 *(.gnu_debuglink)
 *(.gnu.lto_*)
OUTPUT(bin/Debug/K45 elf32-littlearm)
LOAD linker stubs

Cross Reference Table

Symbol                                            File
ADC_Calibration                                   obj/Debug/ADC/ADC_Unit.o
                                                  obj/Debug/main.o
ADC_Init                                          obj/Debug/ADC/ADC_Unit.o
                                                  obj/Debug/main.o
ADC_Thread                                        obj/Debug/main.o
ADC_needed_flag                                   obj/Debug/main.o
ADC_ready_flag                                    obj/Debug/main.o
ADC_service                                       obj/Debug/ADC/ADC_Unit.o
                                                  obj/Debug/UART/uart.o
                                                  obj/Debug/Keyboard_Indicator/Keypad.o
ADC_start_cv                                      obj/Debug/main.o
ADC_stop_cv                                       obj/Debug/main.o
ADC_thread_flag_mutex                             obj/Debug/main.o
ADS1256_Cal                                       obj/Debug/ADC/ADS1256.o
                                                  obj/Debug/ADC/ADC_Unit.o
ADS1256_ConfigADC                                 obj/Debug/ADC/ADS1256.o
ADS1256_GetAll                                    obj/Debug/ADC/ADS1256.o
ADS1256_GetChannalValue                           obj/Debug/ADC/ADS1256.o
                                                  obj/Debug/ADC/ADC_Unit.o
ADS1256_ReadChipID                                obj/Debug/ADC/ADS1256.o
ADS1256_SetDiffChannal                            obj/Debug/ADC/ADS1256.o
ADS1256_SetMode                                   obj/Debug/ADC/ADS1256.o
ADS1256_init                                      obj/Debug/ADC/ADS1256.o
                                                  obj/Debug/ADC/ADC_Unit.o
AutoSettingTemperature                            obj/Debug/ThermoControlLibrary/PIDCalculs.o
                                                  obj/Debug/main.o
ByteSReceived                                     obj/Debug/UART/uart.o
CalculRegulator                                   obj/Debug/ThermoControlLibrary/PIDCalculs.o
                                                  obj/Debug/main.o
ControlDiodeCheck                                 obj/Debug/Executive/additionalMeasurements.o
ControlDiodeVoltage                               obj/Debug/globalvardefs.o
ControlVoltagesCheck                              obj/Debug/Executive/additionalMeasurements.o
                                                  obj/Debug/main.o
CoolerCheck                                       obj/Debug/Executive/additionalMeasurements.o
CoolerVoltage                                     obj/Debug/globalvardefs.o
DEV_ModuleExit                                    obj/Debug/DEV_Config.o
                                                  obj/Debug/ADC/ADC_Unit.o
DEV_ModuleInit                                    obj/Debug/DEV_Config.o
                                                  obj/Debug/main.o
DataProcess                                       obj/Debug/UART/uart.o
FrequencyMeasurement                              obj/Debug/Executive/additionalMeasurements.o
                                                  obj/Debug/main.o
GLIBC_2.10                                        c:\sysgcc\raspberry\bin\../arm-linux-gnueabihf/sysroot/lib/arm-linux-gnueabihf/libc.so.6
GLIBC_2.11                                        c:/sysgcc/raspberry/bin/../arm-linux-gnueabihf/sysroot/lib/arm-linux-gnueabihf/libpthread.so
                                                  c:\sysgcc\raspberry\bin\../arm-linux-gnueabihf/sysroot/lib/arm-linux-gnueabihf/libc.so.6
GLIBC_2.12                                        c:/sysgcc/raspberry/bin/../arm-linux-gnueabihf/sysroot/lib/arm-linux-gnueabihf/libpthread.so
                                                  c:\sysgcc\raspberry\bin\../arm-linux-gnueabihf/sysroot/lib/arm-linux-gnueabihf/libc.so.6
GLIBC_2.13                                        c:\sysgcc\raspberry\bin\../arm-linux-gnueabihf/sysroot/lib/arm-linux-gnueabihf/libc.so.6
GLIBC_2.14                                        c:\sysgcc\raspberry\bin\../arm-linux-gnueabihf/sysroot/lib/arm-linux-gnueabihf/libc.so.6
GLIBC_2.15                                        c:\sysgcc\raspberry\bin\../arm-linux-gnueabihf/sysroot/lib/arm-linux-gnueabihf/libc.so.6
GLIBC_2.16                                        c:\sysgcc\raspberry\bin\../arm-linux-gnueabihf/sysroot/lib/arm-linux-gnueabihf/libc.so.6
GLIBC_2.17                                        c:\sysgcc\raspberry\bin\../arm-linux-gnueabihf/sysroot/lib/arm-linux-gnueabihf/libc.so.6
GLIBC_2.18                                        c:/sysgcc/raspberry/bin/../arm-linux-gnueabihf/sysroot/lib/arm-linux-gnueabihf/libpthread.so
                                                  c:\sysgcc\raspberry\bin\../arm-linux-gnueabihf/sysroot/lib/arm-linux-gnueabihf/libc.so.6
GLIBC_2.22                                        c:\sysgcc\raspberry\bin\../arm-linux-gnueabihf/sysroot/lib/arm-linux-gnueabihf/libc.so.6
GLIBC_2.23                                        c:\sysgcc\raspberry\bin\../arm-linux-gnueabihf/sysroot/lib/arm-linux-gnueabihf/libc.so.6
GLIBC_2.24                                        c:\sysgcc\raspberry\bin\../arm-linux-gnueabihf/sysroot/lib/arm-linux-gnueabihf/libc.so.6
GLIBC_2.25                                        c:\sysgcc\raspberry\bin\../arm-linux-gnueabihf/sysroot/lib/arm-linux-gnueabihf/libc.so.6
GLIBC_2.26                                        c:\sysgcc\raspberry\bin\../arm-linux-gnueabihf/sysroot/lib/arm-linux-gnueabihf/libc.so.6
GLIBC_2.27                                        c:\sysgcc\raspberry\bin\../arm-linux-gnueabihf/sysroot/lib/arm-linux-gnueabihf/libc.so.6
GLIBC_2.28                                        c:/sysgcc/raspberry/bin/../arm-linux-gnueabihf/sysroot/lib/arm-linux-gnueabihf/libpthread.so
                                                  c:\sysgcc\raspberry\bin\../arm-linux-gnueabihf/sysroot/lib/arm-linux-gnueabihf/libc.so.6
GLIBC_2.29                                        c:\sysgcc\raspberry\bin\../arm-linux-gnueabihf/sysroot/lib/arm-linux-gnueabihf/libc.so.6
GLIBC_2.30                                        c:/sysgcc/raspberry/bin/../arm-linux-gnueabihf/sysroot/lib/arm-linux-gnueabihf/libpthread.so
                                                  c:\sysgcc\raspberry\bin\../arm-linux-gnueabihf/sysroot/lib/arm-linux-gnueabihf/libc.so.6
GLIBC_2.31                                        c:/sysgcc/raspberry/bin/../arm-linux-gnueabihf/sysroot/lib/arm-linux-gnueabihf/libpthread.so
GLIBC_2.4                                         c:/sysgcc/raspberry/bin/../arm-linux-gnueabihf/sysroot/lib/arm-linux-gnueabihf/libpthread.so
                                                  c:\sysgcc\raspberry\bin\../arm-linux-gnueabihf/sysroot/lib/ld-linux-armhf.so.3
                                                  c:\sysgcc\raspberry\bin\../arm-linux-gnueabihf/sysroot/lib/arm-linux-gnueabihf/libc.so.6
GLIBC_2.5                                         c:\sysgcc\raspberry\bin\../arm-linux-gnueabihf/sysroot/lib/arm-linux-gnueabihf/libc.so.6
GLIBC_2.6                                         c:\sysgcc\raspberry\bin\../arm-linux-gnueabihf/sysroot/lib/arm-linux-gnueabihf/libc.so.6
GLIBC_2.7                                         c:\sysgcc\raspberry\bin\../arm-linux-gnueabihf/sysroot/lib/arm-linux-gnueabihf/libc.so.6
GLIBC_2.8                                         c:\sysgcc\raspberry\bin\../arm-linux-gnueabihf/sysroot/lib/arm-linux-gnueabihf/libc.so.6
GLIBC_2.9                                         c:\sysgcc\raspberry\bin\../arm-linux-gnueabihf/sysroot/lib/arm-linux-gnueabihf/libc.so.6
GLIBC_PRIVATE                                     c:/sysgcc/raspberry/bin/../arm-linux-gnueabihf/sysroot/lib/arm-linux-gnueabihf/libpthread.so
                                                  c:\sysgcc\raspberry\bin\../arm-linux-gnueabihf/sysroot/lib/ld-linux-armhf.so.3
                                                  c:\sysgcc\raspberry\bin\../arm-linux-gnueabihf/sysroot/lib/arm-linux-gnueabihf/libc.so.6
GetADCData                                        obj/Debug/ADC/ADC_Unit.o
GetCommand                                        obj/Debug/Keyboard_Indicator/Keypad.o
GetCoolerSetpoint                                 obj/Debug/ThermoControlLibrary/PIDCalculs.o
                                                  obj/Debug/Executive/modulSPI.o
GetHeaterSetpoint                                 obj/Debug/ThermoControlLibrary/PIDCalculs.o
                                                  obj/Debug/Executive/modulSPI.o
GetNextChar                                       obj/Debug/UART/uart.o
GetStringOfEnterMode                              obj/Debug/i2c_lcd/lcd.o
GetStringOfVariable                               obj/Debug/i2c_lcd/lcd.o
                                                  obj/Debug/Keyboard_Indicator/Keypad.o
GoodbyeShow                                       obj/Debug/i2c_lcd/lcd.o
Handler                                           obj/Debug/DEV_Config.o
HeaterCheck                                       obj/Debug/Executive/additionalMeasurements.o
HeaterVoltage                                     obj/Debug/globalvardefs.o
HelloShow                                         obj/Debug/i2c_lcd/lcd.o
                                                  obj/Debug/main.o
ImpulsCounter                                     obj/Debug/Executive/additionalMeasurements.o
Ind_GPIOConfig                                    obj/Debug/Executive/SPI1.o
Inits                                             obj/Debug/main.o
Interface                                         obj/Debug/main.o
Interface_Process                                 obj/Debug/main.o
K45GlobalInit                                     obj/Debug/main.o
K45_Exit                                          obj/Debug/i2c_lcd/lcd.o
                                                  obj/Debug/UART/uart.o
                                                  obj/Debug/ADC/ADC_Unit.o
                                                  obj/Debug/Keyboard_Indicator/Keypad.o
                                                  obj/Debug/DEV_Config.o
Kdif                                              obj/Debug/ThermoControlLibrary/PIDCalculs.o
KeyboardProcess                                   obj/Debug/Keyboard_Indicator/Keypad.o
                                                  obj/Debug/main.o
Keypad_Thread                                     obj/Debug/main.o
Keypad_service                                    obj/Debug/main.o
Kintegr                                           obj/Debug/ThermoControlLibrary/PIDCalculs.o
Kprop                                             obj/Debug/ThermoControlLibrary/PIDCalculs.o
LCDI2C_autoscroll                                 obj/Debug/i2c_lcd/i2c_lcd.o
LCDI2C_backlight                                  obj/Debug/i2c_lcd/i2c_lcd.o
                                                  obj/Debug/main.o
LCDI2C_begin                                      obj/Debug/i2c_lcd/i2c_lcd.o
LCDI2C_blink                                      obj/Debug/i2c_lcd/i2c_lcd.o
LCDI2C_blink_off                                  obj/Debug/i2c_lcd/i2c_lcd.o
                                                  obj/Debug/i2c_lcd/lcd.o
LCDI2C_blink_on                                   obj/Debug/i2c_lcd/i2c_lcd.o
                                                  obj/Debug/i2c_lcd/lcd.o
LCDI2C_clear                                      obj/Debug/i2c_lcd/i2c_lcd.o
                                                  obj/Debug/i2c_lcd/lcd.o
LCDI2C_command                                    obj/Debug/i2c_lcd/i2c_lcd.o
LCDI2C_createChar                                 obj/Debug/i2c_lcd/i2c_lcd.o
LCDI2C_cursor                                     obj/Debug/i2c_lcd/i2c_lcd.o
LCDI2C_cursor_off                                 obj/Debug/i2c_lcd/i2c_lcd.o
LCDI2C_cursor_on                                  obj/Debug/i2c_lcd/i2c_lcd.o
LCDI2C_display                                    obj/Debug/i2c_lcd/i2c_lcd.o
LCDI2C_expanderWrite                              obj/Debug/i2c_lcd/i2c_lcd.o
LCDI2C_home                                       obj/Debug/i2c_lcd/i2c_lcd.o
LCDI2C_init                                       obj/Debug/i2c_lcd/i2c_lcd.o
                                                  obj/Debug/i2c_lcd/lcd.o
LCDI2C_leftToRight                                obj/Debug/i2c_lcd/i2c_lcd.o
LCDI2C_load_custom_character                      obj/Debug/i2c_lcd/i2c_lcd.o
LCDI2C_noAutoscroll                               obj/Debug/i2c_lcd/i2c_lcd.o
LCDI2C_noBacklight                                obj/Debug/i2c_lcd/i2c_lcd.o
LCDI2C_noBlink                                    obj/Debug/i2c_lcd/i2c_lcd.o
LCDI2C_noCursor                                   obj/Debug/i2c_lcd/i2c_lcd.o
LCDI2C_noDisplay                                  obj/Debug/i2c_lcd/i2c_lcd.o
LCDI2C_pulseEnable                                obj/Debug/i2c_lcd/i2c_lcd.o
LCDI2C_rightToLeft                                obj/Debug/i2c_lcd/i2c_lcd.o
LCDI2C_scrollDisplayLeft                          obj/Debug/i2c_lcd/i2c_lcd.o
LCDI2C_scrollDisplayRight                         obj/Debug/i2c_lcd/i2c_lcd.o
LCDI2C_send                                       obj/Debug/i2c_lcd/i2c_lcd.o
LCDI2C_setBacklight                               obj/Debug/i2c_lcd/i2c_lcd.o
LCDI2C_setCursor                                  obj/Debug/i2c_lcd/i2c_lcd.o
                                                  obj/Debug/i2c_lcd/lcd.o
LCDI2C_write                                      obj/Debug/i2c_lcd/i2c_lcd.o
LCDI2C_write4bits                                 obj/Debug/i2c_lcd/i2c_lcd.o
LCDI2C_write_String                               obj/Debug/i2c_lcd/i2c_lcd.o
                                                  obj/Debug/i2c_lcd/lcd.o
LimitPWM                                          obj/Debug/Executive/modulSPI.o
Measurements                                      obj/Debug/main.o
Module_GPIOConfig                                 obj/Debug/Executive/modulSPI.o
PWMConfs                                          obj/Debug/Executive/nativePWM.o
PWM_init                                          obj/Debug/Executive/nativePWM.o
                                                  obj/Debug/main.o
PWM_set                                           obj/Debug/Executive/nativePWM.o
                                                  obj/Debug/Executive/modulSPI.o
PerceiveInputCommand                              obj/Debug/Keyboard_Indicator/Keypad.o
PerceiveInputValue                                obj/Debug/Keyboard_Indicator/Keypad.o
PigpioInit                                        obj/Debug/Executive/additionalMeasurements.o
                                                  obj/Debug/main.o
PossibleInput                                     obj/Debug/Keyboard_Indicator/Keypad.o
PowerEquipment                                    obj/Debug/main.o
PowerEquipment_service                            obj/Debug/main.o
ProcessCommand                                    obj/Debug/Keyboard_Indicator/Keypad.o
ProcessReceived                                   obj/Debug/Executive/modulSPI.o
RecBuf                                            obj/Debug/Executive/modulSPI.o
Rx_CheckSumCalcul                                 obj/Debug/Executive/modulSPI.o
ScanMode                                          obj/Debug/ADC/ADS1256.o
SensorName                                        obj/Debug/globalvardefs.o
                                                  obj/Debug/diskIO.o
                                                  obj/Debug/i2c_lcd/lcd.o
ServiceMeasurements                               obj/Debug/main.o
ServiceMeasurements_Process                       obj/Debug/main.o
SetThreadPriority                                 obj/Debug/main.o
ShowErrorExecutivePlate                           obj/Debug/i2c_lcd/lcd.o
ShowScanOrSetMode                                 obj/Debug/i2c_lcd/lcd.o
ShowSensor                                        obj/Debug/i2c_lcd/lcd.o
                                                  obj/Debug/UART/uart.o
                                                  obj/Debug/Keyboard_Indicator/Keypad.o
ShowVariable                                      obj/Debug/i2c_lcd/lcd.o
TableLineInterpolation                            obj/Debug/ThermoControlLibrary/Interpolations.o
TemperatureRegulator                              obj/Debug/main.o
TemperatureRegulator_service                      obj/Debug/main.o
TransmBuf                                         obj/Debug/Executive/modulSPI.o
Tx_CheckSumCalcul                                 obj/Debug/Executive/modulSPI.o
UARTCommThread                                    obj/Debug/main.o
UARTCommThread_service                            obj/Debug/main.o
VarForIndication                                  obj/Debug/Keyboard_Indicator/Indicator_Variables.o
                                                  obj/Debug/UART/uart.o
                                                  obj/Debug/i2c_lcd/lcd.o
                                                  obj/Debug/Keyboard_Indicator/Keypad.o
WriteFullString                                   obj/Debug/i2c_lcd/lcd.o
_DYNAMIC                                          c:/sysgcc/raspberry/bin/../arm-linux-gnueabihf/sysroot/lib/arm-linux-gnueabihf/crt1.o
_Exit                                             c:\sysgcc\raspberry\bin\../arm-linux-gnueabihf/sysroot/lib/arm-linux-gnueabihf/libc.so.6
_Exit@@GLIBC_2.4                                  c:\sysgcc\raspberry\bin\../arm-linux-gnueabihf/sysroot/lib/arm-linux-gnueabihf/libc.so.6
_Exit@GLIBC_2.4                                   c:\sysgcc\raspberry\bin\../arm-linux-gnueabihf/sysroot/lib/arm-linux-gnueabihf/libc.so.6
_GLOBAL_OFFSET_TABLE_                             c:/sysgcc/raspberry/bin/../arm-linux-gnueabihf/sysroot/lib/arm-linux-gnueabihf/crt1.o
                                                  c:/sysgcc/raspberry/bin/../arm-linux-gnueabihf/sysroot/lib/arm-linux-gnueabihf/crti.o
_IO_fprintf                                       c:\sysgcc\raspberry\bin\../arm-linux-gnueabihf/sysroot/lib/arm-linux-gnueabihf/libc.so.6
_IO_fprintf@@GLIBC_2.4                            c:\sysgcc\raspberry\bin\../arm-linux-gnueabihf/sysroot/lib/arm-linux-gnueabihf/libc.so.6
_IO_fprintf@GLIBC_2.4                             c:\sysgcc\raspberry\bin\../arm-linux-gnueabihf/sysroot/lib/arm-linux-gnueabihf/libc.so.6
_IO_stdin_used                                    c:/sysgcc/raspberry/bin/../arm-linux-gnueabihf/sysroot/lib/arm-linux-gnueabihf/crt1.o
_ITM_deregisterTMCloneTable                       c:/sysgcc/raspberry/bin/../arm-linux-gnueabihf/sysroot/lib/arm-linux-gnueabihf/libpthread.so
                                                  c:/sysgcc/raspberry/bin/../lib/gcc/arm-linux-gnueabihf/10/../../../../arm-linux-gnueabihf/lib/crtbegin.o
_ITM_registerTMCloneTable                         c:/sysgcc/raspberry/bin/../arm-linux-gnueabihf/sysroot/lib/arm-linux-gnueabihf/libpthread.so
                                                  c:/sysgcc/raspberry/bin/../lib/gcc/arm-linux-gnueabihf/10/../../../../arm-linux-gnueabihf/lib/crtbegin.o
__TMC_END__                                       c:/sysgcc/raspberry/bin/../lib/gcc/arm-linux-gnueabihf/10/../../../../arm-linux-gnueabihf/lib/crtend.o
                                                  c:/sysgcc/raspberry/bin/../lib/gcc/arm-linux-gnueabihf/10/../../../../arm-linux-gnueabihf/lib/crtbegin.o
__aeabi_idiv                                      C:/SysGCC/raspberry/arm-linux-gnueabihf/lib\libgcc.a(_divsi3.o)
                                                  obj/Debug/pigpio.o
__aeabi_idiv0                                     C:/SysGCC/raspberry/arm-linux-gnueabihf/lib\libgcc.a(_dvmd_lnx.o)
                                                  C:/SysGCC/raspberry/arm-linux-gnueabihf/lib\libgcc.a(_divsi3.o)
                                                  C:/SysGCC/raspberry/arm-linux-gnueabihf/lib\libgcc.a(_udivsi3.o)
__aeabi_idivmod                                   C:/SysGCC/raspberry/arm-linux-gnueabihf/lib\libgcc.a(_divsi3.o)
                                                  obj/Debug/pigpio.o
__aeabi_ldiv0                                     C:/SysGCC/raspberry/arm-linux-gnueabihf/lib\libgcc.a(_dvmd_lnx.o)
                                                  C:/SysGCC/raspberry/arm-linux-gnueabihf/lib\libgcc.a(_aeabi_uldivmod.o)
                                                  C:/SysGCC/raspberry/arm-linux-gnueabihf/lib\libgcc.a(_aeabi_ldivmod.o)
__aeabi_ldivmod                                   C:/SysGCC/raspberry/arm-linux-gnueabihf/lib\libgcc.a(_aeabi_ldivmod.o)
                                                  obj/Debug/ThermoControlLibrary/PIDCalculs.o
__aeabi_uidiv                                     C:/SysGCC/raspberry/arm-linux-gnueabihf/lib\libgcc.a(_udivsi3.o)
                                                  obj/Debug/ThermoControlLibrary/Interpolations.o
                                                  obj/Debug/Executive/additionalMeasurements.o
                                                  obj/Debug/pigpio.o
                                                  obj/Debug/bcm2835.o
__aeabi_uidivmod                                  C:/SysGCC/raspberry/arm-linux-gnueabihf/lib\libgcc.a(_udivsi3.o)
                                                  obj/Debug/pigpio.o
__aeabi_uldivmod                                  C:/SysGCC/raspberry/arm-linux-gnueabihf/lib\libgcc.a(_aeabi_uldivmod.o)
                                                  obj/Debug/ADC/ADC_Unit.o
                                                  obj/Debug/Executive/additionalMeasurements.o
                                                  obj/Debug/commonUnit.o
                                                  obj/Debug/pigpio.o
__after_morecore_hook                             c:\sysgcc\raspberry\bin\../arm-linux-gnueabihf/sysroot/lib/arm-linux-gnueabihf/libc.so.6
__after_morecore_hook@@GLIBC_2.4                  c:\sysgcc\raspberry\bin\../arm-linux-gnueabihf/sysroot/lib/arm-linux-gnueabihf/libc.so.6
__after_morecore_hook@GLIBC_2.4                   c:\sysgcc\raspberry\bin\../arm-linux-gnueabihf/sysroot/lib/arm-linux-gnueabihf/libc.so.6
__compat_create_module                            c:\sysgcc\raspberry\bin\../arm-linux-gnueabihf/sysroot/lib/arm-linux-gnueabihf/libc.so.6
__compat_get_kernel_syms                          c:\sysgcc\raspberry\bin\../arm-linux-gnueabihf/sysroot/lib/arm-linux-gnueabihf/libc.so.6
__compat_query_module                             c:\sysgcc\raspberry\bin\../arm-linux-gnueabihf/sysroot/lib/arm-linux-gnueabihf/libc.so.6
__connect                                         c:/sysgcc/raspberry/bin/../arm-linux-gnueabihf/sysroot/lib/arm-linux-gnueabihf/libpthread.so
__connect@@GLIBC_2.4                              c:/sysgcc/raspberry/bin/../arm-linux-gnueabihf/sysroot/lib/arm-linux-gnueabihf/libpthread.so
                                                  c:\sysgcc\raspberry\bin\../arm-linux-gnueabihf/sysroot/lib/arm-linux-gnueabihf/libc.so.6
__connect@GLIBC_2.4                               c:/sysgcc/raspberry/bin/../arm-linux-gnueabihf/sysroot/lib/arm-linux-gnueabihf/libpthread.so
__ctype_b_loc                                     c:\sysgcc\raspberry\bin\../arm-linux-gnueabihf/sysroot/lib/arm-linux-gnueabihf/libc.so.6
                                                  obj/Debug/diskIO.o
                                                  obj/Debug/pigpio.o
__ctype_b_loc@@GLIBC_2.4                          c:\sysgcc\raspberry\bin\../arm-linux-gnueabihf/sysroot/lib/arm-linux-gnueabihf/libc.so.6
__ctype_b_loc@GLIBC_2.4                           c:\sysgcc\raspberry\bin\../arm-linux-gnueabihf/sysroot/lib/arm-linux-gnueabihf/libc.so.6
__ctype_get_mb_cur_max                            c:\sysgcc\raspberry\bin\../arm-linux-gnueabihf/sysroot/lib/arm-linux-gnueabihf/libc.so.6
__ctype_get_mb_cur_max@@GLIBC_2.4                 c:\sysgcc\raspberry\bin\../arm-linux-gnueabihf/sysroot/lib/arm-linux-gnueabihf/libc.so.6
__ctype_get_mb_cur_max@GLIBC_2.4                  c:\sysgcc\raspberry\bin\../arm-linux-gnueabihf/sysroot/lib/arm-linux-gnueabihf/libc.so.6
__cxa_atexit                                      c:\sysgcc\raspberry\bin\../arm-linux-gnueabihf/sysroot/lib/arm-linux-gnueabihf/libc.so.6
                                                  c:\sysgcc\raspberry\bin\../arm-linux-gnueabihf/sysroot/usr/lib/arm-linux-gnueabihf/libc_nonshared.a(atexit.oS)
__cxa_atexit@@GLIBC_2.4                           c:\sysgcc\raspberry\bin\../arm-linux-gnueabihf/sysroot/lib/arm-linux-gnueabihf/libc.so.6
__cxa_atexit@GLIBC_2.4                            c:\sysgcc\raspberry\bin\../arm-linux-gnueabihf/sysroot/lib/arm-linux-gnueabihf/libc.so.6
__data_start                                      c:/sysgcc/raspberry/bin/../arm-linux-gnueabihf/sysroot/lib/arm-linux-gnueabihf/crt1.o
__divsi3                                          C:/SysGCC/raspberry/arm-linux-gnueabihf/lib\libgcc.a(_divsi3.o)
__dso_handle                                      c:/sysgcc/raspberry/bin/../lib/gcc/arm-linux-gnueabihf/10/../../../../arm-linux-gnueabihf/lib/crtbegin.o
                                                  c:\sysgcc\raspberry\bin\../arm-linux-gnueabihf/sysroot/usr/lib/arm-linux-gnueabihf/libc_nonshared.a(atexit.oS)
__errno_location                                  c:/sysgcc/raspberry/bin/../arm-linux-gnueabihf/sysroot/lib/arm-linux-gnueabihf/libpthread.so
                                                  obj/Debug/pigpio.o
                                                  obj/Debug/bcm2835.o
__errno_location@@GLIBC_2.4                       c:/sysgcc/raspberry/bin/../arm-linux-gnueabihf/sysroot/lib/arm-linux-gnueabihf/libpthread.so
                                                  c:\sysgcc\raspberry\bin\../arm-linux-gnueabihf/sysroot/lib/arm-linux-gnueabihf/libc.so.6
__errno_location@GLIBC_2.4                        c:/sysgcc/raspberry/bin/../arm-linux-gnueabihf/sysroot/lib/arm-linux-gnueabihf/libpthread.so
__fcntl                                           c:\sysgcc\raspberry\bin\../arm-linux-gnueabihf/sysroot/lib/arm-linux-gnueabihf/libc.so.6
__fcntl@@GLIBC_2.4                                c:\sysgcc\raspberry\bin\../arm-linux-gnueabihf/sysroot/lib/arm-linux-gnueabihf/libc.so.6
__fcntl@GLIBC_2.4                                 c:/sysgcc/raspberry/bin/../arm-linux-gnueabihf/sysroot/lib/arm-linux-gnueabihf/libpthread.so
__free_hook                                       c:\sysgcc\raspberry\bin\../arm-linux-gnueabihf/sysroot/lib/arm-linux-gnueabihf/libc.so.6
__free_hook@@GLIBC_2.4                            c:\sysgcc\raspberry\bin\../arm-linux-gnueabihf/sysroot/lib/arm-linux-gnueabihf/libc.so.6
__free_hook@GLIBC_2.4                             c:\sysgcc\raspberry\bin\../arm-linux-gnueabihf/sysroot/lib/arm-linux-gnueabihf/libc.so.6
__getdelim                                        c:\sysgcc\raspberry\bin\../arm-linux-gnueabihf/sysroot/lib/arm-linux-gnueabihf/libc.so.6
__getdelim@@GLIBC_2.4                             c:\sysgcc\raspberry\bin\../arm-linux-gnueabihf/sysroot/lib/arm-linux-gnueabihf/libc.so.6
__getdelim@GLIBC_2.4                              c:\sysgcc\raspberry\bin\../arm-linux-gnueabihf/sysroot/lib/arm-linux-gnueabihf/libc.so.6
                                                  c:/sysgcc/raspberry/bin/../arm-linux-gnueabihf/sysroot/lib/arm-linux-gnueabihf/libpthread.so
__getrlimit                                       c:\sysgcc\raspberry\bin\../arm-linux-gnueabihf/sysroot/lib/arm-linux-gnueabihf/libc.so.6
__getrlimit@@GLIBC_PRIVATE                        c:\sysgcc\raspberry\bin\../arm-linux-gnueabihf/sysroot/lib/arm-linux-gnueabihf/libc.so.6
__getrlimit@GLIBC_PRIVATE                         c:\sysgcc\raspberry\bin\../arm-linux-gnueabihf/sysroot/lib/arm-linux-gnueabihf/libc.so.6
                                                  c:/sysgcc/raspberry/bin/../arm-linux-gnueabihf/sysroot/lib/arm-linux-gnueabihf/libpthread.so
__gmon_start__                                    c:/sysgcc/raspberry/bin/../arm-linux-gnueabihf/sysroot/lib/arm-linux-gnueabihf/crti.o
__init_array_end                                  c:\sysgcc\raspberry\bin\../arm-linux-gnueabihf/sysroot/usr/lib/arm-linux-gnueabihf/libc_nonshared.a(elf-init.oS)
__init_array_start                                c:\sysgcc\raspberry\bin\../arm-linux-gnueabihf/sysroot/usr/lib/arm-linux-gnueabihf/libc_nonshared.a(elf-init.oS)
__isascii_l                                       c:\sysgcc\raspberry\bin\../arm-linux-gnueabihf/sysroot/lib/arm-linux-gnueabihf/libc.so.6
__isascii_l@@GLIBC_2.4                            c:\sysgcc\raspberry\bin\../arm-linux-gnueabihf/sysroot/lib/arm-linux-gnueabihf/libc.so.6
__isascii_l@GLIBC_2.4                             c:\sysgcc\raspberry\bin\../arm-linux-gnueabihf/sysroot/lib/arm-linux-gnueabihf/libc.so.6
__isoc99_fscanf                                   c:\sysgcc\raspberry\bin\../arm-linux-gnueabihf/sysroot/lib/arm-linux-gnueabihf/libc.so.6
                                                  obj/Debug/diskIO.o
__isoc99_fscanf@@GLIBC_2.7                        c:\sysgcc\raspberry\bin\../arm-linux-gnueabihf/sysroot/lib/arm-linux-gnueabihf/libc.so.6
__isoc99_fscanf@GLIBC_2.7                         c:\sysgcc\raspberry\bin\../arm-linux-gnueabihf/sysroot/lib/arm-linux-gnueabihf/libc.so.6
__isoc99_sscanf                                   c:\sysgcc\raspberry\bin\../arm-linux-gnueabihf/sysroot/lib/arm-linux-gnueabihf/libc.so.6
                                                  obj/Debug/command.o
                                                  obj/Debug/pigpio.o
__isoc99_sscanf@@GLIBC_2.7                        c:\sysgcc\raspberry\bin\../arm-linux-gnueabihf/sysroot/lib/arm-linux-gnueabihf/libc.so.6
__isoc99_sscanf@GLIBC_2.7                         c:\sysgcc\raspberry\bin\../arm-linux-gnueabihf/sysroot/lib/arm-linux-gnueabihf/libc.so.6
                                                  c:/sysgcc/raspberry/bin/../arm-linux-gnueabihf/sysroot/lib/arm-linux-gnueabihf/libpthread.so
__libc_csu_fini                                   c:\sysgcc\raspberry\bin\../arm-linux-gnueabihf/sysroot/usr/lib/arm-linux-gnueabihf/libc_nonshared.a(elf-init.oS)
                                                  c:/sysgcc/raspberry/bin/../arm-linux-gnueabihf/sysroot/lib/arm-linux-gnueabihf/crt1.o
__libc_csu_init                                   c:\sysgcc\raspberry\bin\../arm-linux-gnueabihf/sysroot/usr/lib/arm-linux-gnueabihf/libc_nonshared.a(elf-init.oS)
                                                  c:/sysgcc/raspberry/bin/../arm-linux-gnueabihf/sysroot/lib/arm-linux-gnueabihf/crt1.o
__libc_secure_getenv                              c:\sysgcc\raspberry\bin\../arm-linux-gnueabihf/sysroot/lib/arm-linux-gnueabihf/libc.so.6
__libc_secure_getenv@@GLIBC_PRIVATE               c:\sysgcc\raspberry\bin\../arm-linux-gnueabihf/sysroot/lib/arm-linux-gnueabihf/libc.so.6
__libc_secure_getenv@GLIBC_PRIVATE                c:\sysgcc\raspberry\bin\../arm-linux-gnueabihf/sysroot/lib/arm-linux-gnueabihf/libc.so.6
__libc_start_main                                 c:\sysgcc\raspberry\bin\../arm-linux-gnueabihf/sysroot/lib/arm-linux-gnueabihf/libc.so.6
                                                  c:/sysgcc/raspberry/bin/../arm-linux-gnueabihf/sysroot/lib/arm-linux-gnueabihf/crt1.o
__libc_start_main@@GLIBC_2.4                      c:\sysgcc\raspberry\bin\../arm-linux-gnueabihf/sysroot/lib/arm-linux-gnueabihf/libc.so.6
__libc_start_main@GLIBC_2.4                       c:\sysgcc\raspberry\bin\../arm-linux-gnueabihf/sysroot/lib/arm-linux-gnueabihf/libc.so.6
__libdl_freeres                                   c:\sysgcc\raspberry\bin\../arm-linux-gnueabihf/sysroot/lib/arm-linux-gnueabihf/libc.so.6
__malloc_hook                                     c:\sysgcc\raspberry\bin\../arm-linux-gnueabihf/sysroot/lib/arm-linux-gnueabihf/libc.so.6
__malloc_hook@@GLIBC_2.4                          c:\sysgcc\raspberry\bin\../arm-linux-gnueabihf/sysroot/lib/arm-linux-gnueabihf/libc.so.6
__malloc_hook@GLIBC_2.4                           c:\sysgcc\raspberry\bin\../arm-linux-gnueabihf/sysroot/lib/arm-linux-gnueabihf/libc.so.6
__malloc_initialize_hook@GLIBC_2.4                c:\sysgcc\raspberry\bin\../arm-linux-gnueabihf/sysroot/lib/arm-linux-gnueabihf/libc.so.6
__memalign_hook                                   c:\sysgcc\raspberry\bin\../arm-linux-gnueabihf/sysroot/lib/arm-linux-gnueabihf/libc.so.6
__memalign_hook@@GLIBC_2.4                        c:\sysgcc\raspberry\bin\../arm-linux-gnueabihf/sysroot/lib/arm-linux-gnueabihf/libc.so.6
__memalign_hook@GLIBC_2.4                         c:\sysgcc\raspberry\bin\../arm-linux-gnueabihf/sysroot/lib/arm-linux-gnueabihf/libc.so.6
__mknod                                           c:\sysgcc\raspberry\bin\../arm-linux-gnueabihf/sysroot/usr/lib/arm-linux-gnueabihf/libc_nonshared.a(mknod.oS)
__open                                            c:/sysgcc/raspberry/bin/../arm-linux-gnueabihf/sysroot/lib/arm-linux-gnueabihf/libpthread.so
__open@@GLIBC_2.4                                 c:/sysgcc/raspberry/bin/../arm-linux-gnueabihf/sysroot/lib/arm-linux-gnueabihf/libpthread.so
                                                  c:\sysgcc\raspberry\bin\../arm-linux-gnueabihf/sysroot/lib/arm-linux-gnueabihf/libc.so.6
__open@GLIBC_2.4                                  c:/sysgcc/raspberry/bin/../arm-linux-gnueabihf/sysroot/lib/arm-linux-gnueabihf/libpthread.so
__popcountsi2                                     C:/SysGCC/raspberry/arm-linux-gnueabihf/lib\libgcc.a(_popcountsi2.o)
                                                  obj/Debug/pigpio.o
__pread64                                         c:/sysgcc/raspberry/bin/../arm-linux-gnueabihf/sysroot/lib/arm-linux-gnueabihf/libpthread.so
__pread64@@GLIBC_2.4                              c:/sysgcc/raspberry/bin/../arm-linux-gnueabihf/sysroot/lib/arm-linux-gnueabihf/libpthread.so
                                                  c:\sysgcc\raspberry\bin\../arm-linux-gnueabihf/sysroot/lib/arm-linux-gnueabihf/libc.so.6
__pread64@GLIBC_2.4                               c:/sysgcc/raspberry/bin/../arm-linux-gnueabihf/sysroot/lib/arm-linux-gnueabihf/libpthread.so
__pthread_initialize_minimal                      c:/sysgcc/raspberry/bin/../arm-linux-gnueabihf/sysroot/lib/arm-linux-gnueabihf/libpthread.so
__pthread_initialize_minimal@@GLIBC_PRIVATE       c:/sysgcc/raspberry/bin/../arm-linux-gnueabihf/sysroot/lib/arm-linux-gnueabihf/libpthread.so
__pthread_initialize_minimal@GLIBC_PRIVATE        c:/sysgcc/raspberry/bin/../arm-linux-gnueabihf/sysroot/lib/arm-linux-gnueabihf/libpthread.so
__pwrite64                                        c:/sysgcc/raspberry/bin/../arm-linux-gnueabihf/sysroot/lib/arm-linux-gnueabihf/libpthread.so
__pwrite64@@GLIBC_2.4                             c:/sysgcc/raspberry/bin/../arm-linux-gnueabihf/sysroot/lib/arm-linux-gnueabihf/libpthread.so
                                                  c:\sysgcc\raspberry\bin\../arm-linux-gnueabihf/sysroot/lib/arm-linux-gnueabihf/libc.so.6
__pwrite64@GLIBC_2.4                              c:/sysgcc/raspberry/bin/../arm-linux-gnueabihf/sysroot/lib/arm-linux-gnueabihf/libpthread.so
__read                                            c:/sysgcc/raspberry/bin/../arm-linux-gnueabihf/sysroot/lib/arm-linux-gnueabihf/libpthread.so
__read@@GLIBC_2.4                                 c:/sysgcc/raspberry/bin/../arm-linux-gnueabihf/sysroot/lib/arm-linux-gnueabihf/libpthread.so
                                                  c:\sysgcc\raspberry\bin\../arm-linux-gnueabihf/sysroot/lib/arm-linux-gnueabihf/libc.so.6
__read@GLIBC_2.4                                  c:/sysgcc/raspberry/bin/../arm-linux-gnueabihf/sysroot/lib/arm-linux-gnueabihf/libpthread.so
__realloc_hook                                    c:\sysgcc\raspberry\bin\../arm-linux-gnueabihf/sysroot/lib/arm-linux-gnueabihf/libc.so.6
__realloc_hook@@GLIBC_2.4                         c:\sysgcc\raspberry\bin\../arm-linux-gnueabihf/sysroot/lib/arm-linux-gnueabihf/libc.so.6
__realloc_hook@GLIBC_2.4                          c:\sysgcc\raspberry\bin\../arm-linux-gnueabihf/sysroot/lib/arm-linux-gnueabihf/libc.so.6
__recv                                            c:\sysgcc\raspberry\bin\../arm-linux-gnueabihf/sysroot/lib/arm-linux-gnueabihf/libc.so.6
__recv@@GLIBC_PRIVATE                             c:\sysgcc\raspberry\bin\../arm-linux-gnueabihf/sysroot/lib/arm-linux-gnueabihf/libc.so.6
__recv@GLIBC_PRIVATE                              c:\sysgcc\raspberry\bin\../arm-linux-gnueabihf/sysroot/lib/arm-linux-gnueabihf/libc.so.6
__secure_getenv@GLIBC_2.4                         c:\sysgcc\raspberry\bin\../arm-linux-gnueabihf/sysroot/lib/arm-linux-gnueabihf/libc.so.6
__send                                            c:/sysgcc/raspberry/bin/../arm-linux-gnueabihf/sysroot/lib/arm-linux-gnueabihf/libpthread.so
__send@@GLIBC_2.4                                 c:/sysgcc/raspberry/bin/../arm-linux-gnueabihf/sysroot/lib/arm-linux-gnueabihf/libpthread.so
                                                  c:\sysgcc\raspberry\bin\../arm-linux-gnueabihf/sysroot/lib/arm-linux-gnueabihf/libc.so.6
__send@GLIBC_2.4                                  c:/sysgcc/raspberry/bin/../arm-linux-gnueabihf/sysroot/lib/arm-linux-gnueabihf/libpthread.so
__stat                                            c:\sysgcc\raspberry\bin\../arm-linux-gnueabihf/sysroot/usr/lib/arm-linux-gnueabihf/libc_nonshared.a(stat.oS)
__toascii_l                                       c:\sysgcc\raspberry\bin\../arm-linux-gnueabihf/sysroot/lib/arm-linux-gnueabihf/libc.so.6
__toascii_l@@GLIBC_2.4                            c:\sysgcc\raspberry\bin\../arm-linux-gnueabihf/sysroot/lib/arm-linux-gnueabihf/libc.so.6
__toascii_l@GLIBC_2.4                             c:\sysgcc\raspberry\bin\../arm-linux-gnueabihf/sysroot/lib/arm-linux-gnueabihf/libc.so.6
__udivmoddi4                                      C:/SysGCC/raspberry/arm-linux-gnueabihf/lib\libgcc.a(_udivmoddi4.o)
                                                  C:/SysGCC/raspberry/arm-linux-gnueabihf/lib\libgcc.a(_aeabi_uldivmod.o)
                                                  C:/SysGCC/raspberry/arm-linux-gnueabihf/lib\libgcc.a(_aeabi_ldivmod.o)
__udivsi3                                         C:/SysGCC/raspberry/arm-linux-gnueabihf/lib\libgcc.a(_udivsi3.o)
__vsnprintf                                       c:\sysgcc\raspberry\bin\../arm-linux-gnueabihf/sysroot/lib/arm-linux-gnueabihf/libc.so.6
__vsnprintf@@GLIBC_2.4                            c:\sysgcc\raspberry\bin\../arm-linux-gnueabihf/sysroot/lib/arm-linux-gnueabihf/libc.so.6
__vsnprintf@GLIBC_2.4                             c:\sysgcc\raspberry\bin\../arm-linux-gnueabihf/sysroot/lib/arm-linux-gnueabihf/libc.so.6
__vsscanf                                         c:\sysgcc\raspberry\bin\../arm-linux-gnueabihf/sysroot/lib/arm-linux-gnueabihf/libc.so.6
__vsscanf@@GLIBC_2.4                              c:\sysgcc\raspberry\bin\../arm-linux-gnueabihf/sysroot/lib/arm-linux-gnueabihf/libc.so.6
__vsscanf@GLIBC_2.4                               c:\sysgcc\raspberry\bin\../arm-linux-gnueabihf/sysroot/lib/arm-linux-gnueabihf/libc.so.6
__write                                           c:/sysgcc/raspberry/bin/../arm-linux-gnueabihf/sysroot/lib/arm-linux-gnueabihf/libpthread.so
__write@@GLIBC_2.4                                c:/sysgcc/raspberry/bin/../arm-linux-gnueabihf/sysroot/lib/arm-linux-gnueabihf/libpthread.so
                                                  c:\sysgcc\raspberry\bin\../arm-linux-gnueabihf/sysroot/lib/arm-linux-gnueabihf/libc.so.6
__write@GLIBC_2.4                                 c:/sysgcc/raspberry/bin/../arm-linux-gnueabihf/sysroot/lib/arm-linux-gnueabihf/libpthread.so
__xmknod                                          c:\sysgcc\raspberry\bin\../arm-linux-gnueabihf/sysroot/lib/arm-linux-gnueabihf/libc.so.6
                                                  c:\sysgcc\raspberry\bin\../arm-linux-gnueabihf/sysroot/usr/lib/arm-linux-gnueabihf/libc_nonshared.a(mknod.oS)
__xmknod@@GLIBC_2.4                               c:\sysgcc\raspberry\bin\../arm-linux-gnueabihf/sysroot/lib/arm-linux-gnueabihf/libc.so.6
__xmknod@GLIBC_2.4                                c:\sysgcc\raspberry\bin\../arm-linux-gnueabihf/sysroot/lib/arm-linux-gnueabihf/libc.so.6
__xpg_sigpause                                    c:\sysgcc\raspberry\bin\../arm-linux-gnueabihf/sysroot/lib/arm-linux-gnueabihf/libc.so.6
__xpg_sigpause@@GLIBC_2.4                         c:\sysgcc\raspberry\bin\../arm-linux-gnueabihf/sysroot/lib/arm-linux-gnueabihf/libc.so.6
__xpg_sigpause@GLIBC_2.4                          c:\sysgcc\raspberry\bin\../arm-linux-gnueabihf/sysroot/lib/arm-linux-gnueabihf/libc.so.6
__xstat                                           c:\sysgcc\raspberry\bin\../arm-linux-gnueabihf/sysroot/lib/arm-linux-gnueabihf/libc.so.6
                                                  c:\sysgcc\raspberry\bin\../arm-linux-gnueabihf/sysroot/usr/lib/arm-linux-gnueabihf/libc_nonshared.a(stat.oS)
__xstat@@GLIBC_2.4                                c:\sysgcc\raspberry\bin\../arm-linux-gnueabihf/sysroot/lib/arm-linux-gnueabihf/libc.so.6
__xstat@GLIBC_2.4                                 c:\sysgcc\raspberry\bin\../arm-linux-gnueabihf/sysroot/lib/arm-linux-gnueabihf/libc.so.6
_dl_starting_up                                   c:\sysgcc\raspberry\bin\../arm-linux-gnueabihf/sysroot/lib/arm-linux-gnueabihf/libc.so.6
_environ                                          c:\sysgcc\raspberry\bin\../arm-linux-gnueabihf/sysroot/lib/arm-linux-gnueabihf/libc.so.6
_environ@@GLIBC_2.4                               c:\sysgcc\raspberry\bin\../arm-linux-gnueabihf/sysroot/lib/arm-linux-gnueabihf/libc.so.6
_environ@GLIBC_2.4                                c:\sysgcc\raspberry\bin\../arm-linux-gnueabihf/sysroot/lib/arm-linux-gnueabihf/libc.so.6
_fini                                             c:/sysgcc/raspberry/bin/../arm-linux-gnueabihf/sysroot/lib/arm-linux-gnueabihf/crti.o
_flushlbf                                         c:\sysgcc\raspberry\bin\../arm-linux-gnueabihf/sysroot/lib/arm-linux-gnueabihf/libc.so.6
_flushlbf@@GLIBC_2.4                              c:\sysgcc\raspberry\bin\../arm-linux-gnueabihf/sysroot/lib/arm-linux-gnueabihf/libc.so.6
_flushlbf@GLIBC_2.4                               c:\sysgcc\raspberry\bin\../arm-linux-gnueabihf/sysroot/lib/arm-linux-gnueabihf/libc.so.6
_init                                             c:/sysgcc/raspberry/bin/../arm-linux-gnueabihf/sysroot/lib/arm-linux-gnueabihf/crti.o
                                                  c:\sysgcc\raspberry\bin\../arm-linux-gnueabihf/sysroot/usr/lib/arm-linux-gnueabihf/libc_nonshared.a(elf-init.oS)
_longjmp                                          c:\sysgcc\raspberry\bin\../arm-linux-gnueabihf/sysroot/lib/arm-linux-gnueabihf/libc.so.6
_longjmp@@GLIBC_2.4                               c:\sysgcc\raspberry\bin\../arm-linux-gnueabihf/sysroot/lib/arm-linux-gnueabihf/libc.so.6
_longjmp@GLIBC_2.4                                c:\sysgcc\raspberry\bin\../arm-linux-gnueabihf/sysroot/lib/arm-linux-gnueabihf/libc.so.6
_start                                            c:/sysgcc/raspberry/bin/../arm-linux-gnueabihf/sysroot/lib/arm-linux-gnueabihf/crt1.o
abort                                             c:\sysgcc\raspberry\bin\../arm-linux-gnueabihf/sysroot/lib/arm-linux-gnueabihf/libc.so.6
                                                  c:/sysgcc/raspberry/bin/../arm-linux-gnueabihf/sysroot/lib/arm-linux-gnueabihf/crt1.o
abort@@GLIBC_2.4                                  c:\sysgcc\raspberry\bin\../arm-linux-gnueabihf/sysroot/lib/arm-linux-gnueabihf/libc.so.6
abort@GLIBC_2.4                                   c:\sysgcc\raspberry\bin\../arm-linux-gnueabihf/sysroot/lib/arm-linux-gnueabihf/libc.so.6
                                                  c:/sysgcc/raspberry/bin/../arm-linux-gnueabihf/sysroot/lib/arm-linux-gnueabihf/libpthread.so
accept                                            c:/sysgcc/raspberry/bin/../arm-linux-gnueabihf/sysroot/lib/arm-linux-gnueabihf/libpthread.so
                                                  obj/Debug/pigpio.o
accept@@GLIBC_2.4                                 c:/sysgcc/raspberry/bin/../arm-linux-gnueabihf/sysroot/lib/arm-linux-gnueabihf/libpthread.so
                                                  c:\sysgcc\raspberry\bin\../arm-linux-gnueabihf/sysroot/lib/arm-linux-gnueabihf/libc.so.6
accept@GLIBC_2.4                                  c:/sysgcc/raspberry/bin/../arm-linux-gnueabihf/sysroot/lib/arm-linux-gnueabihf/libpthread.so
access                                            c:\sysgcc\raspberry\bin\../arm-linux-gnueabihf/sysroot/lib/arm-linux-gnueabihf/libc.so.6
access@@GLIBC_2.4                                 c:\sysgcc\raspberry\bin\../arm-linux-gnueabihf/sysroot/lib/arm-linux-gnueabihf/libc.so.6
access@GLIBC_2.4                                  c:\sysgcc\raspberry\bin\../arm-linux-gnueabihf/sysroot/lib/arm-linux-gnueabihf/libc.so.6
addmntent                                         c:\sysgcc\raspberry\bin\../arm-linux-gnueabihf/sysroot/lib/arm-linux-gnueabihf/libc.so.6
addmntent@@GLIBC_2.4                              c:\sysgcc\raspberry\bin\../arm-linux-gnueabihf/sysroot/lib/arm-linux-gnueabihf/libc.so.6
addmntent@GLIBC_2.4                               c:\sysgcc\raspberry\bin\../arm-linux-gnueabihf/sysroot/lib/arm-linux-gnueabihf/libc.so.6
addseverity                                       c:\sysgcc\raspberry\bin\../arm-linux-gnueabihf/sysroot/lib/arm-linux-gnueabihf/libc.so.6
addseverity@@GLIBC_2.4                            c:\sysgcc\raspberry\bin\../arm-linux-gnueabihf/sysroot/lib/arm-linux-gnueabihf/libc.so.6
addseverity@GLIBC_2.4                             c:\sysgcc\raspberry\bin\../arm-linux-gnueabihf/sysroot/lib/arm-linux-gnueabihf/libc.so.6
adjtime                                           c:\sysgcc\raspberry\bin\../arm-linux-gnueabihf/sysroot/lib/arm-linux-gnueabihf/libc.so.6
adjtime@@GLIBC_2.4                                c:\sysgcc\raspberry\bin\../arm-linux-gnueabihf/sysroot/lib/arm-linux-gnueabihf/libc.so.6
adjtime@GLIBC_2.4                                 c:\sysgcc\raspberry\bin\../arm-linux-gnueabihf/sysroot/lib/arm-linux-gnueabihf/libc.so.6
adjtimex                                          c:\sysgcc\raspberry\bin\../arm-linux-gnueabihf/sysroot/lib/arm-linux-gnueabihf/libc.so.6
adjtimex@@GLIBC_2.4                               c:\sysgcc\raspberry\bin\../arm-linux-gnueabihf/sysroot/lib/arm-linux-gnueabihf/libc.so.6
adjtimex@GLIBC_2.4                                c:\sysgcc\raspberry\bin\../arm-linux-gnueabihf/sysroot/lib/arm-linux-gnueabihf/libc.so.6
advance@GLIBC_2.4                                 c:\sysgcc\raspberry\bin\../arm-linux-gnueabihf/sysroot/lib/arm-linux-gnueabihf/libc.so.6
alert_delays                                      obj/Debug/pigpio.o
aligned_alloc                                     c:\sysgcc\raspberry\bin\../arm-linux-gnueabihf/sysroot/lib/arm-linux-gnueabihf/libc.so.6
aligned_alloc@@GLIBC_2.16                         c:\sysgcc\raspberry\bin\../arm-linux-gnueabihf/sysroot/lib/arm-linux-gnueabihf/libc.so.6
aligned_alloc@GLIBC_2.16                          c:\sysgcc\raspberry\bin\../arm-linux-gnueabihf/sysroot/lib/arm-linux-gnueabihf/libc.so.6
appMillis                                         obj/Debug/commonUnit.o
                                                  obj/Debug/ThermoControlLibrary/PIDCalculs.o
argp_error                                        c:\sysgcc\raspberry\bin\../arm-linux-gnueabihf/sysroot/lib/arm-linux-gnueabihf/libc.so.6
argp_error@@GLIBC_2.4                             c:\sysgcc\raspberry\bin\../arm-linux-gnueabihf/sysroot/lib/arm-linux-gnueabihf/libc.so.6
argp_error@GLIBC_2.4                              c:\sysgcc\raspberry\bin\../arm-linux-gnueabihf/sysroot/lib/arm-linux-gnueabihf/libc.so.6
argp_failure                                      c:\sysgcc\raspberry\bin\../arm-linux-gnueabihf/sysroot/lib/arm-linux-gnueabihf/libc.so.6
argp_failure@@GLIBC_2.4                           c:\sysgcc\raspberry\bin\../arm-linux-gnueabihf/sysroot/lib/arm-linux-gnueabihf/libc.so.6
argp_failure@GLIBC_2.4                            c:\sysgcc\raspberry\bin\../arm-linux-gnueabihf/sysroot/lib/arm-linux-gnueabihf/libc.so.6
argp_help                                         c:\sysgcc\raspberry\bin\../arm-linux-gnueabihf/sysroot/lib/arm-linux-gnueabihf/libc.so.6
argp_help@@GLIBC_2.4                              c:\sysgcc\raspberry\bin\../arm-linux-gnueabihf/sysroot/lib/arm-linux-gnueabihf/libc.so.6
argp_help@GLIBC_2.4                               c:\sysgcc\raspberry\bin\../arm-linux-gnueabihf/sysroot/lib/arm-linux-gnueabihf/libc.so.6
argp_parse                                        c:\sysgcc\raspberry\bin\../arm-linux-gnueabihf/sysroot/lib/arm-linux-gnueabihf/libc.so.6
argp_parse@@GLIBC_2.4                             c:\sysgcc\raspberry\bin\../arm-linux-gnueabihf/sysroot/lib/arm-linux-gnueabihf/libc.so.6
argp_parse@GLIBC_2.4                              c:\sysgcc\raspberry\bin\../arm-linux-gnueabihf/sysroot/lib/arm-linux-gnueabihf/libc.so.6
argp_state_help                                   c:\sysgcc\raspberry\bin\../arm-linux-gnueabihf/sysroot/lib/arm-linux-gnueabihf/libc.so.6
argp_state_help@@GLIBC_2.4                        c:\sysgcc\raspberry\bin\../arm-linux-gnueabihf/sysroot/lib/arm-linux-gnueabihf/libc.so.6
argp_state_help@GLIBC_2.4                         c:\sysgcc\raspberry\bin\../arm-linux-gnueabihf/sysroot/lib/arm-linux-gnueabihf/libc.so.6
argp_usage                                        c:\sysgcc\raspberry\bin\../arm-linux-gnueabihf/sysroot/lib/arm-linux-gnueabihf/libc.so.6
argp_usage@@GLIBC_2.4                             c:\sysgcc\raspberry\bin\../arm-linux-gnueabihf/sysroot/lib/arm-linux-gnueabihf/libc.so.6
argp_usage@GLIBC_2.4                              c:\sysgcc\raspberry\bin\../arm-linux-gnueabihf/sysroot/lib/arm-linux-gnueabihf/libc.so.6
argz_add                                          c:\sysgcc\raspberry\bin\../arm-linux-gnueabihf/sysroot/lib/arm-linux-gnueabihf/libc.so.6
argz_add@@GLIBC_2.4                               c:\sysgcc\raspberry\bin\../arm-linux-gnueabihf/sysroot/lib/arm-linux-gnueabihf/libc.so.6
argz_add@GLIBC_2.4                                c:\sysgcc\raspberry\bin\../arm-linux-gnueabihf/sysroot/lib/arm-linux-gnueabihf/libc.so.6
argz_add_sep                                      c:\sysgcc\raspberry\bin\../arm-linux-gnueabihf/sysroot/lib/arm-linux-gnueabihf/libc.so.6
argz_add_sep@@GLIBC_2.4                           c:\sysgcc\raspberry\bin\../arm-linux-gnueabihf/sysroot/lib/arm-linux-gnueabihf/libc.so.6
argz_add_sep@GLIBC_2.4                            c:\sysgcc\raspberry\bin\../arm-linux-gnueabihf/sysroot/lib/arm-linux-gnueabihf/libc.so.6
argz_append                                       c:\sysgcc\raspberry\bin\../arm-linux-gnueabihf/sysroot/lib/arm-linux-gnueabihf/libc.so.6
argz_append@@GLIBC_2.4                            c:\sysgcc\raspberry\bin\../arm-linux-gnueabihf/sysroot/lib/arm-linux-gnueabihf/libc.so.6
argz_append@GLIBC_2.4                             c:\sysgcc\raspberry\bin\../arm-linux-gnueabihf/sysroot/lib/arm-linux-gnueabihf/libc.so.6
argz_count                                        c:\sysgcc\raspberry\bin\../arm-linux-gnueabihf/sysroot/lib/arm-linux-gnueabihf/libc.so.6
argz_count@@GLIBC_2.4                             c:\sysgcc\raspberry\bin\../arm-linux-gnueabihf/sysroot/lib/arm-linux-gnueabihf/libc.so.6
argz_count@GLIBC_2.4                              c:\sysgcc\raspberry\bin\../arm-linux-gnueabihf/sysroot/lib/arm-linux-gnueabihf/libc.so.6
argz_create                                       c:\sysgcc\raspberry\bin\../arm-linux-gnueabihf/sysroot/lib/arm-linux-gnueabihf/libc.so.6
argz_create@@GLIBC_2.4                            c:\sysgcc\raspberry\bin\../arm-linux-gnueabihf/sysroot/lib/arm-linux-gnueabihf/libc.so.6
argz_create@GLIBC_2.4                             c:\sysgcc\raspberry\bin\../arm-linux-gnueabihf/sysroot/lib/arm-linux-gnueabihf/libc.so.6
argz_create_sep                                   c:\sysgcc\raspberry\bin\../arm-linux-gnueabihf/sysroot/lib/arm-linux-gnueabihf/libc.so.6
argz_create_sep@@GLIBC_2.4                        c:\sysgcc\raspberry\bin\../arm-linux-gnueabihf/sysroot/lib/arm-linux-gnueabihf/libc.so.6
argz_create_sep@GLIBC_2.4                         c:\sysgcc\raspberry\bin\../arm-linux-gnueabihf/sysroot/lib/arm-linux-gnueabihf/libc.so.6
argz_extract                                      c:\sysgcc\raspberry\bin\../arm-linux-gnueabihf/sysroot/lib/arm-linux-gnueabihf/libc.so.6
argz_extract@@GLIBC_2.4                           c:\sysgcc\raspberry\bin\../arm-linux-gnueabihf/sysroot/lib/arm-linux-gnueabihf/libc.so.6
argz_extract@GLIBC_2.4                            c:\sysgcc\raspberry\bin\../arm-linux-gnueabihf/sysroot/lib/arm-linux-gnueabihf/libc.so.6
argz_insert                                       c:\sysgcc\raspberry\bin\../arm-linux-gnueabihf/sysroot/lib/arm-linux-gnueabihf/libc.so.6
argz_insert@@GLIBC_2.4                            c:\sysgcc\raspberry\bin\../arm-linux-gnueabihf/sysroot/lib/arm-linux-gnueabihf/libc.so.6
argz_insert@GLIBC_2.4                             c:\sysgcc\raspberry\bin\../arm-linux-gnueabihf/sysroot/lib/arm-linux-gnueabihf/libc.so.6
argz_next                                         c:\sysgcc\raspberry\bin\../arm-linux-gnueabihf/sysroot/lib/arm-linux-gnueabihf/libc.so.6
argz_next@@GLIBC_2.4                              c:\sysgcc\raspberry\bin\../arm-linux-gnueabihf/sysroot/lib/arm-linux-gnueabihf/libc.so.6
argz_next@GLIBC_2.4                               c:\sysgcc\raspberry\bin\../arm-linux-gnueabihf/sysroot/lib/arm-linux-gnueabihf/libc.so.6
argz_replace                                      c:\sysgcc\raspberry\bin\../arm-linux-gnueabihf/sysroot/lib/arm-linux-gnueabihf/libc.so.6
argz_replace@@GLIBC_2.4                           c:\sysgcc\raspberry\bin\../arm-linux-gnueabihf/sysroot/lib/arm-linux-gnueabihf/libc.so.6
argz_replace@GLIBC_2.4                            c:\sysgcc\raspberry\bin\../arm-linux-gnueabihf/sysroot/lib/arm-linux-gnueabihf/libc.so.6
argz_stringify                                    c:\sysgcc\raspberry\bin\../arm-linux-gnueabihf/sysroot/lib/arm-linux-gnueabihf/libc.so.6
argz_stringify@@GLIBC_2.4                         c:\sysgcc\raspberry\bin\../arm-linux-gnueabihf/sysroot/lib/arm-linux-gnueabihf/libc.so.6
argz_stringify@GLIBC_2.4                          c:\sysgcc\raspberry\bin\../arm-linux-gnueabihf/sysroot/lib/arm-linux-gnueabihf/libc.so.6
asctime_r                                         c:\sysgcc\raspberry\bin\../arm-linux-gnueabihf/sysroot/lib/arm-linux-gnueabihf/libc.so.6
asctime_r@@GLIBC_2.4                              c:\sysgcc\raspberry\bin\../arm-linux-gnueabihf/sysroot/lib/arm-linux-gnueabihf/libc.so.6
asctime_r@GLIBC_2.4                               c:\sysgcc\raspberry\bin\../arm-linux-gnueabihf/sysroot/lib/arm-linux-gnueabihf/libc.so.6
asprintf                                          c:\sysgcc\raspberry\bin\../arm-linux-gnueabihf/sysroot/lib/arm-linux-gnueabihf/libc.so.6
asprintf@@GLIBC_2.4                               c:\sysgcc\raspberry\bin\../arm-linux-gnueabihf/sysroot/lib/arm-linux-gnueabihf/libc.so.6
asprintf@GLIBC_2.4                                c:\sysgcc\raspberry\bin\../arm-linux-gnueabihf/sysroot/lib/arm-linux-gnueabihf/libc.so.6
atexit                                            c:\sysgcc\raspberry\bin\../arm-linux-gnueabihf/sysroot/usr/lib/arm-linux-gnueabihf/libc_nonshared.a(atexit.oS)
                                                  obj/Debug/pigpio.o
atof                                              c:\sysgcc\raspberry\bin\../arm-linux-gnueabihf/sysroot/lib/arm-linux-gnueabihf/libc.so.6
                                                  obj/Debug/Keyboard_Indicator/Keypad.o
atof@@GLIBC_2.4                                   c:\sysgcc\raspberry\bin\../arm-linux-gnueabihf/sysroot/lib/arm-linux-gnueabihf/libc.so.6
atof@GLIBC_2.4                                    c:\sysgcc\raspberry\bin\../arm-linux-gnueabihf/sysroot/lib/arm-linux-gnueabihf/libc.so.6
atoi                                              c:\sysgcc\raspberry\bin\../arm-linux-gnueabihf/sysroot/lib/arm-linux-gnueabihf/libc.so.6
                                                  obj/Debug/pigpio.o
atoi@@GLIBC_2.4                                   c:\sysgcc\raspberry\bin\../arm-linux-gnueabihf/sysroot/lib/arm-linux-gnueabihf/libc.so.6
atoi@GLIBC_2.4                                    c:\sysgcc\raspberry\bin\../arm-linux-gnueabihf/sysroot/lib/arm-linux-gnueabihf/libc.so.6
atol                                              c:\sysgcc\raspberry\bin\../arm-linux-gnueabihf/sysroot/lib/arm-linux-gnueabihf/libc.so.6
                                                  obj/Debug/Keyboard_Indicator/Keypad.o
atol@@GLIBC_2.4                                   c:\sysgcc\raspberry\bin\../arm-linux-gnueabihf/sysroot/lib/arm-linux-gnueabihf/libc.so.6
atol@GLIBC_2.4                                    c:\sysgcc\raspberry\bin\../arm-linux-gnueabihf/sysroot/lib/arm-linux-gnueabihf/libc.so.6
bADCCalibrationProcess                            obj/Debug/globalvardefs.o
                                                  obj/Debug/ADC/ADC_Unit.o
                                                  obj/Debug/i2c_lcd/lcd.o
                                                  obj/Debug/main.o
bCelsiumOrKelvin                                  obj/Debug/globalvardefs.o
                                                  obj/Debug/diskIO.o
                                                  obj/Debug/UART/uart.o
                                                  obj/Debug/i2c_lcd/lcd.o
                                                  obj/Debug/Keyboard_Indicator/Keypad.o
bPointShifted                                     obj/Debug/Keyboard_Indicator/Indicator_Variables.o
bScanOrSetMode                                    obj/Debug/globalvardefs.o
                                                  obj/Debug/UART/uart.o
                                                  obj/Debug/ThermoControlLibrary/PIDCalculs.o
                                                  obj/Debug/i2c_lcd/lcd.o
                                                  obj/Debug/Keyboard_Indicator/Keypad.o
bTempSetAchieved                                  obj/Debug/globalvardefs.o
                                                  obj/Debug/UART/uart.o
                                                  obj/Debug/ThermoControlLibrary/PIDCalculs.o
bUART_Active                                      obj/Debug/globalvardefs.o
                                                  obj/Debug/main.o
backtrace                                         c:\sysgcc\raspberry\bin\../arm-linux-gnueabihf/sysroot/lib/arm-linux-gnueabihf/libc.so.6
backtrace@@GLIBC_2.4                              c:\sysgcc\raspberry\bin\../arm-linux-gnueabihf/sysroot/lib/arm-linux-gnueabihf/libc.so.6
backtrace@GLIBC_2.4                               c:\sysgcc\raspberry\bin\../arm-linux-gnueabihf/sysroot/lib/arm-linux-gnueabihf/libc.so.6
backtrace_symbols                                 c:\sysgcc\raspberry\bin\../arm-linux-gnueabihf/sysroot/lib/arm-linux-gnueabihf/libc.so.6
backtrace_symbols@@GLIBC_2.4                      c:\sysgcc\raspberry\bin\../arm-linux-gnueabihf/sysroot/lib/arm-linux-gnueabihf/libc.so.6
backtrace_symbols@GLIBC_2.4                       c:\sysgcc\raspberry\bin\../arm-linux-gnueabihf/sysroot/lib/arm-linux-gnueabihf/libc.so.6
backtrace_symbols_fd                              c:\sysgcc\raspberry\bin\../arm-linux-gnueabihf/sysroot/lib/arm-linux-gnueabihf/libc.so.6
backtrace_symbols_fd@@GLIBC_2.4                   c:\sysgcc\raspberry\bin\../arm-linux-gnueabihf/sysroot/lib/arm-linux-gnueabihf/libc.so.6
backtrace_symbols_fd@GLIBC_2.4                    c:\sysgcc\raspberry\bin\../arm-linux-gnueabihf/sysroot/lib/arm-linux-gnueabihf/libc.so.6
basename                                          c:\sysgcc\raspberry\bin\../arm-linux-gnueabihf/sysroot/lib/arm-linux-gnueabihf/libc.so.6
basename@@GLIBC_2.4                               c:\sysgcc\raspberry\bin\../arm-linux-gnueabihf/sysroot/lib/arm-linux-gnueabihf/libc.so.6
basename@GLIBC_2.4                                c:\sysgcc\raspberry\bin\../arm-linux-gnueabihf/sysroot/lib/arm-linux-gnueabihf/libc.so.6
bbI2CClose                                        obj/Debug/pigpio.o
bbI2COpen                                         obj/Debug/pigpio.o
bbI2CZip                                          obj/Debug/pigpio.o
bbSPIClose                                        obj/Debug/pigpio.o
bbSPIOpen                                         obj/Debug/pigpio.o
bbSPIXfer                                         obj/Debug/pigpio.o
bcm2835_aux                                       obj/Debug/bcm2835.o
bcm2835_aux_spi_CalcClockDivider                  obj/Debug/bcm2835.o
bcm2835_aux_spi_begin                             obj/Debug/bcm2835.o
                                                  obj/Debug/Executive/SPI1.o
bcm2835_aux_spi_end                               obj/Debug/bcm2835.o
bcm2835_aux_spi_setClockDivider                   obj/Debug/bcm2835.o
bcm2835_aux_spi_transfer                          obj/Debug/bcm2835.o
                                                  obj/Debug/Executive/modulSPI.o
bcm2835_aux_spi_transfern                         obj/Debug/bcm2835.o
bcm2835_aux_spi_transfernb                        obj/Debug/bcm2835.o
bcm2835_aux_spi_write                             obj/Debug/bcm2835.o
bcm2835_aux_spi_writenb                           obj/Debug/bcm2835.o
bcm2835_bsc0                                      obj/Debug/bcm2835.o
bcm2835_bsc1                                      obj/Debug/bcm2835.o
bcm2835_clk                                       obj/Debug/bcm2835.o
bcm2835_close                                     obj/Debug/bcm2835.o
                                                  obj/Debug/DEV_Config.o
bcm2835_delay                                     obj/Debug/bcm2835.o
                                                  obj/Debug/ADC/ADS1256.o
                                                  obj/Debug/i2c_lcd/lcd.o
                                                  obj/Debug/i2c_lcd/i2c_lcd.o
                                                  obj/Debug/Keyboard_Indicator/Keypad.o
                                                  obj/Debug/Executive/modulSPI.o
                                                  obj/Debug/main.o
bcm2835_delayMicroseconds                         obj/Debug/bcm2835.o
                                                  obj/Debug/i2c_lcd/i2c_lcd.o
bcm2835_gpio                                      obj/Debug/bcm2835.o
bcm2835_gpio_afen                                 obj/Debug/bcm2835.o
bcm2835_gpio_aren                                 obj/Debug/bcm2835.o
bcm2835_gpio_clr                                  obj/Debug/bcm2835.o
                                                  obj/Debug/Executive/modulSPI.o
bcm2835_gpio_clr_afen                             obj/Debug/bcm2835.o
bcm2835_gpio_clr_aren                             obj/Debug/bcm2835.o
bcm2835_gpio_clr_fen                              obj/Debug/bcm2835.o
bcm2835_gpio_clr_hen                              obj/Debug/bcm2835.o
bcm2835_gpio_clr_len                              obj/Debug/bcm2835.o
bcm2835_gpio_clr_multi                            obj/Debug/bcm2835.o
bcm2835_gpio_clr_ren                              obj/Debug/bcm2835.o
bcm2835_gpio_eds                                  obj/Debug/bcm2835.o
bcm2835_gpio_eds_multi                            obj/Debug/bcm2835.o
bcm2835_gpio_fen                                  obj/Debug/bcm2835.o
bcm2835_gpio_fsel                                 obj/Debug/bcm2835.o
                                                  obj/Debug/Keyboard_Indicator/Keypad.o
                                                  obj/Debug/Executive/nativePWM.o
                                                  obj/Debug/Executive/modulSPI.o
                                                  obj/Debug/Executive/SPI1.o
                                                  obj/Debug/DEV_Config.o
bcm2835_gpio_get_pud                              obj/Debug/bcm2835.o
bcm2835_gpio_hen                                  obj/Debug/bcm2835.o
bcm2835_gpio_len                                  obj/Debug/bcm2835.o
bcm2835_gpio_lev                                  obj/Debug/bcm2835.o
                                                  obj/Debug/ADC/ADS1256.o
                                                  obj/Debug/Keyboard_Indicator/Keypad.o
bcm2835_gpio_pad                                  obj/Debug/bcm2835.o
bcm2835_gpio_pud                                  obj/Debug/bcm2835.o
bcm2835_gpio_pudclk                               obj/Debug/bcm2835.o
bcm2835_gpio_ren                                  obj/Debug/bcm2835.o
bcm2835_gpio_set                                  obj/Debug/bcm2835.o
                                                  obj/Debug/Executive/modulSPI.o
                                                  obj/Debug/Executive/SPI1.o
bcm2835_gpio_set_eds                              obj/Debug/bcm2835.o
bcm2835_gpio_set_eds_multi                        obj/Debug/bcm2835.o
bcm2835_gpio_set_multi                            obj/Debug/bcm2835.o
bcm2835_gpio_set_pad                              obj/Debug/bcm2835.o
bcm2835_gpio_set_pud                              obj/Debug/bcm2835.o
                                                  obj/Debug/Keyboard_Indicator/Keypad.o
bcm2835_gpio_write                                obj/Debug/bcm2835.o
                                                  obj/Debug/ADC/ADS1256.o
                                                  obj/Debug/Keyboard_Indicator/Keypad.o
bcm2835_gpio_write_mask                           obj/Debug/bcm2835.o
bcm2835_gpio_write_multi                          obj/Debug/bcm2835.o
bcm2835_i2c_begin                                 obj/Debug/bcm2835.o
                                                  obj/Debug/i2c_lcd/i2c_lcd.o
bcm2835_i2c_end                                   obj/Debug/bcm2835.o
                                                  obj/Debug/i2c_lcd/i2c_lcd.o
bcm2835_i2c_read                                  obj/Debug/bcm2835.o
bcm2835_i2c_read_register_rs                      obj/Debug/bcm2835.o
bcm2835_i2c_setClockDivider                       obj/Debug/bcm2835.o
bcm2835_i2c_setSlaveAddress                       obj/Debug/bcm2835.o
                                                  obj/Debug/i2c_lcd/i2c_lcd.o
bcm2835_i2c_set_baudrate                          obj/Debug/bcm2835.o
                                                  obj/Debug/i2c_lcd/i2c_lcd.o
bcm2835_i2c_write                                 obj/Debug/bcm2835.o
                                                  obj/Debug/i2c_lcd/i2c_lcd.o
bcm2835_i2c_write_read_rs                         obj/Debug/bcm2835.o
bcm2835_init                                      obj/Debug/bcm2835.o
                                                  obj/Debug/Executive/SPI1.o
                                                  obj/Debug/DEV_Config.o
bcm2835_pads                                      obj/Debug/bcm2835.o
bcm2835_peri_read                                 obj/Debug/bcm2835.o
bcm2835_peri_read_nb                              obj/Debug/bcm2835.o
bcm2835_peri_set_bits                             obj/Debug/bcm2835.o
bcm2835_peri_write                                obj/Debug/bcm2835.o
bcm2835_peri_write_nb                             obj/Debug/bcm2835.o
bcm2835_peripherals                               obj/Debug/bcm2835.o
bcm2835_peripherals_base                          obj/Debug/bcm2835.o
bcm2835_peripherals_size                          obj/Debug/bcm2835.o
bcm2835_pwm                                       obj/Debug/bcm2835.o
bcm2835_pwm_set_clock                             obj/Debug/bcm2835.o
                                                  obj/Debug/Executive/nativePWM.o
bcm2835_pwm_set_data                              obj/Debug/bcm2835.o
                                                  obj/Debug/Executive/nativePWM.o
bcm2835_pwm_set_mode                              obj/Debug/bcm2835.o
                                                  obj/Debug/Executive/nativePWM.o
bcm2835_pwm_set_range                             obj/Debug/bcm2835.o
                                                  obj/Debug/Executive/nativePWM.o
bcm2835_regbase                                   obj/Debug/bcm2835.o
bcm2835_set_debug                                 obj/Debug/bcm2835.o
bcm2835_spi0                                      obj/Debug/bcm2835.o
bcm2835_spi1                                      obj/Debug/bcm2835.o
bcm2835_spi_begin                                 obj/Debug/bcm2835.o
                                                  obj/Debug/DEV_Config.o
bcm2835_spi_chipSelect                            obj/Debug/bcm2835.o
bcm2835_spi_end                                   obj/Debug/bcm2835.o
                                                  obj/Debug/DEV_Config.o
bcm2835_spi_setBitOrder                           obj/Debug/bcm2835.o
                                                  obj/Debug/DEV_Config.o
bcm2835_spi_setChipSelectPolarity                 obj/Debug/bcm2835.o
bcm2835_spi_setClockDivider                       obj/Debug/bcm2835.o
                                                  obj/Debug/DEV_Config.o
bcm2835_spi_setDataMode                           obj/Debug/bcm2835.o
                                                  obj/Debug/DEV_Config.o
bcm2835_spi_set_speed_hz                          obj/Debug/bcm2835.o
bcm2835_spi_transfer                              obj/Debug/bcm2835.o
                                                  obj/Debug/ADC/ADS1256.o
bcm2835_spi_transfern                             obj/Debug/bcm2835.o
bcm2835_spi_transfernb                            obj/Debug/bcm2835.o
bcm2835_spi_write                                 obj/Debug/bcm2835.o
bcm2835_spi_writenb                               obj/Debug/bcm2835.o
bcm2835_st                                        obj/Debug/bcm2835.o
bcm2835_st_delay                                  obj/Debug/bcm2835.o
bcm2835_st_read                                   obj/Debug/bcm2835.o
bcm2835_version                                   obj/Debug/bcm2835.o
bcmp                                              c:\sysgcc\raspberry\bin\../arm-linux-gnueabihf/sysroot/lib/arm-linux-gnueabihf/libc.so.6
bcmp@@GLIBC_2.4                                   c:\sysgcc\raspberry\bin\../arm-linux-gnueabihf/sysroot/lib/arm-linux-gnueabihf/libc.so.6
bcmp@GLIBC_2.4                                    c:\sysgcc\raspberry\bin\../arm-linux-gnueabihf/sysroot/lib/arm-linux-gnueabihf/libc.so.6
bind                                              c:\sysgcc\raspberry\bin\../arm-linux-gnueabihf/sysroot/lib/arm-linux-gnueabihf/libc.so.6
                                                  obj/Debug/pigpio.o
bind@@GLIBC_2.4                                   c:\sysgcc\raspberry\bin\../arm-linux-gnueabihf/sysroot/lib/arm-linux-gnueabihf/libc.so.6
bind@GLIBC_2.4                                    c:\sysgcc\raspberry\bin\../arm-linux-gnueabihf/sysroot/lib/arm-linux-gnueabihf/libc.so.6
bind_textdomain_codeset                           c:\sysgcc\raspberry\bin\../arm-linux-gnueabihf/sysroot/lib/arm-linux-gnueabihf/libc.so.6
bind_textdomain_codeset@@GLIBC_2.4                c:\sysgcc\raspberry\bin\../arm-linux-gnueabihf/sysroot/lib/arm-linux-gnueabihf/libc.so.6
bind_textdomain_codeset@GLIBC_2.4                 c:\sysgcc\raspberry\bin\../arm-linux-gnueabihf/sysroot/lib/arm-linux-gnueabihf/libc.so.6
bindtextdomain                                    c:\sysgcc\raspberry\bin\../arm-linux-gnueabihf/sysroot/lib/arm-linux-gnueabihf/libc.so.6
bindtextdomain@@GLIBC_2.4                         c:\sysgcc\raspberry\bin\../arm-linux-gnueabihf/sysroot/lib/arm-linux-gnueabihf/libc.so.6
bindtextdomain@GLIBC_2.4                          c:\sysgcc\raspberry\bin\../arm-linux-gnueabihf/sysroot/lib/arm-linux-gnueabihf/libc.so.6
brk                                               c:\sysgcc\raspberry\bin\../arm-linux-gnueabihf/sysroot/lib/arm-linux-gnueabihf/libc.so.6
brk@@GLIBC_2.4                                    c:\sysgcc\raspberry\bin\../arm-linux-gnueabihf/sysroot/lib/arm-linux-gnueabihf/libc.so.6
brk@GLIBC_2.4                                     c:\sysgcc\raspberry\bin\../arm-linux-gnueabihf/sysroot/lib/arm-linux-gnueabihf/libc.so.6
bscInit                                           obj/Debug/pigpio.o
bscTerm                                           obj/Debug/pigpio.o
bscXfer                                           obj/Debug/pigpio.o
bsd_signal                                        c:\sysgcc\raspberry\bin\../arm-linux-gnueabihf/sysroot/lib/arm-linux-gnueabihf/libc.so.6
bsd_signal@@GLIBC_2.4                             c:\sysgcc\raspberry\bin\../arm-linux-gnueabihf/sysroot/lib/arm-linux-gnueabihf/libc.so.6
bsd_signal@GLIBC_2.4                              c:\sysgcc\raspberry\bin\../arm-linux-gnueabihf/sysroot/lib/arm-linux-gnueabihf/libc.so.6
btowc                                             c:\sysgcc\raspberry\bin\../arm-linux-gnueabihf/sysroot/lib/arm-linux-gnueabihf/libc.so.6
btowc@@GLIBC_2.4                                  c:\sysgcc\raspberry\bin\../arm-linux-gnueabihf/sysroot/lib/arm-linux-gnueabihf/libc.so.6
btowc@GLIBC_2.4                                   c:\sysgcc\raspberry\bin\../arm-linux-gnueabihf/sysroot/lib/arm-linux-gnueabihf/libc.so.6
buffer_in                                         obj/Debug/UART/uart.o
buffer_out                                        obj/Debug/UART/uart.o
bzero                                             c:\sysgcc\raspberry\bin\../arm-linux-gnueabihf/sysroot/lib/arm-linux-gnueabihf/libc.so.6
bzero@@GLIBC_2.4                                  c:\sysgcc\raspberry\bin\../arm-linux-gnueabihf/sysroot/lib/arm-linux-gnueabihf/libc.so.6
bzero@GLIBC_2.4                                   c:\sysgcc\raspberry\bin\../arm-linux-gnueabihf/sysroot/lib/arm-linux-gnueabihf/libc.so.6
cChangingSpeed                                    obj/Debug/Keyboard_Indicator/Indicator_Variables.o
calloc                                            c:\sysgcc\raspberry\bin\../arm-linux-gnueabihf/sysroot/lib/arm-linux-gnueabihf/libc.so.6
                                                  obj/Debug/command.o
calloc@@GLIBC_2.4                                 c:\sysgcc\raspberry\bin\../arm-linux-gnueabihf/sysroot/lib/arm-linux-gnueabihf/libc.so.6
                                                  c:\sysgcc\raspberry\bin\../arm-linux-gnueabihf/sysroot/lib/ld-linux-armhf.so.3
calloc@GLIBC_2.4                                  c:\sysgcc\raspberry\bin\../arm-linux-gnueabihf/sysroot/lib/arm-linux-gnueabihf/libc.so.6
                                                  c:/sysgcc/raspberry/bin/../arm-linux-gnueabihf/sysroot/lib/arm-linux-gnueabihf/libpthread.so
canonicalize_file_name                            c:\sysgcc\raspberry\bin\../arm-linux-gnueabihf/sysroot/lib/arm-linux-gnueabihf/libc.so.6
canonicalize_file_name@@GLIBC_2.4                 c:\sysgcc\raspberry\bin\../arm-linux-gnueabihf/sysroot/lib/arm-linux-gnueabihf/libc.so.6
canonicalize_file_name@GLIBC_2.4                  c:\sysgcc\raspberry\bin\../arm-linux-gnueabihf/sysroot/lib/arm-linux-gnueabihf/libc.so.6
cfmakeraw                                         c:\sysgcc\raspberry\bin\../arm-linux-gnueabihf/sysroot/lib/arm-linux-gnueabihf/libc.so.6
                                                  obj/Debug/pigpio.o
cfmakeraw@@GLIBC_2.4                              c:\sysgcc\raspberry\bin\../arm-linux-gnueabihf/sysroot/lib/arm-linux-gnueabihf/libc.so.6
cfmakeraw@GLIBC_2.4                               c:\sysgcc\raspberry\bin\../arm-linux-gnueabihf/sysroot/lib/arm-linux-gnueabihf/libc.so.6
cfsetispeed                                       c:\sysgcc\raspberry\bin\../arm-linux-gnueabihf/sysroot/lib/arm-linux-gnueabihf/libc.so.6
                                                  obj/Debug/pigpio.o
cfsetispeed@@GLIBC_2.4                            c:\sysgcc\raspberry\bin\../arm-linux-gnueabihf/sysroot/lib/arm-linux-gnueabihf/libc.so.6
cfsetispeed@GLIBC_2.4                             c:\sysgcc\raspberry\bin\../arm-linux-gnueabihf/sysroot/lib/arm-linux-gnueabihf/libc.so.6
cfsetospeed                                       c:\sysgcc\raspberry\bin\../arm-linux-gnueabihf/sysroot/lib/arm-linux-gnueabihf/libc.so.6
                                                  obj/Debug/pigpio.o
cfsetospeed@@GLIBC_2.4                            c:\sysgcc\raspberry\bin\../arm-linux-gnueabihf/sysroot/lib/arm-linux-gnueabihf/libc.so.6
cfsetospeed@GLIBC_2.4                             c:\sysgcc\raspberry\bin\../arm-linux-gnueabihf/sysroot/lib/arm-linux-gnueabihf/libc.so.6
chdir                                             c:\sysgcc\raspberry\bin\../arm-linux-gnueabihf/sysroot/lib/arm-linux-gnueabihf/libc.so.6
chdir@@GLIBC_2.4                                  c:\sysgcc\raspberry\bin\../arm-linux-gnueabihf/sysroot/lib/arm-linux-gnueabihf/libc.so.6
chdir@GLIBC_2.4                                   c:\sysgcc\raspberry\bin\../arm-linux-gnueabihf/sysroot/lib/arm-linux-gnueabihf/libc.so.6
chmod                                             c:\sysgcc\raspberry\bin\../arm-linux-gnueabihf/sysroot/lib/arm-linux-gnueabihf/libc.so.6
                                                  obj/Debug/pigpio.o
chmod@@GLIBC_2.4                                  c:\sysgcc\raspberry\bin\../arm-linux-gnueabihf/sysroot/lib/arm-linux-gnueabihf/libc.so.6
chmod@GLIBC_2.4                                   c:\sysgcc\raspberry\bin\../arm-linux-gnueabihf/sysroot/lib/arm-linux-gnueabihf/libc.so.6
chown                                             c:\sysgcc\raspberry\bin\../arm-linux-gnueabihf/sysroot/lib/arm-linux-gnueabihf/libc.so.6
chown@@GLIBC_2.4                                  c:\sysgcc\raspberry\bin\../arm-linux-gnueabihf/sysroot/lib/arm-linux-gnueabihf/libc.so.6
chown@GLIBC_2.4                                   c:\sysgcc\raspberry\bin\../arm-linux-gnueabihf/sysroot/lib/arm-linux-gnueabihf/libc.so.6
clearZone                                         obj/Debug/i2c_lcd/lcd.o
clearenv                                          c:\sysgcc\raspberry\bin\../arm-linux-gnueabihf/sysroot/lib/arm-linux-gnueabihf/libc.so.6
clearenv@@GLIBC_2.4                               c:\sysgcc\raspberry\bin\../arm-linux-gnueabihf/sysroot/lib/arm-linux-gnueabihf/libc.so.6
clearenv@GLIBC_2.4                                c:\sysgcc\raspberry\bin\../arm-linux-gnueabihf/sysroot/lib/arm-linux-gnueabihf/libc.so.6
clock_adjtime                                     c:\sysgcc\raspberry\bin\../arm-linux-gnueabihf/sysroot/lib/arm-linux-gnueabihf/libc.so.6
clock_adjtime@@GLIBC_2.14                         c:\sysgcc\raspberry\bin\../arm-linux-gnueabihf/sysroot/lib/arm-linux-gnueabihf/libc.so.6
clock_adjtime@GLIBC_2.14                          c:\sysgcc\raspberry\bin\../arm-linux-gnueabihf/sysroot/lib/arm-linux-gnueabihf/libc.so.6
clock_gettime                                     c:\sysgcc\raspberry\bin\../arm-linux-gnueabihf/sysroot/lib/arm-linux-gnueabihf/libc.so.6
                                                  obj/Debug/ADC/ADC_Unit.o
                                                  obj/Debug/Executive/additionalMeasurements.o
                                                  obj/Debug/commonUnit.o
                                                  obj/Debug/pigpio.o
clock_gettime@@GLIBC_2.17                         c:\sysgcc\raspberry\bin\../arm-linux-gnueabihf/sysroot/lib/arm-linux-gnueabihf/libc.so.6
clock_gettime@GLIBC_2.17                          c:\sysgcc\raspberry\bin\../arm-linux-gnueabihf/sysroot/lib/arm-linux-gnueabihf/libc.so.6
clock_nanosleep                                   c:\sysgcc\raspberry\bin\../arm-linux-gnueabihf/sysroot/lib/arm-linux-gnueabihf/libc.so.6
                                                  obj/Debug/pigpio.o
clock_nanosleep@@GLIBC_2.17                       c:\sysgcc\raspberry\bin\../arm-linux-gnueabihf/sysroot/lib/arm-linux-gnueabihf/libc.so.6
clock_nanosleep@GLIBC_2.17                        c:\sysgcc\raspberry\bin\../arm-linux-gnueabihf/sysroot/lib/arm-linux-gnueabihf/libc.so.6
clone                                             c:\sysgcc\raspberry\bin\../arm-linux-gnueabihf/sysroot/lib/arm-linux-gnueabihf/libc.so.6
clone@@GLIBC_2.4                                  c:\sysgcc\raspberry\bin\../arm-linux-gnueabihf/sysroot/lib/arm-linux-gnueabihf/libc.so.6
clone@GLIBC_2.4                                   c:\sysgcc\raspberry\bin\../arm-linux-gnueabihf/sysroot/lib/arm-linux-gnueabihf/libc.so.6
close                                             c:/sysgcc/raspberry/bin/../arm-linux-gnueabihf/sysroot/lib/arm-linux-gnueabihf/libpthread.so
                                                  obj/Debug/UART/uart.o
                                                  obj/Debug/pigpio.o
                                                  obj/Debug/bcm2835.o
close@@GLIBC_2.4                                  c:/sysgcc/raspberry/bin/../arm-linux-gnueabihf/sysroot/lib/arm-linux-gnueabihf/libpthread.so
                                                  c:\sysgcc\raspberry\bin\../arm-linux-gnueabihf/sysroot/lib/arm-linux-gnueabihf/libc.so.6
close@GLIBC_2.4                                   c:/sysgcc/raspberry/bin/../arm-linux-gnueabihf/sysroot/lib/arm-linux-gnueabihf/libpthread.so
closedir                                          c:\sysgcc\raspberry\bin\../arm-linux-gnueabihf/sysroot/lib/arm-linux-gnueabihf/libc.so.6
closedir@@GLIBC_2.4                               c:\sysgcc\raspberry\bin\../arm-linux-gnueabihf/sysroot/lib/arm-linux-gnueabihf/libc.so.6
closedir@GLIBC_2.4                                c:\sysgcc\raspberry\bin\../arm-linux-gnueabihf/sysroot/lib/arm-linux-gnueabihf/libc.so.6
cmdErrStr                                         obj/Debug/command.o
cmdInfo                                           obj/Debug/command.o
                                                  obj/Debug/pigpio.o
cmdParse                                          obj/Debug/command.o
                                                  obj/Debug/pigpio.o
cmdParseScript                                    obj/Debug/command.o
                                                  obj/Debug/pigpio.o
cmdStr                                            obj/Debug/command.o
cmdUsage                                          obj/Debug/command.o
                                                  obj/Debug/pigpio.o
cols                                              obj/Debug/Keyboard_Indicator/Keypad.o
connect                                           c:/sysgcc/raspberry/bin/../arm-linux-gnueabihf/sysroot/lib/arm-linux-gnueabihf/libpthread.so
connect@@GLIBC_2.4                                c:/sysgcc/raspberry/bin/../arm-linux-gnueabihf/sysroot/lib/arm-linux-gnueabihf/libpthread.so
                                                  c:\sysgcc\raspberry\bin\../arm-linux-gnueabihf/sysroot/lib/arm-linux-gnueabihf/libc.so.6
connect@GLIBC_2.4                                 c:/sysgcc/raspberry/bin/../arm-linux-gnueabihf/sysroot/lib/arm-linux-gnueabihf/libpthread.so
convertCodeADC                                    obj/Debug/ADC/ADC_Unit.o
copysign                                          c:\sysgcc\raspberry\bin\../arm-linux-gnueabihf/sysroot/lib/arm-linux-gnueabihf/libc.so.6
copysign@@GLIBC_2.4                               c:\sysgcc\raspberry\bin\../arm-linux-gnueabihf/sysroot/lib/arm-linux-gnueabihf/libc.so.6
copysign@GLIBC_2.4                                c:\sysgcc\raspberry\bin\../arm-linux-gnueabihf/sysroot/lib/arm-linux-gnueabihf/libc.so.6
copysignf                                         c:\sysgcc\raspberry\bin\../arm-linux-gnueabihf/sysroot/lib/arm-linux-gnueabihf/libc.so.6
copysignf@@GLIBC_2.4                              c:\sysgcc\raspberry\bin\../arm-linux-gnueabihf/sysroot/lib/arm-linux-gnueabihf/libc.so.6
copysignf@GLIBC_2.4                               c:\sysgcc\raspberry\bin\../arm-linux-gnueabihf/sysroot/lib/arm-linux-gnueabihf/libc.so.6
copysignl                                         c:\sysgcc\raspberry\bin\../arm-linux-gnueabihf/sysroot/lib/arm-linux-gnueabihf/libc.so.6
copysignl@@GLIBC_2.4                              c:\sysgcc\raspberry\bin\../arm-linux-gnueabihf/sysroot/lib/arm-linux-gnueabihf/libc.so.6
copysignl@GLIBC_2.4                               c:\sysgcc\raspberry\bin\../arm-linux-gnueabihf/sysroot/lib/arm-linux-gnueabihf/libc.so.6
creat                                             c:\sysgcc\raspberry\bin\../arm-linux-gnueabihf/sysroot/lib/arm-linux-gnueabihf/libc.so.6
creat64                                           c:\sysgcc\raspberry\bin\../arm-linux-gnueabihf/sysroot/lib/arm-linux-gnueabihf/libc.so.6
creat64@@GLIBC_2.4                                c:\sysgcc\raspberry\bin\../arm-linux-gnueabihf/sysroot/lib/arm-linux-gnueabihf/libc.so.6
creat64@GLIBC_2.4                                 c:\sysgcc\raspberry\bin\../arm-linux-gnueabihf/sysroot/lib/arm-linux-gnueabihf/libc.so.6
creat@@GLIBC_2.4                                  c:\sysgcc\raspberry\bin\../arm-linux-gnueabihf/sysroot/lib/arm-linux-gnueabihf/libc.so.6
creat@GLIBC_2.4                                   c:\sysgcc\raspberry\bin\../arm-linux-gnueabihf/sysroot/lib/arm-linux-gnueabihf/libc.so.6
data_start                                        c:/sysgcc/raspberry/bin/../arm-linux-gnueabihf/sysroot/lib/arm-linux-gnueabihf/crt1.o
daylight                                          c:\sysgcc\raspberry\bin\../arm-linux-gnueabihf/sysroot/lib/arm-linux-gnueabihf/libc.so.6
daylight@@GLIBC_2.4                               c:\sysgcc\raspberry\bin\../arm-linux-gnueabihf/sysroot/lib/arm-linux-gnueabihf/libc.so.6
daylight@GLIBC_2.4                                c:\sysgcc\raspberry\bin\../arm-linux-gnueabihf/sysroot/lib/arm-linux-gnueabihf/libc.so.6
dcgettext                                         c:\sysgcc\raspberry\bin\../arm-linux-gnueabihf/sysroot/lib/arm-linux-gnueabihf/libc.so.6
dcgettext@@GLIBC_2.4                              c:\sysgcc\raspberry\bin\../arm-linux-gnueabihf/sysroot/lib/arm-linux-gnueabihf/libc.so.6
dcgettext@GLIBC_2.4                               c:\sysgcc\raspberry\bin\../arm-linux-gnueabihf/sysroot/lib/arm-linux-gnueabihf/libc.so.6
dcngettext                                        c:\sysgcc\raspberry\bin\../arm-linux-gnueabihf/sysroot/lib/arm-linux-gnueabihf/libc.so.6
dcngettext@@GLIBC_2.4                             c:\sysgcc\raspberry\bin\../arm-linux-gnueabihf/sysroot/lib/arm-linux-gnueabihf/libc.so.6
dcngettext@GLIBC_2.4                              c:\sysgcc\raspberry\bin\../arm-linux-gnueabihf/sysroot/lib/arm-linux-gnueabihf/libc.so.6
deltaMilis                                        obj/Debug/commonUnit.o
dgettext                                          c:\sysgcc\raspberry\bin\../arm-linux-gnueabihf/sysroot/lib/arm-linux-gnueabihf/libc.so.6
dgettext@@GLIBC_2.4                               c:\sysgcc\raspberry\bin\../arm-linux-gnueabihf/sysroot/lib/arm-linux-gnueabihf/libc.so.6
dgettext@GLIBC_2.4                                c:\sysgcc\raspberry\bin\../arm-linux-gnueabihf/sysroot/lib/arm-linux-gnueabihf/libc.so.6
dl_iterate_phdr                                   c:\sysgcc\raspberry\bin\../arm-linux-gnueabihf/sysroot/lib/arm-linux-gnueabihf/libc.so.6
dl_iterate_phdr@@GLIBC_2.4                        c:\sysgcc\raspberry\bin\../arm-linux-gnueabihf/sysroot/lib/arm-linux-gnueabihf/libc.so.6
dl_iterate_phdr@GLIBC_2.4                         c:\sysgcc\raspberry\bin\../arm-linux-gnueabihf/sysroot/lib/arm-linux-gnueabihf/libc.so.6
dngettext                                         c:\sysgcc\raspberry\bin\../arm-linux-gnueabihf/sysroot/lib/arm-linux-gnueabihf/libc.so.6
dngettext@@GLIBC_2.4                              c:\sysgcc\raspberry\bin\../arm-linux-gnueabihf/sysroot/lib/arm-linux-gnueabihf/libc.so.6
dngettext@GLIBC_2.4                               c:\sysgcc\raspberry\bin\../arm-linux-gnueabihf/sysroot/lib/arm-linux-gnueabihf/libc.so.6
dup                                               c:\sysgcc\raspberry\bin\../arm-linux-gnueabihf/sysroot/lib/arm-linux-gnueabihf/libc.so.6
dup2                                              c:\sysgcc\raspberry\bin\../arm-linux-gnueabihf/sysroot/lib/arm-linux-gnueabihf/libc.so.6
dup2@@GLIBC_2.4                                   c:\sysgcc\raspberry\bin\../arm-linux-gnueabihf/sysroot/lib/arm-linux-gnueabihf/libc.so.6
dup2@GLIBC_2.4                                    c:\sysgcc\raspberry\bin\../arm-linux-gnueabihf/sysroot/lib/arm-linux-gnueabihf/libc.so.6
dup3                                              c:\sysgcc\raspberry\bin\../arm-linux-gnueabihf/sysroot/lib/arm-linux-gnueabihf/libc.so.6
dup3@@GLIBC_2.9                                   c:\sysgcc\raspberry\bin\../arm-linux-gnueabihf/sysroot/lib/arm-linux-gnueabihf/libc.so.6
dup3@GLIBC_2.9                                    c:\sysgcc\raspberry\bin\../arm-linux-gnueabihf/sysroot/lib/arm-linux-gnueabihf/libc.so.6
dup@@GLIBC_2.4                                    c:\sysgcc\raspberry\bin\../arm-linux-gnueabihf/sysroot/lib/arm-linux-gnueabihf/libc.so.6
dup@GLIBC_2.4                                     c:\sysgcc\raspberry\bin\../arm-linux-gnueabihf/sysroot/lib/arm-linux-gnueabihf/libc.so.6
duplocale                                         c:\sysgcc\raspberry\bin\../arm-linux-gnueabihf/sysroot/lib/arm-linux-gnueabihf/libc.so.6
duplocale@@GLIBC_2.4                              c:\sysgcc\raspberry\bin\../arm-linux-gnueabihf/sysroot/lib/arm-linux-gnueabihf/libc.so.6
duplocale@GLIBC_2.4                               c:\sysgcc\raspberry\bin\../arm-linux-gnueabihf/sysroot/lib/arm-linux-gnueabihf/libc.so.6
eCurrentCursorZone                                obj/Debug/Keyboard_Indicator/Indicator_Variables.o
                                                  obj/Debug/i2c_lcd/lcd.o
                                                  obj/Debug/Keyboard_Indicator/Keypad.o
eKeyboardState                                    obj/Debug/Keyboard_Indicator/Indicator_Variables.o
                                                  obj/Debug/i2c_lcd/lcd.o
                                                  obj/Debug/Keyboard_Indicator/Keypad.o
eSystemState                                      obj/Debug/ThermoControlLibrary/ThermoControlVariables.o
                                                  obj/Debug/i2c_lcd/lcd.o
eVarNumber                                        obj/Debug/Keyboard_Indicator/Indicator_Variables.o
eaccess                                           c:\sysgcc\raspberry\bin\../arm-linux-gnueabihf/sysroot/lib/arm-linux-gnueabihf/libc.so.6
eaccess@@GLIBC_2.4                                c:\sysgcc\raspberry\bin\../arm-linux-gnueabihf/sysroot/lib/arm-linux-gnueabihf/libc.so.6
eaccess@GLIBC_2.4                                 c:\sysgcc\raspberry\bin\../arm-linux-gnueabihf/sysroot/lib/arm-linux-gnueabihf/libc.so.6
ecvt_r                                            c:\sysgcc\raspberry\bin\../arm-linux-gnueabihf/sysroot/lib/arm-linux-gnueabihf/libc.so.6
ecvt_r@@GLIBC_2.4                                 c:\sysgcc\raspberry\bin\../arm-linux-gnueabihf/sysroot/lib/arm-linux-gnueabihf/libc.so.6
ecvt_r@GLIBC_2.4                                  c:\sysgcc\raspberry\bin\../arm-linux-gnueabihf/sysroot/lib/arm-linux-gnueabihf/libc.so.6
endmntent                                         c:\sysgcc\raspberry\bin\../arm-linux-gnueabihf/sysroot/lib/arm-linux-gnueabihf/libc.so.6
endmntent@@GLIBC_2.4                              c:\sysgcc\raspberry\bin\../arm-linux-gnueabihf/sysroot/lib/arm-linux-gnueabihf/libc.so.6
endmntent@GLIBC_2.4                               c:\sysgcc\raspberry\bin\../arm-linux-gnueabihf/sysroot/lib/arm-linux-gnueabihf/libc.so.6
endttyent                                         c:\sysgcc\raspberry\bin\../arm-linux-gnueabihf/sysroot/lib/arm-linux-gnueabihf/libc.so.6
endttyent@@GLIBC_2.4                              c:\sysgcc\raspberry\bin\../arm-linux-gnueabihf/sysroot/lib/arm-linux-gnueabihf/libc.so.6
endttyent@GLIBC_2.4                               c:\sysgcc\raspberry\bin\../arm-linux-gnueabihf/sysroot/lib/arm-linux-gnueabihf/libc.so.6
endutent                                          c:\sysgcc\raspberry\bin\../arm-linux-gnueabihf/sysroot/lib/arm-linux-gnueabihf/libc.so.6
endutent@@GLIBC_2.4                               c:\sysgcc\raspberry\bin\../arm-linux-gnueabihf/sysroot/lib/arm-linux-gnueabihf/libc.so.6
endutent@GLIBC_2.4                                c:\sysgcc\raspberry\bin\../arm-linux-gnueabihf/sysroot/lib/arm-linux-gnueabihf/libc.so.6
environ                                           c:\sysgcc\raspberry\bin\../arm-linux-gnueabihf/sysroot/lib/arm-linux-gnueabihf/libc.so.6
environ@@GLIBC_2.4                                c:\sysgcc\raspberry\bin\../arm-linux-gnueabihf/sysroot/lib/arm-linux-gnueabihf/libc.so.6
environ@GLIBC_2.4                                 c:\sysgcc\raspberry\bin\../arm-linux-gnueabihf/sysroot/lib/arm-linux-gnueabihf/libc.so.6
erand48_r                                         c:\sysgcc\raspberry\bin\../arm-linux-gnueabihf/sysroot/lib/arm-linux-gnueabihf/libc.so.6
erand48_r@@GLIBC_2.4                              c:\sysgcc\raspberry\bin\../arm-linux-gnueabihf/sysroot/lib/arm-linux-gnueabihf/libc.so.6
erand48_r@GLIBC_2.4                               c:\sysgcc\raspberry\bin\../arm-linux-gnueabihf/sysroot/lib/arm-linux-gnueabihf/libc.so.6
error                                             c:\sysgcc\raspberry\bin\../arm-linux-gnueabihf/sysroot/lib/arm-linux-gnueabihf/libc.so.6
error@@GLIBC_2.4                                  c:\sysgcc\raspberry\bin\../arm-linux-gnueabihf/sysroot/lib/arm-linux-gnueabihf/libc.so.6
error@GLIBC_2.4                                   c:\sysgcc\raspberry\bin\../arm-linux-gnueabihf/sysroot/lib/arm-linux-gnueabihf/libc.so.6
error_at_line                                     c:\sysgcc\raspberry\bin\../arm-linux-gnueabihf/sysroot/lib/arm-linux-gnueabihf/libc.so.6
error_at_line@@GLIBC_2.4                          c:\sysgcc\raspberry\bin\../arm-linux-gnueabihf/sysroot/lib/arm-linux-gnueabihf/libc.so.6
error_at_line@GLIBC_2.4                           c:\sysgcc\raspberry\bin\../arm-linux-gnueabihf/sysroot/lib/arm-linux-gnueabihf/libc.so.6
euidaccess                                        c:\sysgcc\raspberry\bin\../arm-linux-gnueabihf/sysroot/lib/arm-linux-gnueabihf/libc.so.6
euidaccess@@GLIBC_2.4                             c:\sysgcc\raspberry\bin\../arm-linux-gnueabihf/sysroot/lib/arm-linux-gnueabihf/libc.so.6
euidaccess@GLIBC_2.4                              c:\sysgcc\raspberry\bin\../arm-linux-gnueabihf/sysroot/lib/arm-linux-gnueabihf/libc.so.6
eventMonitor                                      obj/Debug/pigpio.o
eventSetFunc                                      obj/Debug/pigpio.o
eventSetFuncEx                                    obj/Debug/pigpio.o
eventTrigger                                      obj/Debug/pigpio.o
executeModulControl                               obj/Debug/Executive/modulSPI.o
                                                  obj/Debug/main.o
execve                                            c:\sysgcc\raspberry\bin\../arm-linux-gnueabihf/sysroot/lib/arm-linux-gnueabihf/libc.so.6
execve@@GLIBC_2.4                                 c:\sysgcc\raspberry\bin\../arm-linux-gnueabihf/sysroot/lib/arm-linux-gnueabihf/libc.so.6
execve@GLIBC_2.4                                  c:\sysgcc\raspberry\bin\../arm-linux-gnueabihf/sysroot/lib/arm-linux-gnueabihf/libc.so.6
execvpe                                           c:\sysgcc\raspberry\bin\../arm-linux-gnueabihf/sysroot/lib/arm-linux-gnueabihf/libc.so.6
execvpe@@GLIBC_2.11                               c:\sysgcc\raspberry\bin\../arm-linux-gnueabihf/sysroot/lib/arm-linux-gnueabihf/libc.so.6
execvpe@GLIBC_2.11                                c:\sysgcc\raspberry\bin\../arm-linux-gnueabihf/sysroot/lib/arm-linux-gnueabihf/libc.so.6
exit                                              c:\sysgcc\raspberry\bin\../arm-linux-gnueabihf/sysroot/lib/arm-linux-gnueabihf/libc.so.6
                                                  obj/Debug/i2c_lcd/lcd.o
                                                  obj/Debug/pigpio.o
                                                  obj/Debug/main.o
exit@@GLIBC_2.4                                   c:\sysgcc\raspberry\bin\../arm-linux-gnueabihf/sysroot/lib/arm-linux-gnueabihf/libc.so.6
exit@GLIBC_2.4                                    c:\sysgcc\raspberry\bin\../arm-linux-gnueabihf/sysroot/lib/arm-linux-gnueabihf/libc.so.6
                                                  c:/sysgcc/raspberry/bin/../arm-linux-gnueabihf/sysroot/lib/arm-linux-gnueabihf/libpthread.so
fIndicatorLeds                                    obj/Debug/Keyboard_Indicator/Indicator_Variables.o
fPowerModulStatus                                 obj/Debug/globalvardefs.o
                                                  obj/Debug/UART/uart.o
                                                  obj/Debug/i2c_lcd/lcd.o
                                                  obj/Debug/Executive/additionalMeasurements.o
                                                  obj/Debug/Executive/modulSPI.o
fSystemThreadControl                              obj/Debug/globalvardefs.o
                                                  obj/Debug/i2c_lcd/lcd.o
                                                  obj/Debug/main.o
fUref                                             obj/Debug/ADC/ADC_Unit.o
fchdir                                            c:\sysgcc\raspberry\bin\../arm-linux-gnueabihf/sysroot/lib/arm-linux-gnueabihf/libc.so.6
fchdir@@GLIBC_2.4                                 c:\sysgcc\raspberry\bin\../arm-linux-gnueabihf/sysroot/lib/arm-linux-gnueabihf/libc.so.6
fchdir@GLIBC_2.4                                  c:\sysgcc\raspberry\bin\../arm-linux-gnueabihf/sysroot/lib/arm-linux-gnueabihf/libc.so.6
fchmod                                            c:\sysgcc\raspberry\bin\../arm-linux-gnueabihf/sysroot/lib/arm-linux-gnueabihf/libc.so.6
fchmod@@GLIBC_2.4                                 c:\sysgcc\raspberry\bin\../arm-linux-gnueabihf/sysroot/lib/arm-linux-gnueabihf/libc.so.6
fchmod@GLIBC_2.4                                  c:\sysgcc\raspberry\bin\../arm-linux-gnueabihf/sysroot/lib/arm-linux-gnueabihf/libc.so.6
fchown                                            c:\sysgcc\raspberry\bin\../arm-linux-gnueabihf/sysroot/lib/arm-linux-gnueabihf/libc.so.6
fchown@@GLIBC_2.4                                 c:\sysgcc\raspberry\bin\../arm-linux-gnueabihf/sysroot/lib/arm-linux-gnueabihf/libc.so.6
fchown@GLIBC_2.4                                  c:\sysgcc\raspberry\bin\../arm-linux-gnueabihf/sysroot/lib/arm-linux-gnueabihf/libc.so.6
fclose                                            c:\sysgcc\raspberry\bin\../arm-linux-gnueabihf/sysroot/lib/arm-linux-gnueabihf/libc.so.6
                                                  obj/Debug/diskIO.o
                                                  obj/Debug/pigpio.o
                                                  obj/Debug/bcm2835.o
fclose@@GLIBC_2.4                                 c:\sysgcc\raspberry\bin\../arm-linux-gnueabihf/sysroot/lib/arm-linux-gnueabihf/libc.so.6
fclose@GLIBC_2.4                                  c:\sysgcc\raspberry\bin\../arm-linux-gnueabihf/sysroot/lib/arm-linux-gnueabihf/libc.so.6
                                                  c:/sysgcc/raspberry/bin/../arm-linux-gnueabihf/sysroot/lib/arm-linux-gnueabihf/libpthread.so
fcloseall                                         c:\sysgcc\raspberry\bin\../arm-linux-gnueabihf/sysroot/lib/arm-linux-gnueabihf/libc.so.6
fcloseall@@GLIBC_2.4                              c:\sysgcc\raspberry\bin\../arm-linux-gnueabihf/sysroot/lib/arm-linux-gnueabihf/libc.so.6
fcloseall@GLIBC_2.4                               c:\sysgcc\raspberry\bin\../arm-linux-gnueabihf/sysroot/lib/arm-linux-gnueabihf/libc.so.6
fcntl                                             c:\sysgcc\raspberry\bin\../arm-linux-gnueabihf/sysroot/lib/arm-linux-gnueabihf/libc.so.6
                                                  obj/Debug/pigpio.o
fcntl64                                           c:\sysgcc\raspberry\bin\../arm-linux-gnueabihf/sysroot/lib/arm-linux-gnueabihf/libc.so.6
fcntl64@@GLIBC_2.28                               c:\sysgcc\raspberry\bin\../arm-linux-gnueabihf/sysroot/lib/arm-linux-gnueabihf/libc.so.6
fcntl64@GLIBC_2.28                                c:\sysgcc\raspberry\bin\../arm-linux-gnueabihf/sysroot/lib/arm-linux-gnueabihf/libc.so.6
fcntl@@GLIBC_2.28                                 c:\sysgcc\raspberry\bin\../arm-linux-gnueabihf/sysroot/lib/arm-linux-gnueabihf/libc.so.6
fcntl@GLIBC_2.28                                  c:\sysgcc\raspberry\bin\../arm-linux-gnueabihf/sysroot/lib/arm-linux-gnueabihf/libc.so.6
fcntl@GLIBC_2.4                                   c:/sysgcc/raspberry/bin/../arm-linux-gnueabihf/sysroot/lib/arm-linux-gnueabihf/libpthread.so
                                                  c:\sysgcc\raspberry\bin\../arm-linux-gnueabihf/sysroot/lib/arm-linux-gnueabihf/libc.so.6
fcvt_r                                            c:\sysgcc\raspberry\bin\../arm-linux-gnueabihf/sysroot/lib/arm-linux-gnueabihf/libc.so.6
fcvt_r@@GLIBC_2.4                                 c:\sysgcc\raspberry\bin\../arm-linux-gnueabihf/sysroot/lib/arm-linux-gnueabihf/libc.so.6
fcvt_r@GLIBC_2.4                                  c:\sysgcc\raspberry\bin\../arm-linux-gnueabihf/sysroot/lib/arm-linux-gnueabihf/libc.so.6
fd_PC_Communication                               obj/Debug/UART/uart.o
fdopendir                                         c:\sysgcc\raspberry\bin\../arm-linux-gnueabihf/sysroot/lib/arm-linux-gnueabihf/libc.so.6
fdopendir@@GLIBC_2.4                              c:\sysgcc\raspberry\bin\../arm-linux-gnueabihf/sysroot/lib/arm-linux-gnueabihf/libc.so.6
fdopendir@GLIBC_2.4                               c:\sysgcc\raspberry\bin\../arm-linux-gnueabihf/sysroot/lib/arm-linux-gnueabihf/libc.so.6
feof                                              c:\sysgcc\raspberry\bin\../arm-linux-gnueabihf/sysroot/lib/arm-linux-gnueabihf/libc.so.6
                                                  obj/Debug/pigpio.o
feof@@GLIBC_2.4                                   c:\sysgcc\raspberry\bin\../arm-linux-gnueabihf/sysroot/lib/arm-linux-gnueabihf/libc.so.6
feof@GLIBC_2.4                                    c:\sysgcc\raspberry\bin\../arm-linux-gnueabihf/sysroot/lib/arm-linux-gnueabihf/libc.so.6
feof_unlocked                                     c:\sysgcc\raspberry\bin\../arm-linux-gnueabihf/sysroot/lib/arm-linux-gnueabihf/libc.so.6
feof_unlocked@@GLIBC_2.4                          c:\sysgcc\raspberry\bin\../arm-linux-gnueabihf/sysroot/lib/arm-linux-gnueabihf/libc.so.6
feof_unlocked@GLIBC_2.4                           c:\sysgcc\raspberry\bin\../arm-linux-gnueabihf/sysroot/lib/arm-linux-gnueabihf/libc.so.6
ferror                                            c:\sysgcc\raspberry\bin\../arm-linux-gnueabihf/sysroot/lib/arm-linux-gnueabihf/libc.so.6
ferror@@GLIBC_2.4                                 c:\sysgcc\raspberry\bin\../arm-linux-gnueabihf/sysroot/lib/arm-linux-gnueabihf/libc.so.6
ferror@GLIBC_2.4                                  c:\sysgcc\raspberry\bin\../arm-linux-gnueabihf/sysroot/lib/arm-linux-gnueabihf/libc.so.6
ferror_unlocked                                   c:\sysgcc\raspberry\bin\../arm-linux-gnueabihf/sysroot/lib/arm-linux-gnueabihf/libc.so.6
ferror_unlocked@@GLIBC_2.4                        c:\sysgcc\raspberry\bin\../arm-linux-gnueabihf/sysroot/lib/arm-linux-gnueabihf/libc.so.6
ferror_unlocked@GLIBC_2.4                         c:\sysgcc\raspberry\bin\../arm-linux-gnueabihf/sysroot/lib/arm-linux-gnueabihf/libc.so.6
fflush                                            c:\sysgcc\raspberry\bin\../arm-linux-gnueabihf/sysroot/lib/arm-linux-gnueabihf/libc.so.6
                                                  obj/Debug/pigpio.o
fflush@@GLIBC_2.4                                 c:\sysgcc\raspberry\bin\../arm-linux-gnueabihf/sysroot/lib/arm-linux-gnueabihf/libc.so.6
fflush@GLIBC_2.4                                  c:\sysgcc\raspberry\bin\../arm-linux-gnueabihf/sysroot/lib/arm-linux-gnueabihf/libc.so.6
fflush_unlocked                                   c:\sysgcc\raspberry\bin\../arm-linux-gnueabihf/sysroot/lib/arm-linux-gnueabihf/libc.so.6
fflush_unlocked@@GLIBC_2.4                        c:\sysgcc\raspberry\bin\../arm-linux-gnueabihf/sysroot/lib/arm-linux-gnueabihf/libc.so.6
fflush_unlocked@GLIBC_2.4                         c:\sysgcc\raspberry\bin\../arm-linux-gnueabihf/sysroot/lib/arm-linux-gnueabihf/libc.so.6
ffsl                                              c:\sysgcc\raspberry\bin\../arm-linux-gnueabihf/sysroot/lib/arm-linux-gnueabihf/libc.so.6
ffsl@@GLIBC_2.4                                   c:\sysgcc\raspberry\bin\../arm-linux-gnueabihf/sysroot/lib/arm-linux-gnueabihf/libc.so.6
ffsl@GLIBC_2.4                                    c:\sysgcc\raspberry\bin\../arm-linux-gnueabihf/sysroot/lib/arm-linux-gnueabihf/libc.so.6
fgetc                                             c:\sysgcc\raspberry\bin\../arm-linux-gnueabihf/sysroot/lib/arm-linux-gnueabihf/libc.so.6
fgetc@@GLIBC_2.4                                  c:\sysgcc\raspberry\bin\../arm-linux-gnueabihf/sysroot/lib/arm-linux-gnueabihf/libc.so.6
fgetc@GLIBC_2.4                                   c:\sysgcc\raspberry\bin\../arm-linux-gnueabihf/sysroot/lib/arm-linux-gnueabihf/libc.so.6
fgetc_unlocked                                    c:\sysgcc\raspberry\bin\../arm-linux-gnueabihf/sysroot/lib/arm-linux-gnueabihf/libc.so.6
fgetc_unlocked@@GLIBC_2.4                         c:\sysgcc\raspberry\bin\../arm-linux-gnueabihf/sysroot/lib/arm-linux-gnueabihf/libc.so.6
fgetc_unlocked@GLIBC_2.4                          c:\sysgcc\raspberry\bin\../arm-linux-gnueabihf/sysroot/lib/arm-linux-gnueabihf/libc.so.6
fgetgrent_r                                       c:\sysgcc\raspberry\bin\../arm-linux-gnueabihf/sysroot/lib/arm-linux-gnueabihf/libc.so.6
fgetgrent_r@@GLIBC_2.4                            c:\sysgcc\raspberry\bin\../arm-linux-gnueabihf/sysroot/lib/arm-linux-gnueabihf/libc.so.6
fgetgrent_r@GLIBC_2.4                             c:\sysgcc\raspberry\bin\../arm-linux-gnueabihf/sysroot/lib/arm-linux-gnueabihf/libc.so.6
fgetpwent_r                                       c:\sysgcc\raspberry\bin\../arm-linux-gnueabihf/sysroot/lib/arm-linux-gnueabihf/libc.so.6
fgetpwent_r@@GLIBC_2.4                            c:\sysgcc\raspberry\bin\../arm-linux-gnueabihf/sysroot/lib/arm-linux-gnueabihf/libc.so.6
fgetpwent_r@GLIBC_2.4                             c:\sysgcc\raspberry\bin\../arm-linux-gnueabihf/sysroot/lib/arm-linux-gnueabihf/libc.so.6
fgets                                             c:\sysgcc\raspberry\bin\../arm-linux-gnueabihf/sysroot/lib/arm-linux-gnueabihf/libc.so.6
                                                  obj/Debug/diskIO.o
                                                  obj/Debug/pigpio.o
fgets@@GLIBC_2.4                                  c:\sysgcc\raspberry\bin\../arm-linux-gnueabihf/sysroot/lib/arm-linux-gnueabihf/libc.so.6
fgets@GLIBC_2.4                                   c:\sysgcc\raspberry\bin\../arm-linux-gnueabihf/sysroot/lib/arm-linux-gnueabihf/libc.so.6
fgets_unlocked                                    c:\sysgcc\raspberry\bin\../arm-linux-gnueabihf/sysroot/lib/arm-linux-gnueabihf/libc.so.6
fgets_unlocked@@GLIBC_2.4                         c:\sysgcc\raspberry\bin\../arm-linux-gnueabihf/sysroot/lib/arm-linux-gnueabihf/libc.so.6
fgets_unlocked@GLIBC_2.4                          c:\sysgcc\raspberry\bin\../arm-linux-gnueabihf/sysroot/lib/arm-linux-gnueabihf/libc.so.6
fgetsgent_r                                       c:\sysgcc\raspberry\bin\../arm-linux-gnueabihf/sysroot/lib/arm-linux-gnueabihf/libc.so.6
fgetsgent_r@@GLIBC_2.10                           c:\sysgcc\raspberry\bin\../arm-linux-gnueabihf/sysroot/lib/arm-linux-gnueabihf/libc.so.6
fgetsgent_r@GLIBC_2.10                            c:\sysgcc\raspberry\bin\../arm-linux-gnueabihf/sysroot/lib/arm-linux-gnueabihf/libc.so.6
fgetspent_r                                       c:\sysgcc\raspberry\bin\../arm-linux-gnueabihf/sysroot/lib/arm-linux-gnueabihf/libc.so.6
fgetspent_r@@GLIBC_2.4                            c:\sysgcc\raspberry\bin\../arm-linux-gnueabihf/sysroot/lib/arm-linux-gnueabihf/libc.so.6
fgetspent_r@GLIBC_2.4                             c:\sysgcc\raspberry\bin\../arm-linux-gnueabihf/sysroot/lib/arm-linux-gnueabihf/libc.so.6
fgetwc                                            c:\sysgcc\raspberry\bin\../arm-linux-gnueabihf/sysroot/lib/arm-linux-gnueabihf/libc.so.6
fgetwc@@GLIBC_2.4                                 c:\sysgcc\raspberry\bin\../arm-linux-gnueabihf/sysroot/lib/arm-linux-gnueabihf/libc.so.6
fgetwc@GLIBC_2.4                                  c:\sysgcc\raspberry\bin\../arm-linux-gnueabihf/sysroot/lib/arm-linux-gnueabihf/libc.so.6
fgetwc_unlocked                                   c:\sysgcc\raspberry\bin\../arm-linux-gnueabihf/sysroot/lib/arm-linux-gnueabihf/libc.so.6
fgetwc_unlocked@@GLIBC_2.4                        c:\sysgcc\raspberry\bin\../arm-linux-gnueabihf/sysroot/lib/arm-linux-gnueabihf/libc.so.6
fgetwc_unlocked@GLIBC_2.4                         c:\sysgcc\raspberry\bin\../arm-linux-gnueabihf/sysroot/lib/arm-linux-gnueabihf/libc.so.6
fileApprove                                       obj/Debug/pigpio.o
fileClose                                         obj/Debug/pigpio.o
fileList                                          obj/Debug/pigpio.o
fileOpen                                          obj/Debug/pigpio.o
fileRead                                          obj/Debug/pigpio.o
fileSeek                                          obj/Debug/pigpio.o
fileWrite                                         obj/Debug/pigpio.o
fileno                                            c:\sysgcc\raspberry\bin\../arm-linux-gnueabihf/sysroot/lib/arm-linux-gnueabihf/libc.so.6
                                                  obj/Debug/pigpio.o
fileno@@GLIBC_2.4                                 c:\sysgcc\raspberry\bin\../arm-linux-gnueabihf/sysroot/lib/arm-linux-gnueabihf/libc.so.6
fileno@GLIBC_2.4                                  c:\sysgcc\raspberry\bin\../arm-linux-gnueabihf/sysroot/lib/arm-linux-gnueabihf/libc.so.6
fileno_unlocked                                   c:\sysgcc\raspberry\bin\../arm-linux-gnueabihf/sysroot/lib/arm-linux-gnueabihf/libc.so.6
fileno_unlocked@@GLIBC_2.4                        c:\sysgcc\raspberry\bin\../arm-linux-gnueabihf/sysroot/lib/arm-linux-gnueabihf/libc.so.6
fileno_unlocked@GLIBC_2.4                         c:\sysgcc\raspberry\bin\../arm-linux-gnueabihf/sysroot/lib/arm-linux-gnueabihf/libc.so.6
finite                                            c:\sysgcc\raspberry\bin\../arm-linux-gnueabihf/sysroot/lib/arm-linux-gnueabihf/libc.so.6
finite@@GLIBC_2.4                                 c:\sysgcc\raspberry\bin\../arm-linux-gnueabihf/sysroot/lib/arm-linux-gnueabihf/libc.so.6
finite@GLIBC_2.4                                  c:\sysgcc\raspberry\bin\../arm-linux-gnueabihf/sysroot/lib/arm-linux-gnueabihf/libc.so.6
finitef                                           c:\sysgcc\raspberry\bin\../arm-linux-gnueabihf/sysroot/lib/arm-linux-gnueabihf/libc.so.6
finitef@@GLIBC_2.4                                c:\sysgcc\raspberry\bin\../arm-linux-gnueabihf/sysroot/lib/arm-linux-gnueabihf/libc.so.6
finitef@GLIBC_2.4                                 c:\sysgcc\raspberry\bin\../arm-linux-gnueabihf/sysroot/lib/arm-linux-gnueabihf/libc.so.6
finitel                                           c:\sysgcc\raspberry\bin\../arm-linux-gnueabihf/sysroot/lib/arm-linux-gnueabihf/libc.so.6
finitel@@GLIBC_2.4                                c:\sysgcc\raspberry\bin\../arm-linux-gnueabihf/sysroot/lib/arm-linux-gnueabihf/libc.so.6
finitel@GLIBC_2.4                                 c:\sysgcc\raspberry\bin\../arm-linux-gnueabihf/sysroot/lib/arm-linux-gnueabihf/libc.so.6
flock                                             c:\sysgcc\raspberry\bin\../arm-linux-gnueabihf/sysroot/lib/arm-linux-gnueabihf/libc.so.6
                                                  obj/Debug/pigpio.o
flock@@GLIBC_2.4                                  c:\sysgcc\raspberry\bin\../arm-linux-gnueabihf/sysroot/lib/arm-linux-gnueabihf/libc.so.6
flock@GLIBC_2.4                                   c:\sysgcc\raspberry\bin\../arm-linux-gnueabihf/sysroot/lib/arm-linux-gnueabihf/libc.so.6
flockfile                                         c:/sysgcc/raspberry/bin/../arm-linux-gnueabihf/sysroot/lib/arm-linux-gnueabihf/libpthread.so
flockfile@@GLIBC_2.4                              c:/sysgcc/raspberry/bin/../arm-linux-gnueabihf/sysroot/lib/arm-linux-gnueabihf/libpthread.so
                                                  c:\sysgcc\raspberry\bin\../arm-linux-gnueabihf/sysroot/lib/arm-linux-gnueabihf/libc.so.6
flockfile@GLIBC_2.4                               c:/sysgcc/raspberry/bin/../arm-linux-gnueabihf/sysroot/lib/arm-linux-gnueabihf/libpthread.so
fnmatch                                           c:\sysgcc\raspberry\bin\../arm-linux-gnueabihf/sysroot/lib/arm-linux-gnueabihf/libc.so.6
                                                  obj/Debug/pigpio.o
fnmatch@@GLIBC_2.4                                c:\sysgcc\raspberry\bin\../arm-linux-gnueabihf/sysroot/lib/arm-linux-gnueabihf/libc.so.6
fnmatch@GLIBC_2.4                                 c:\sysgcc\raspberry\bin\../arm-linux-gnueabihf/sysroot/lib/arm-linux-gnueabihf/libc.so.6
fopen                                             c:\sysgcc\raspberry\bin\../arm-linux-gnueabihf/sysroot/lib/arm-linux-gnueabihf/libc.so.6
                                                  obj/Debug/diskIO.o
                                                  obj/Debug/pigpio.o
                                                  obj/Debug/bcm2835.o
fopen64                                           c:\sysgcc\raspberry\bin\../arm-linux-gnueabihf/sysroot/lib/arm-linux-gnueabihf/libc.so.6
fopen64@@GLIBC_2.4                                c:\sysgcc\raspberry\bin\../arm-linux-gnueabihf/sysroot/lib/arm-linux-gnueabihf/libc.so.6
fopen64@GLIBC_2.4                                 c:\sysgcc\raspberry\bin\../arm-linux-gnueabihf/sysroot/lib/arm-linux-gnueabihf/libc.so.6
fopen@@GLIBC_2.4                                  c:\sysgcc\raspberry\bin\../arm-linux-gnueabihf/sysroot/lib/arm-linux-gnueabihf/libc.so.6
fopen@GLIBC_2.4                                   c:\sysgcc\raspberry\bin\../arm-linux-gnueabihf/sysroot/lib/arm-linux-gnueabihf/libc.so.6
                                                  c:/sysgcc/raspberry/bin/../arm-linux-gnueabihf/sysroot/lib/arm-linux-gnueabihf/libpthread.so
fork                                              c:\sysgcc\raspberry\bin\../arm-linux-gnueabihf/sysroot/lib/arm-linux-gnueabihf/libc.so.6
fork@@GLIBC_2.4                                   c:\sysgcc\raspberry\bin\../arm-linux-gnueabihf/sysroot/lib/arm-linux-gnueabihf/libc.so.6
fpathconf                                         c:\sysgcc\raspberry\bin\../arm-linux-gnueabihf/sysroot/lib/arm-linux-gnueabihf/libc.so.6
fpathconf@@GLIBC_2.4                              c:\sysgcc\raspberry\bin\../arm-linux-gnueabihf/sysroot/lib/arm-linux-gnueabihf/libc.so.6
fpathconf@GLIBC_2.4                               c:\sysgcc\raspberry\bin\../arm-linux-gnueabihf/sysroot/lib/arm-linux-gnueabihf/libc.so.6
fprintf                                           c:\sysgcc\raspberry\bin\../arm-linux-gnueabihf/sysroot/lib/arm-linux-gnueabihf/libc.so.6
                                                  obj/Debug/diskIO.o
                                                  obj/Debug/command.o
                                                  obj/Debug/pigpio.o
                                                  obj/Debug/bcm2835.o
                                                  obj/Debug/main.o
fprintf@@GLIBC_2.4                                c:\sysgcc\raspberry\bin\../arm-linux-gnueabihf/sysroot/lib/arm-linux-gnueabihf/libc.so.6
fprintf@GLIBC_2.4                                 c:\sysgcc\raspberry\bin\../arm-linux-gnueabihf/sysroot/lib/arm-linux-gnueabihf/libc.so.6
fputc                                             c:\sysgcc\raspberry\bin\../arm-linux-gnueabihf/sysroot/lib/arm-linux-gnueabihf/libc.so.6
                                                  obj/Debug/diskIO.o
                                                  obj/Debug/pigpio.o
fputc@@GLIBC_2.4                                  c:\sysgcc\raspberry\bin\../arm-linux-gnueabihf/sysroot/lib/arm-linux-gnueabihf/libc.so.6
fputc@GLIBC_2.4                                   c:\sysgcc\raspberry\bin\../arm-linux-gnueabihf/sysroot/lib/arm-linux-gnueabihf/libc.so.6
fputs                                             c:\sysgcc\raspberry\bin\../arm-linux-gnueabihf/sysroot/lib/arm-linux-gnueabihf/libc.so.6
                                                  obj/Debug/pigpio.o
fputs@@GLIBC_2.4                                  c:\sysgcc\raspberry\bin\../arm-linux-gnueabihf/sysroot/lib/arm-linux-gnueabihf/libc.so.6
fputs@GLIBC_2.4                                   c:\sysgcc\raspberry\bin\../arm-linux-gnueabihf/sysroot/lib/arm-linux-gnueabihf/libc.so.6
fputs_unlocked                                    c:\sysgcc\raspberry\bin\../arm-linux-gnueabihf/sysroot/lib/arm-linux-gnueabihf/libc.so.6
fputs_unlocked@@GLIBC_2.4                         c:\sysgcc\raspberry\bin\../arm-linux-gnueabihf/sysroot/lib/arm-linux-gnueabihf/libc.so.6
fputs_unlocked@GLIBC_2.4                          c:\sysgcc\raspberry\bin\../arm-linux-gnueabihf/sysroot/lib/arm-linux-gnueabihf/libc.so.6
fread                                             c:\sysgcc\raspberry\bin\../arm-linux-gnueabihf/sysroot/lib/arm-linux-gnueabihf/libc.so.6
                                                  obj/Debug/pigpio.o
                                                  obj/Debug/bcm2835.o
fread@@GLIBC_2.4                                  c:\sysgcc\raspberry\bin\../arm-linux-gnueabihf/sysroot/lib/arm-linux-gnueabihf/libc.so.6
fread@GLIBC_2.4                                   c:\sysgcc\raspberry\bin\../arm-linux-gnueabihf/sysroot/lib/arm-linux-gnueabihf/libc.so.6
fread_unlocked                                    c:\sysgcc\raspberry\bin\../arm-linux-gnueabihf/sysroot/lib/arm-linux-gnueabihf/libc.so.6
fread_unlocked@@GLIBC_2.4                         c:\sysgcc\raspberry\bin\../arm-linux-gnueabihf/sysroot/lib/arm-linux-gnueabihf/libc.so.6
fread_unlocked@GLIBC_2.4                          c:\sysgcc\raspberry\bin\../arm-linux-gnueabihf/sysroot/lib/arm-linux-gnueabihf/libc.so.6
free                                              c:\sysgcc\raspberry\bin\../arm-linux-gnueabihf/sysroot/lib/arm-linux-gnueabihf/libc.so.6
                                                  obj/Debug/pigpio.o
free@@GLIBC_2.4                                   c:\sysgcc\raspberry\bin\../arm-linux-gnueabihf/sysroot/lib/arm-linux-gnueabihf/libc.so.6
                                                  c:\sysgcc\raspberry\bin\../arm-linux-gnueabihf/sysroot/lib/ld-linux-armhf.so.3
free@GLIBC_2.4                                    c:\sysgcc\raspberry\bin\../arm-linux-gnueabihf/sysroot/lib/arm-linux-gnueabihf/libc.so.6
                                                  c:/sysgcc/raspberry/bin/../arm-linux-gnueabihf/sysroot/lib/arm-linux-gnueabihf/libpthread.so
freeifaddrs                                       c:\sysgcc\raspberry\bin\../arm-linux-gnueabihf/sysroot/lib/arm-linux-gnueabihf/libc.so.6
freeifaddrs@@GLIBC_2.4                            c:\sysgcc\raspberry\bin\../arm-linux-gnueabihf/sysroot/lib/arm-linux-gnueabihf/libc.so.6
freeifaddrs@GLIBC_2.4                             c:\sysgcc\raspberry\bin\../arm-linux-gnueabihf/sysroot/lib/arm-linux-gnueabihf/libc.so.6
freelocale                                        c:\sysgcc\raspberry\bin\../arm-linux-gnueabihf/sysroot/lib/arm-linux-gnueabihf/libc.so.6
freelocale@@GLIBC_2.4                             c:\sysgcc\raspberry\bin\../arm-linux-gnueabihf/sysroot/lib/arm-linux-gnueabihf/libc.so.6
freelocale@GLIBC_2.4                              c:\sysgcc\raspberry\bin\../arm-linux-gnueabihf/sysroot/lib/arm-linux-gnueabihf/libc.so.6
frexp                                             c:\sysgcc\raspberry\bin\../arm-linux-gnueabihf/sysroot/lib/arm-linux-gnueabihf/libc.so.6
frexp@@GLIBC_2.4                                  c:\sysgcc\raspberry\bin\../arm-linux-gnueabihf/sysroot/lib/arm-linux-gnueabihf/libc.so.6
frexp@GLIBC_2.4                                   c:\sysgcc\raspberry\bin\../arm-linux-gnueabihf/sysroot/lib/arm-linux-gnueabihf/libc.so.6
frexpf                                            c:\sysgcc\raspberry\bin\../arm-linux-gnueabihf/sysroot/lib/arm-linux-gnueabihf/libc.so.6
frexpf@@GLIBC_2.4                                 c:\sysgcc\raspberry\bin\../arm-linux-gnueabihf/sysroot/lib/arm-linux-gnueabihf/libc.so.6
frexpf@GLIBC_2.4                                  c:\sysgcc\raspberry\bin\../arm-linux-gnueabihf/sysroot/lib/arm-linux-gnueabihf/libc.so.6
frexpl                                            c:\sysgcc\raspberry\bin\../arm-linux-gnueabihf/sysroot/lib/arm-linux-gnueabihf/libc.so.6
frexpl@@GLIBC_2.4                                 c:\sysgcc\raspberry\bin\../arm-linux-gnueabihf/sysroot/lib/arm-linux-gnueabihf/libc.so.6
frexpl@GLIBC_2.4                                  c:\sysgcc\raspberry\bin\../arm-linux-gnueabihf/sysroot/lib/arm-linux-gnueabihf/libc.so.6
fseeko                                            c:\sysgcc\raspberry\bin\../arm-linux-gnueabihf/sysroot/lib/arm-linux-gnueabihf/libc.so.6
fseeko64                                          c:\sysgcc\raspberry\bin\../arm-linux-gnueabihf/sysroot/lib/arm-linux-gnueabihf/libc.so.6
fseeko64@@GLIBC_2.4                               c:\sysgcc\raspberry\bin\../arm-linux-gnueabihf/sysroot/lib/arm-linux-gnueabihf/libc.so.6
fseeko64@GLIBC_2.4                                c:\sysgcc\raspberry\bin\../arm-linux-gnueabihf/sysroot/lib/arm-linux-gnueabihf/libc.so.6
fseeko@@GLIBC_2.4                                 c:\sysgcc\raspberry\bin\../arm-linux-gnueabihf/sysroot/lib/arm-linux-gnueabihf/libc.so.6
fseeko@GLIBC_2.4                                  c:\sysgcc\raspberry\bin\../arm-linux-gnueabihf/sysroot/lib/arm-linux-gnueabihf/libc.so.6
fstatfs                                           c:\sysgcc\raspberry\bin\../arm-linux-gnueabihf/sysroot/lib/arm-linux-gnueabihf/libc.so.6
fstatfs64                                         c:\sysgcc\raspberry\bin\../arm-linux-gnueabihf/sysroot/lib/arm-linux-gnueabihf/libc.so.6
fstatfs64@@GLIBC_2.4                              c:\sysgcc\raspberry\bin\../arm-linux-gnueabihf/sysroot/lib/arm-linux-gnueabihf/libc.so.6
fstatfs64@GLIBC_2.4                               c:\sysgcc\raspberry\bin\../arm-linux-gnueabihf/sysroot/lib/arm-linux-gnueabihf/libc.so.6
fstatfs@@GLIBC_2.4                                c:\sysgcc\raspberry\bin\../arm-linux-gnueabihf/sysroot/lib/arm-linux-gnueabihf/libc.so.6
fstatfs@GLIBC_2.4                                 c:\sysgcc\raspberry\bin\../arm-linux-gnueabihf/sysroot/lib/arm-linux-gnueabihf/libc.so.6
fstatvfs                                          c:\sysgcc\raspberry\bin\../arm-linux-gnueabihf/sysroot/lib/arm-linux-gnueabihf/libc.so.6
fstatvfs64                                        c:\sysgcc\raspberry\bin\../arm-linux-gnueabihf/sysroot/lib/arm-linux-gnueabihf/libc.so.6
fstatvfs64@@GLIBC_2.4                             c:\sysgcc\raspberry\bin\../arm-linux-gnueabihf/sysroot/lib/arm-linux-gnueabihf/libc.so.6
fstatvfs64@GLIBC_2.4                              c:\sysgcc\raspberry\bin\../arm-linux-gnueabihf/sysroot/lib/arm-linux-gnueabihf/libc.so.6
fstatvfs@@GLIBC_2.4                               c:\sysgcc\raspberry\bin\../arm-linux-gnueabihf/sysroot/lib/arm-linux-gnueabihf/libc.so.6
fstatvfs@GLIBC_2.4                                c:\sysgcc\raspberry\bin\../arm-linux-gnueabihf/sysroot/lib/arm-linux-gnueabihf/libc.so.6
ftell                                             c:\sysgcc\raspberry\bin\../arm-linux-gnueabihf/sysroot/lib/arm-linux-gnueabihf/libc.so.6
ftell@@GLIBC_2.4                                  c:\sysgcc\raspberry\bin\../arm-linux-gnueabihf/sysroot/lib/arm-linux-gnueabihf/libc.so.6
ftell@GLIBC_2.4                                   c:\sysgcc\raspberry\bin\../arm-linux-gnueabihf/sysroot/lib/arm-linux-gnueabihf/libc.so.6
ftello                                            c:\sysgcc\raspberry\bin\../arm-linux-gnueabihf/sysroot/lib/arm-linux-gnueabihf/libc.so.6
ftello64                                          c:\sysgcc\raspberry\bin\../arm-linux-gnueabihf/sysroot/lib/arm-linux-gnueabihf/libc.so.6
ftello64@@GLIBC_2.4                               c:\sysgcc\raspberry\bin\../arm-linux-gnueabihf/sysroot/lib/arm-linux-gnueabihf/libc.so.6
ftello64@GLIBC_2.4                                c:\sysgcc\raspberry\bin\../arm-linux-gnueabihf/sysroot/lib/arm-linux-gnueabihf/libc.so.6
ftello@@GLIBC_2.4                                 c:\sysgcc\raspberry\bin\../arm-linux-gnueabihf/sysroot/lib/arm-linux-gnueabihf/libc.so.6
ftello@GLIBC_2.4                                  c:\sysgcc\raspberry\bin\../arm-linux-gnueabihf/sysroot/lib/arm-linux-gnueabihf/libc.so.6
ftruncate                                         c:\sysgcc\raspberry\bin\../arm-linux-gnueabihf/sysroot/lib/arm-linux-gnueabihf/libc.so.6
ftruncate64                                       c:\sysgcc\raspberry\bin\../arm-linux-gnueabihf/sysroot/lib/arm-linux-gnueabihf/libc.so.6
ftruncate64@@GLIBC_2.4                            c:\sysgcc\raspberry\bin\../arm-linux-gnueabihf/sysroot/lib/arm-linux-gnueabihf/libc.so.6
ftruncate64@GLIBC_2.4                             c:\sysgcc\raspberry\bin\../arm-linux-gnueabihf/sysroot/lib/arm-linux-gnueabihf/libc.so.6
ftruncate@@GLIBC_2.4                              c:\sysgcc\raspberry\bin\../arm-linux-gnueabihf/sysroot/lib/arm-linux-gnueabihf/libc.so.6
ftruncate@GLIBC_2.4                               c:\sysgcc\raspberry\bin\../arm-linux-gnueabihf/sysroot/lib/arm-linux-gnueabihf/libc.so.6
ftrylockfile                                      c:/sysgcc/raspberry/bin/../arm-linux-gnueabihf/sysroot/lib/arm-linux-gnueabihf/libpthread.so
ftrylockfile@@GLIBC_2.4                           c:/sysgcc/raspberry/bin/../arm-linux-gnueabihf/sysroot/lib/arm-linux-gnueabihf/libpthread.so
                                                  c:\sysgcc\raspberry\bin\../arm-linux-gnueabihf/sysroot/lib/arm-linux-gnueabihf/libc.so.6
ftrylockfile@GLIBC_2.4                            c:/sysgcc/raspberry/bin/../arm-linux-gnueabihf/sysroot/lib/arm-linux-gnueabihf/libpthread.so
funlockfile                                       c:/sysgcc/raspberry/bin/../arm-linux-gnueabihf/sysroot/lib/arm-linux-gnueabihf/libpthread.so
funlockfile@@GLIBC_2.4                            c:/sysgcc/raspberry/bin/../arm-linux-gnueabihf/sysroot/lib/arm-linux-gnueabihf/libpthread.so
                                                  c:\sysgcc\raspberry\bin\../arm-linux-gnueabihf/sysroot/lib/arm-linux-gnueabihf/libc.so.6
funlockfile@GLIBC_2.4                             c:/sysgcc/raspberry/bin/../arm-linux-gnueabihf/sysroot/lib/arm-linux-gnueabihf/libpthread.so
futimens                                          c:\sysgcc\raspberry\bin\../arm-linux-gnueabihf/sysroot/lib/arm-linux-gnueabihf/libc.so.6
futimens@@GLIBC_2.6                               c:\sysgcc\raspberry\bin\../arm-linux-gnueabihf/sysroot/lib/arm-linux-gnueabihf/libc.so.6
futimens@GLIBC_2.6                                c:\sysgcc\raspberry\bin\../arm-linux-gnueabihf/sysroot/lib/arm-linux-gnueabihf/libc.so.6
futimes                                           c:\sysgcc\raspberry\bin\../arm-linux-gnueabihf/sysroot/lib/arm-linux-gnueabihf/libc.so.6
futimes@@GLIBC_2.4                                c:\sysgcc\raspberry\bin\../arm-linux-gnueabihf/sysroot/lib/arm-linux-gnueabihf/libc.so.6
futimes@GLIBC_2.4                                 c:\sysgcc\raspberry\bin\../arm-linux-gnueabihf/sysroot/lib/arm-linux-gnueabihf/libc.so.6
fwprintf                                          c:\sysgcc\raspberry\bin\../arm-linux-gnueabihf/sysroot/lib/arm-linux-gnueabihf/libc.so.6
fwprintf@@GLIBC_2.4                               c:\sysgcc\raspberry\bin\../arm-linux-gnueabihf/sysroot/lib/arm-linux-gnueabihf/libc.so.6
fwprintf@GLIBC_2.4                                c:\sysgcc\raspberry\bin\../arm-linux-gnueabihf/sysroot/lib/arm-linux-gnueabihf/libc.so.6
fwrite                                            c:\sysgcc\raspberry\bin\../arm-linux-gnueabihf/sysroot/lib/arm-linux-gnueabihf/libc.so.6
                                                  obj/Debug/diskIO.o
                                                  obj/Debug/pigpio.o
fwrite@@GLIBC_2.4                                 c:\sysgcc\raspberry\bin\../arm-linux-gnueabihf/sysroot/lib/arm-linux-gnueabihf/libc.so.6
fwrite@GLIBC_2.4                                  c:\sysgcc\raspberry\bin\../arm-linux-gnueabihf/sysroot/lib/arm-linux-gnueabihf/libc.so.6
getBitInBytes                                     obj/Debug/pigpio.o
getDirectory                                      obj/Debug/diskIO.o
getMicroVoltsADC                                  obj/Debug/ADC/ADC_Unit.o
                                                  obj/Debug/UART/uart.o
                                                  obj/Debug/i2c_lcd/lcd.o
getPIDcoefs                                       obj/Debug/diskIO.o
                                                  obj/Debug/ThermoControlLibrary/Interpolations.o
getRegulatorOuputs                                obj/Debug/ThermoControlLibrary/PIDCalculs.o
getSensCharacteristic                             obj/Debug/diskIO.o
                                                  obj/Debug/ThermoControlLibrary/Interpolations.o
getSensorData                                     obj/Debug/ADC/ADC_Unit.o
                                                  obj/Debug/ThermoControlLibrary/PIDCalculs.o
getTemperatureSet                                 obj/Debug/ThermoControlLibrary/Interface.o
getTemperatureValue                               obj/Debug/ThermoControlLibrary/Interpolations.o
                                                  obj/Debug/ThermoControlLibrary/PIDCalculs.o
getTemperatures                                   obj/Debug/ThermoControlLibrary/PIDCalculs.o
get_avphys_pages                                  c:\sysgcc\raspberry\bin\../arm-linux-gnueabihf/sysroot/lib/arm-linux-gnueabihf/libc.so.6
get_avphys_pages@@GLIBC_2.4                       c:\sysgcc\raspberry\bin\../arm-linux-gnueabihf/sysroot/lib/arm-linux-gnueabihf/libc.so.6
get_avphys_pages@GLIBC_2.4                        c:\sysgcc\raspberry\bin\../arm-linux-gnueabihf/sysroot/lib/arm-linux-gnueabihf/libc.so.6
get_key                                           obj/Debug/Keyboard_Indicator/Keypad.o
get_nprocs                                        c:\sysgcc\raspberry\bin\../arm-linux-gnueabihf/sysroot/lib/arm-linux-gnueabihf/libc.so.6
get_nprocs@@GLIBC_2.4                             c:\sysgcc\raspberry\bin\../arm-linux-gnueabihf/sysroot/lib/arm-linux-gnueabihf/libc.so.6
get_nprocs@GLIBC_2.4                              c:\sysgcc\raspberry\bin\../arm-linux-gnueabihf/sysroot/lib/arm-linux-gnueabihf/libc.so.6
get_nprocs_conf                                   c:\sysgcc\raspberry\bin\../arm-linux-gnueabihf/sysroot/lib/arm-linux-gnueabihf/libc.so.6
get_nprocs_conf@@GLIBC_2.4                        c:\sysgcc\raspberry\bin\../arm-linux-gnueabihf/sysroot/lib/arm-linux-gnueabihf/libc.so.6
get_nprocs_conf@GLIBC_2.4                         c:\sysgcc\raspberry\bin\../arm-linux-gnueabihf/sysroot/lib/arm-linux-gnueabihf/libc.so.6
get_phys_pages                                    c:\sysgcc\raspberry\bin\../arm-linux-gnueabihf/sysroot/lib/arm-linux-gnueabihf/libc.so.6
get_phys_pages@@GLIBC_2.4                         c:\sysgcc\raspberry\bin\../arm-linux-gnueabihf/sysroot/lib/arm-linux-gnueabihf/libc.so.6
get_phys_pages@GLIBC_2.4                          c:\sysgcc\raspberry\bin\../arm-linux-gnueabihf/sysroot/lib/arm-linux-gnueabihf/libc.so.6
getauxval                                         c:\sysgcc\raspberry\bin\../arm-linux-gnueabihf/sysroot/lib/arm-linux-gnueabihf/libc.so.6
getauxval@@GLIBC_2.16                             c:\sysgcc\raspberry\bin\../arm-linux-gnueabihf/sysroot/lib/arm-linux-gnueabihf/libc.so.6
getauxval@GLIBC_2.16                              c:\sysgcc\raspberry\bin\../arm-linux-gnueabihf/sysroot/lib/arm-linux-gnueabihf/libc.so.6
getc                                              c:\sysgcc\raspberry\bin\../arm-linux-gnueabihf/sysroot/lib/arm-linux-gnueabihf/libc.so.6
getc@@GLIBC_2.4                                   c:\sysgcc\raspberry\bin\../arm-linux-gnueabihf/sysroot/lib/arm-linux-gnueabihf/libc.so.6
getc@GLIBC_2.4                                    c:\sysgcc\raspberry\bin\../arm-linux-gnueabihf/sysroot/lib/arm-linux-gnueabihf/libc.so.6
getc_unlocked                                     c:\sysgcc\raspberry\bin\../arm-linux-gnueabihf/sysroot/lib/arm-linux-gnueabihf/libc.so.6
getc_unlocked@@GLIBC_2.4                          c:\sysgcc\raspberry\bin\../arm-linux-gnueabihf/sysroot/lib/arm-linux-gnueabihf/libc.so.6
getc_unlocked@GLIBC_2.4                           c:\sysgcc\raspberry\bin\../arm-linux-gnueabihf/sysroot/lib/arm-linux-gnueabihf/libc.so.6
getcontext                                        c:\sysgcc\raspberry\bin\../arm-linux-gnueabihf/sysroot/lib/arm-linux-gnueabihf/libc.so.6
getcontext@@GLIBC_2.4                             c:\sysgcc\raspberry\bin\../arm-linux-gnueabihf/sysroot/lib/arm-linux-gnueabihf/libc.so.6
getcontext@GLIBC_2.4                              c:\sysgcc\raspberry\bin\../arm-linux-gnueabihf/sysroot/lib/arm-linux-gnueabihf/libc.so.6
getcpu                                            c:\sysgcc\raspberry\bin\../arm-linux-gnueabihf/sysroot/lib/arm-linux-gnueabihf/libc.so.6
getcpu@@GLIBC_2.29                                c:\sysgcc\raspberry\bin\../arm-linux-gnueabihf/sysroot/lib/arm-linux-gnueabihf/libc.so.6
getcpu@GLIBC_2.29                                 c:\sysgcc\raspberry\bin\../arm-linux-gnueabihf/sysroot/lib/arm-linux-gnueabihf/libc.so.6
getcwd                                            c:\sysgcc\raspberry\bin\../arm-linux-gnueabihf/sysroot/lib/arm-linux-gnueabihf/libc.so.6
                                                  obj/Debug/diskIO.o
getcwd@@GLIBC_2.4                                 c:\sysgcc\raspberry\bin\../arm-linux-gnueabihf/sysroot/lib/arm-linux-gnueabihf/libc.so.6
getcwd@GLIBC_2.4                                  c:\sysgcc\raspberry\bin\../arm-linux-gnueabihf/sysroot/lib/arm-linux-gnueabihf/libc.so.6
getdate_r                                         c:\sysgcc\raspberry\bin\../arm-linux-gnueabihf/sysroot/lib/arm-linux-gnueabihf/libc.so.6
getdate_r@@GLIBC_2.4                              c:\sysgcc\raspberry\bin\../arm-linux-gnueabihf/sysroot/lib/arm-linux-gnueabihf/libc.so.6
getdate_r@GLIBC_2.4                               c:\sysgcc\raspberry\bin\../arm-linux-gnueabihf/sysroot/lib/arm-linux-gnueabihf/libc.so.6
getdelim                                          c:\sysgcc\raspberry\bin\../arm-linux-gnueabihf/sysroot/lib/arm-linux-gnueabihf/libc.so.6
getdelim@@GLIBC_2.4                               c:\sysgcc\raspberry\bin\../arm-linux-gnueabihf/sysroot/lib/arm-linux-gnueabihf/libc.so.6
getdelim@GLIBC_2.4                                c:\sysgcc\raspberry\bin\../arm-linux-gnueabihf/sysroot/lib/arm-linux-gnueabihf/libc.so.6
getdents64                                        c:\sysgcc\raspberry\bin\../arm-linux-gnueabihf/sysroot/lib/arm-linux-gnueabihf/libc.so.6
getdents64@@GLIBC_2.30                            c:\sysgcc\raspberry\bin\../arm-linux-gnueabihf/sysroot/lib/arm-linux-gnueabihf/libc.so.6
getdents64@GLIBC_2.30                             c:\sysgcc\raspberry\bin\../arm-linux-gnueabihf/sysroot/lib/arm-linux-gnueabihf/libc.so.6
getdtablesize                                     c:\sysgcc\raspberry\bin\../arm-linux-gnueabihf/sysroot/lib/arm-linux-gnueabihf/libc.so.6
getdtablesize@@GLIBC_2.4                          c:\sysgcc\raspberry\bin\../arm-linux-gnueabihf/sysroot/lib/arm-linux-gnueabihf/libc.so.6
getdtablesize@GLIBC_2.4                           c:\sysgcc\raspberry\bin\../arm-linux-gnueabihf/sysroot/lib/arm-linux-gnueabihf/libc.so.6
getegid                                           c:\sysgcc\raspberry\bin\../arm-linux-gnueabihf/sysroot/lib/arm-linux-gnueabihf/libc.so.6
getegid@@GLIBC_2.4                                c:\sysgcc\raspberry\bin\../arm-linux-gnueabihf/sysroot/lib/arm-linux-gnueabihf/libc.so.6
getegid@GLIBC_2.4                                 c:\sysgcc\raspberry\bin\../arm-linux-gnueabihf/sysroot/lib/arm-linux-gnueabihf/libc.so.6
getenv                                            c:\sysgcc\raspberry\bin\../arm-linux-gnueabihf/sysroot/lib/arm-linux-gnueabihf/libc.so.6
                                                  obj/Debug/pigpio.o
getenv@@GLIBC_2.4                                 c:\sysgcc\raspberry\bin\../arm-linux-gnueabihf/sysroot/lib/arm-linux-gnueabihf/libc.so.6
getenv@GLIBC_2.4                                  c:\sysgcc\raspberry\bin\../arm-linux-gnueabihf/sysroot/lib/arm-linux-gnueabihf/libc.so.6
geteuid                                           c:\sysgcc\raspberry\bin\../arm-linux-gnueabihf/sysroot/lib/arm-linux-gnueabihf/libc.so.6
                                                  obj/Debug/bcm2835.o
geteuid@@GLIBC_2.4                                c:\sysgcc\raspberry\bin\../arm-linux-gnueabihf/sysroot/lib/arm-linux-gnueabihf/libc.so.6
geteuid@GLIBC_2.4                                 c:\sysgcc\raspberry\bin\../arm-linux-gnueabihf/sysroot/lib/arm-linux-gnueabihf/libc.so.6
getgid                                            c:\sysgcc\raspberry\bin\../arm-linux-gnueabihf/sysroot/lib/arm-linux-gnueabihf/libc.so.6
getgid@@GLIBC_2.4                                 c:\sysgcc\raspberry\bin\../arm-linux-gnueabihf/sysroot/lib/arm-linux-gnueabihf/libc.so.6
getgid@GLIBC_2.4                                  c:\sysgcc\raspberry\bin\../arm-linux-gnueabihf/sysroot/lib/arm-linux-gnueabihf/libc.so.6
getgroups                                         c:\sysgcc\raspberry\bin\../arm-linux-gnueabihf/sysroot/lib/arm-linux-gnueabihf/libc.so.6
getgroups@@GLIBC_2.4                              c:\sysgcc\raspberry\bin\../arm-linux-gnueabihf/sysroot/lib/arm-linux-gnueabihf/libc.so.6
getgroups@GLIBC_2.4                               c:\sysgcc\raspberry\bin\../arm-linux-gnueabihf/sysroot/lib/arm-linux-gnueabihf/libc.so.6
gethostname                                       c:\sysgcc\raspberry\bin\../arm-linux-gnueabihf/sysroot/lib/arm-linux-gnueabihf/libc.so.6
gethostname@@GLIBC_2.4                            c:\sysgcc\raspberry\bin\../arm-linux-gnueabihf/sysroot/lib/arm-linux-gnueabihf/libc.so.6
gethostname@GLIBC_2.4                             c:\sysgcc\raspberry\bin\../arm-linux-gnueabihf/sysroot/lib/arm-linux-gnueabihf/libc.so.6
getifaddrs                                        c:\sysgcc\raspberry\bin\../arm-linux-gnueabihf/sysroot/lib/arm-linux-gnueabihf/libc.so.6
getifaddrs@@GLIBC_2.4                             c:\sysgcc\raspberry\bin\../arm-linux-gnueabihf/sysroot/lib/arm-linux-gnueabihf/libc.so.6
getifaddrs@GLIBC_2.4                              c:\sysgcc\raspberry\bin\../arm-linux-gnueabihf/sysroot/lib/arm-linux-gnueabihf/libc.so.6
getitimer                                         c:\sysgcc\raspberry\bin\../arm-linux-gnueabihf/sysroot/lib/arm-linux-gnueabihf/libc.so.6
getitimer@@GLIBC_2.4                              c:\sysgcc\raspberry\bin\../arm-linux-gnueabihf/sysroot/lib/arm-linux-gnueabihf/libc.so.6
getitimer@GLIBC_2.4                               c:\sysgcc\raspberry\bin\../arm-linux-gnueabihf/sysroot/lib/arm-linux-gnueabihf/libc.so.6
getline                                           c:\sysgcc\raspberry\bin\../arm-linux-gnueabihf/sysroot/lib/arm-linux-gnueabihf/libc.so.6
getline@@GLIBC_2.4                                c:\sysgcc\raspberry\bin\../arm-linux-gnueabihf/sysroot/lib/arm-linux-gnueabihf/libc.so.6
getline@GLIBC_2.4                                 c:\sysgcc\raspberry\bin\../arm-linux-gnueabihf/sysroot/lib/arm-linux-gnueabihf/libc.so.6
getlogin_r                                        c:\sysgcc\raspberry\bin\../arm-linux-gnueabihf/sysroot/lib/arm-linux-gnueabihf/libc.so.6
getlogin_r@@GLIBC_2.4                             c:\sysgcc\raspberry\bin\../arm-linux-gnueabihf/sysroot/lib/arm-linux-gnueabihf/libc.so.6
getlogin_r@GLIBC_2.4                              c:\sysgcc\raspberry\bin\../arm-linux-gnueabihf/sysroot/lib/arm-linux-gnueabihf/libc.so.6
getmntent_r                                       c:\sysgcc\raspberry\bin\../arm-linux-gnueabihf/sysroot/lib/arm-linux-gnueabihf/libc.so.6
getmntent_r@@GLIBC_2.4                            c:\sysgcc\raspberry\bin\../arm-linux-gnueabihf/sysroot/lib/arm-linux-gnueabihf/libc.so.6
getmntent_r@GLIBC_2.4                             c:\sysgcc\raspberry\bin\../arm-linux-gnueabihf/sysroot/lib/arm-linux-gnueabihf/libc.so.6
getnetgrent_r                                     c:\sysgcc\raspberry\bin\../arm-linux-gnueabihf/sysroot/lib/arm-linux-gnueabihf/libc.so.6
getnetgrent_r@@GLIBC_2.4                          c:\sysgcc\raspberry\bin\../arm-linux-gnueabihf/sysroot/lib/arm-linux-gnueabihf/libc.so.6
getnetgrent_r@GLIBC_2.4                           c:\sysgcc\raspberry\bin\../arm-linux-gnueabihf/sysroot/lib/arm-linux-gnueabihf/libc.so.6
getpagesize                                       c:\sysgcc\raspberry\bin\../arm-linux-gnueabihf/sysroot/lib/arm-linux-gnueabihf/libc.so.6
getpagesize@@GLIBC_2.4                            c:\sysgcc\raspberry\bin\../arm-linux-gnueabihf/sysroot/lib/arm-linux-gnueabihf/libc.so.6
getpagesize@GLIBC_2.4                             c:\sysgcc\raspberry\bin\../arm-linux-gnueabihf/sysroot/lib/arm-linux-gnueabihf/libc.so.6
getpeername                                       c:\sysgcc\raspberry\bin\../arm-linux-gnueabihf/sysroot/lib/arm-linux-gnueabihf/libc.so.6
getpeername@@GLIBC_2.4                            c:\sysgcc\raspberry\bin\../arm-linux-gnueabihf/sysroot/lib/arm-linux-gnueabihf/libc.so.6
getpeername@GLIBC_2.4                             c:\sysgcc\raspberry\bin\../arm-linux-gnueabihf/sysroot/lib/arm-linux-gnueabihf/libc.so.6
getpgid                                           c:\sysgcc\raspberry\bin\../arm-linux-gnueabihf/sysroot/lib/arm-linux-gnueabihf/libc.so.6
getpgid@@GLIBC_2.4                                c:\sysgcc\raspberry\bin\../arm-linux-gnueabihf/sysroot/lib/arm-linux-gnueabihf/libc.so.6
getpgid@GLIBC_2.4                                 c:\sysgcc\raspberry\bin\../arm-linux-gnueabihf/sysroot/lib/arm-linux-gnueabihf/libc.so.6
getpid                                            c:\sysgcc\raspberry\bin\../arm-linux-gnueabihf/sysroot/lib/arm-linux-gnueabihf/libc.so.6
                                                  obj/Debug/pigpio.o
getpid@@GLIBC_2.4                                 c:\sysgcc\raspberry\bin\../arm-linux-gnueabihf/sysroot/lib/arm-linux-gnueabihf/libc.so.6
getpid@GLIBC_2.4                                  c:\sysgcc\raspberry\bin\../arm-linux-gnueabihf/sysroot/lib/arm-linux-gnueabihf/libc.so.6
                                                  c:/sysgcc/raspberry/bin/../arm-linux-gnueabihf/sysroot/lib/arm-linux-gnueabihf/libpthread.so
getppid                                           c:\sysgcc\raspberry\bin\../arm-linux-gnueabihf/sysroot/lib/arm-linux-gnueabihf/libc.so.6
getppid@@GLIBC_2.4                                c:\sysgcc\raspberry\bin\../arm-linux-gnueabihf/sysroot/lib/arm-linux-gnueabihf/libc.so.6
getppid@GLIBC_2.4                                 c:\sysgcc\raspberry\bin\../arm-linux-gnueabihf/sysroot/lib/arm-linux-gnueabihf/libc.so.6
getpriority                                       c:\sysgcc\raspberry\bin\../arm-linux-gnueabihf/sysroot/lib/arm-linux-gnueabihf/libc.so.6
getpriority@@GLIBC_2.4                            c:\sysgcc\raspberry\bin\../arm-linux-gnueabihf/sysroot/lib/arm-linux-gnueabihf/libc.so.6
getpriority@GLIBC_2.4                             c:\sysgcc\raspberry\bin\../arm-linux-gnueabihf/sysroot/lib/arm-linux-gnueabihf/libc.so.6
getpt                                             c:\sysgcc\raspberry\bin\../arm-linux-gnueabihf/sysroot/lib/arm-linux-gnueabihf/libc.so.6
getpt@@GLIBC_2.4                                  c:\sysgcc\raspberry\bin\../arm-linux-gnueabihf/sysroot/lib/arm-linux-gnueabihf/libc.so.6
getpt@GLIBC_2.4                                   c:\sysgcc\raspberry\bin\../arm-linux-gnueabihf/sysroot/lib/arm-linux-gnueabihf/libc.so.6
getpw                                             c:\sysgcc\raspberry\bin\../arm-linux-gnueabihf/sysroot/lib/arm-linux-gnueabihf/libc.so.6
getpw@@GLIBC_2.4                                  c:\sysgcc\raspberry\bin\../arm-linux-gnueabihf/sysroot/lib/arm-linux-gnueabihf/libc.so.6
getpw@GLIBC_2.4                                   c:\sysgcc\raspberry\bin\../arm-linux-gnueabihf/sysroot/lib/arm-linux-gnueabihf/libc.so.6
getrandom                                         c:\sysgcc\raspberry\bin\../arm-linux-gnueabihf/sysroot/lib/arm-linux-gnueabihf/libc.so.6
getrandom@@GLIBC_2.25                             c:\sysgcc\raspberry\bin\../arm-linux-gnueabihf/sysroot/lib/arm-linux-gnueabihf/libc.so.6
getrandom@GLIBC_2.25                              c:\sysgcc\raspberry\bin\../arm-linux-gnueabihf/sysroot/lib/arm-linux-gnueabihf/libc.so.6
getresgid                                         c:\sysgcc\raspberry\bin\../arm-linux-gnueabihf/sysroot/lib/arm-linux-gnueabihf/libc.so.6
getresgid@@GLIBC_2.4                              c:\sysgcc\raspberry\bin\../arm-linux-gnueabihf/sysroot/lib/arm-linux-gnueabihf/libc.so.6
getresgid@GLIBC_2.4                               c:\sysgcc\raspberry\bin\../arm-linux-gnueabihf/sysroot/lib/arm-linux-gnueabihf/libc.so.6
getresuid                                         c:\sysgcc\raspberry\bin\../arm-linux-gnueabihf/sysroot/lib/arm-linux-gnueabihf/libc.so.6
getresuid@@GLIBC_2.4                              c:\sysgcc\raspberry\bin\../arm-linux-gnueabihf/sysroot/lib/arm-linux-gnueabihf/libc.so.6
getresuid@GLIBC_2.4                               c:\sysgcc\raspberry\bin\../arm-linux-gnueabihf/sysroot/lib/arm-linux-gnueabihf/libc.so.6
getrlimit                                         c:\sysgcc\raspberry\bin\../arm-linux-gnueabihf/sysroot/lib/arm-linux-gnueabihf/libc.so.6
getrlimit64                                       c:\sysgcc\raspberry\bin\../arm-linux-gnueabihf/sysroot/lib/arm-linux-gnueabihf/libc.so.6
getrlimit64@@GLIBC_2.4                            c:\sysgcc\raspberry\bin\../arm-linux-gnueabihf/sysroot/lib/arm-linux-gnueabihf/libc.so.6
getrlimit64@GLIBC_2.4                             c:\sysgcc\raspberry\bin\../arm-linux-gnueabihf/sysroot/lib/arm-linux-gnueabihf/libc.so.6
getrlimit@@GLIBC_2.4                              c:\sysgcc\raspberry\bin\../arm-linux-gnueabihf/sysroot/lib/arm-linux-gnueabihf/libc.so.6
getrlimit@GLIBC_2.4                               c:\sysgcc\raspberry\bin\../arm-linux-gnueabihf/sysroot/lib/arm-linux-gnueabihf/libc.so.6
                                                  c:/sysgcc/raspberry/bin/../arm-linux-gnueabihf/sysroot/lib/arm-linux-gnueabihf/libpthread.so
getrusage                                         c:\sysgcc\raspberry\bin\../arm-linux-gnueabihf/sysroot/lib/arm-linux-gnueabihf/libc.so.6
getrusage@@GLIBC_2.4                              c:\sysgcc\raspberry\bin\../arm-linux-gnueabihf/sysroot/lib/arm-linux-gnueabihf/libc.so.6
getrusage@GLIBC_2.4                               c:\sysgcc\raspberry\bin\../arm-linux-gnueabihf/sysroot/lib/arm-linux-gnueabihf/libc.so.6
gets                                              c:\sysgcc\raspberry\bin\../arm-linux-gnueabihf/sysroot/lib/arm-linux-gnueabihf/libc.so.6
gets@@GLIBC_2.4                                   c:\sysgcc\raspberry\bin\../arm-linux-gnueabihf/sysroot/lib/arm-linux-gnueabihf/libc.so.6
gets@GLIBC_2.4                                    c:\sysgcc\raspberry\bin\../arm-linux-gnueabihf/sysroot/lib/arm-linux-gnueabihf/libc.so.6
getsockname                                       c:\sysgcc\raspberry\bin\../arm-linux-gnueabihf/sysroot/lib/arm-linux-gnueabihf/libc.so.6
getsockname@@GLIBC_2.4                            c:\sysgcc\raspberry\bin\../arm-linux-gnueabihf/sysroot/lib/arm-linux-gnueabihf/libc.so.6
getsockname@GLIBC_2.4                             c:\sysgcc\raspberry\bin\../arm-linux-gnueabihf/sysroot/lib/arm-linux-gnueabihf/libc.so.6
getsockopt                                        c:\sysgcc\raspberry\bin\../arm-linux-gnueabihf/sysroot/lib/arm-linux-gnueabihf/libc.so.6
getsockopt@@GLIBC_2.4                             c:\sysgcc\raspberry\bin\../arm-linux-gnueabihf/sysroot/lib/arm-linux-gnueabihf/libc.so.6
getsockopt@GLIBC_2.4                              c:\sysgcc\raspberry\bin\../arm-linux-gnueabihf/sysroot/lib/arm-linux-gnueabihf/libc.so.6
gettext                                           c:\sysgcc\raspberry\bin\../arm-linux-gnueabihf/sysroot/lib/arm-linux-gnueabihf/libc.so.6
gettext@@GLIBC_2.4                                c:\sysgcc\raspberry\bin\../arm-linux-gnueabihf/sysroot/lib/arm-linux-gnueabihf/libc.so.6
gettext@GLIBC_2.4                                 c:\sysgcc\raspberry\bin\../arm-linux-gnueabihf/sysroot/lib/arm-linux-gnueabihf/libc.so.6
gettid                                            c:\sysgcc\raspberry\bin\../arm-linux-gnueabihf/sysroot/lib/arm-linux-gnueabihf/libc.so.6
gettid@@GLIBC_2.30                                c:\sysgcc\raspberry\bin\../arm-linux-gnueabihf/sysroot/lib/arm-linux-gnueabihf/libc.so.6
gettid@GLIBC_2.30                                 c:\sysgcc\raspberry\bin\../arm-linux-gnueabihf/sysroot/lib/arm-linux-gnueabihf/libc.so.6
gettimeofday                                      c:\sysgcc\raspberry\bin\../arm-linux-gnueabihf/sysroot/lib/arm-linux-gnueabihf/libc.so.6
                                                  obj/Debug/pigpio.o
gettimeofday@@GLIBC_2.4                           c:\sysgcc\raspberry\bin\../arm-linux-gnueabihf/sysroot/lib/arm-linux-gnueabihf/libc.so.6
gettimeofday@GLIBC_2.4                            c:\sysgcc\raspberry\bin\../arm-linux-gnueabihf/sysroot/lib/arm-linux-gnueabihf/libc.so.6
getttyent                                         c:\sysgcc\raspberry\bin\../arm-linux-gnueabihf/sysroot/lib/arm-linux-gnueabihf/libc.so.6
getttyent@@GLIBC_2.4                              c:\sysgcc\raspberry\bin\../arm-linux-gnueabihf/sysroot/lib/arm-linux-gnueabihf/libc.so.6
getttyent@GLIBC_2.4                               c:\sysgcc\raspberry\bin\../arm-linux-gnueabihf/sysroot/lib/arm-linux-gnueabihf/libc.so.6
getttynam                                         c:\sysgcc\raspberry\bin\../arm-linux-gnueabihf/sysroot/lib/arm-linux-gnueabihf/libc.so.6
getttynam@@GLIBC_2.4                              c:\sysgcc\raspberry\bin\../arm-linux-gnueabihf/sysroot/lib/arm-linux-gnueabihf/libc.so.6
getttynam@GLIBC_2.4                               c:\sysgcc\raspberry\bin\../arm-linux-gnueabihf/sysroot/lib/arm-linux-gnueabihf/libc.so.6
getuid                                            c:\sysgcc\raspberry\bin\../arm-linux-gnueabihf/sysroot/lib/arm-linux-gnueabihf/libc.so.6
getuid@@GLIBC_2.4                                 c:\sysgcc\raspberry\bin\../arm-linux-gnueabihf/sysroot/lib/arm-linux-gnueabihf/libc.so.6
getuid@GLIBC_2.4                                  c:\sysgcc\raspberry\bin\../arm-linux-gnueabihf/sysroot/lib/arm-linux-gnueabihf/libc.so.6
                                                  c:/sysgcc/raspberry/bin/../arm-linux-gnueabihf/sysroot/lib/arm-linux-gnueabihf/libpthread.so
getutent                                          c:\sysgcc\raspberry\bin\../arm-linux-gnueabihf/sysroot/lib/arm-linux-gnueabihf/libc.so.6
getutent@@GLIBC_2.4                               c:\sysgcc\raspberry\bin\../arm-linux-gnueabihf/sysroot/lib/arm-linux-gnueabihf/libc.so.6
getutent@GLIBC_2.4                                c:\sysgcc\raspberry\bin\../arm-linux-gnueabihf/sysroot/lib/arm-linux-gnueabihf/libc.so.6
getutent_r                                        c:\sysgcc\raspberry\bin\../arm-linux-gnueabihf/sysroot/lib/arm-linux-gnueabihf/libc.so.6
getutent_r@@GLIBC_2.4                             c:\sysgcc\raspberry\bin\../arm-linux-gnueabihf/sysroot/lib/arm-linux-gnueabihf/libc.so.6
getutent_r@GLIBC_2.4                              c:\sysgcc\raspberry\bin\../arm-linux-gnueabihf/sysroot/lib/arm-linux-gnueabihf/libc.so.6
getutid                                           c:\sysgcc\raspberry\bin\../arm-linux-gnueabihf/sysroot/lib/arm-linux-gnueabihf/libc.so.6
getutid@@GLIBC_2.4                                c:\sysgcc\raspberry\bin\../arm-linux-gnueabihf/sysroot/lib/arm-linux-gnueabihf/libc.so.6
getutid@GLIBC_2.4                                 c:\sysgcc\raspberry\bin\../arm-linux-gnueabihf/sysroot/lib/arm-linux-gnueabihf/libc.so.6
getutid_r                                         c:\sysgcc\raspberry\bin\../arm-linux-gnueabihf/sysroot/lib/arm-linux-gnueabihf/libc.so.6
getutid_r@@GLIBC_2.4                              c:\sysgcc\raspberry\bin\../arm-linux-gnueabihf/sysroot/lib/arm-linux-gnueabihf/libc.so.6
getutid_r@GLIBC_2.4                               c:\sysgcc\raspberry\bin\../arm-linux-gnueabihf/sysroot/lib/arm-linux-gnueabihf/libc.so.6
getutline                                         c:\sysgcc\raspberry\bin\../arm-linux-gnueabihf/sysroot/lib/arm-linux-gnueabihf/libc.so.6
getutline@@GLIBC_2.4                              c:\sysgcc\raspberry\bin\../arm-linux-gnueabihf/sysroot/lib/arm-linux-gnueabihf/libc.so.6
getutline@GLIBC_2.4                               c:\sysgcc\raspberry\bin\../arm-linux-gnueabihf/sysroot/lib/arm-linux-gnueabihf/libc.so.6
getutline_r                                       c:\sysgcc\raspberry\bin\../arm-linux-gnueabihf/sysroot/lib/arm-linux-gnueabihf/libc.so.6
getutline_r@@GLIBC_2.4                            c:\sysgcc\raspberry\bin\../arm-linux-gnueabihf/sysroot/lib/arm-linux-gnueabihf/libc.so.6
getutline_r@GLIBC_2.4                             c:\sysgcc\raspberry\bin\../arm-linux-gnueabihf/sysroot/lib/arm-linux-gnueabihf/libc.so.6
getwc                                             c:\sysgcc\raspberry\bin\../arm-linux-gnueabihf/sysroot/lib/arm-linux-gnueabihf/libc.so.6
getwc@@GLIBC_2.4                                  c:\sysgcc\raspberry\bin\../arm-linux-gnueabihf/sysroot/lib/arm-linux-gnueabihf/libc.so.6
getwc@GLIBC_2.4                                   c:\sysgcc\raspberry\bin\../arm-linux-gnueabihf/sysroot/lib/arm-linux-gnueabihf/libc.so.6
getwc_unlocked                                    c:\sysgcc\raspberry\bin\../arm-linux-gnueabihf/sysroot/lib/arm-linux-gnueabihf/libc.so.6
getwc_unlocked@@GLIBC_2.4                         c:\sysgcc\raspberry\bin\../arm-linux-gnueabihf/sysroot/lib/arm-linux-gnueabihf/libc.so.6
getwc_unlocked@GLIBC_2.4                          c:\sysgcc\raspberry\bin\../arm-linux-gnueabihf/sysroot/lib/arm-linux-gnueabihf/libc.so.6
glob                                              c:\sysgcc\raspberry\bin\../arm-linux-gnueabihf/sysroot/lib/arm-linux-gnueabihf/libc.so.6
                                                  obj/Debug/pigpio.o
glob@@GLIBC_2.27                                  c:\sysgcc\raspberry\bin\../arm-linux-gnueabihf/sysroot/lib/arm-linux-gnueabihf/libc.so.6
glob@GLIBC_2.27                                   c:\sysgcc\raspberry\bin\../arm-linux-gnueabihf/sysroot/lib/arm-linux-gnueabihf/libc.so.6
glob_pattern_p                                    c:\sysgcc\raspberry\bin\../arm-linux-gnueabihf/sysroot/lib/arm-linux-gnueabihf/libc.so.6
glob_pattern_p@@GLIBC_2.4                         c:\sysgcc\raspberry\bin\../arm-linux-gnueabihf/sysroot/lib/arm-linux-gnueabihf/libc.so.6
glob_pattern_p@GLIBC_2.4                          c:\sysgcc\raspberry\bin\../arm-linux-gnueabihf/sysroot/lib/arm-linux-gnueabihf/libc.so.6
globfree                                          c:\sysgcc\raspberry\bin\../arm-linux-gnueabihf/sysroot/lib/arm-linux-gnueabihf/libc.so.6
                                                  obj/Debug/pigpio.o
globfree@@GLIBC_2.4                               c:\sysgcc\raspberry\bin\../arm-linux-gnueabihf/sysroot/lib/arm-linux-gnueabihf/libc.so.6
globfree@GLIBC_2.4                                c:\sysgcc\raspberry\bin\../arm-linux-gnueabihf/sysroot/lib/arm-linux-gnueabihf/libc.so.6
gmtime_r                                          c:\sysgcc\raspberry\bin\../arm-linux-gnueabihf/sysroot/lib/arm-linux-gnueabihf/libc.so.6
gmtime_r@@GLIBC_2.4                               c:\sysgcc\raspberry\bin\../arm-linux-gnueabihf/sysroot/lib/arm-linux-gnueabihf/libc.so.6
gmtime_r@GLIBC_2.4                                c:\sysgcc\raspberry\bin\../arm-linux-gnueabihf/sysroot/lib/arm-linux-gnueabihf/libc.so.6
gnu_dev_major                                     c:\sysgcc\raspberry\bin\../arm-linux-gnueabihf/sysroot/lib/arm-linux-gnueabihf/libc.so.6
gnu_dev_major@@GLIBC_2.4                          c:\sysgcc\raspberry\bin\../arm-linux-gnueabihf/sysroot/lib/arm-linux-gnueabihf/libc.so.6
gnu_dev_major@GLIBC_2.4                           c:\sysgcc\raspberry\bin\../arm-linux-gnueabihf/sysroot/lib/arm-linux-gnueabihf/libc.so.6
gnu_dev_makedev                                   c:\sysgcc\raspberry\bin\../arm-linux-gnueabihf/sysroot/lib/arm-linux-gnueabihf/libc.so.6
                                                  obj/Debug/pigpio.o
gnu_dev_makedev@@GLIBC_2.4                        c:\sysgcc\raspberry\bin\../arm-linux-gnueabihf/sysroot/lib/arm-linux-gnueabihf/libc.so.6
gnu_dev_makedev@GLIBC_2.4                         c:\sysgcc\raspberry\bin\../arm-linux-gnueabihf/sysroot/lib/arm-linux-gnueabihf/libc.so.6
gnu_dev_minor                                     c:\sysgcc\raspberry\bin\../arm-linux-gnueabihf/sysroot/lib/arm-linux-gnueabihf/libc.so.6
gnu_dev_minor@@GLIBC_2.4                          c:\sysgcc\raspberry\bin\../arm-linux-gnueabihf/sysroot/lib/arm-linux-gnueabihf/libc.so.6
gnu_dev_minor@GLIBC_2.4                           c:\sysgcc\raspberry\bin\../arm-linux-gnueabihf/sysroot/lib/arm-linux-gnueabihf/libc.so.6
gnu_get_libc_release                              c:\sysgcc\raspberry\bin\../arm-linux-gnueabihf/sysroot/lib/arm-linux-gnueabihf/libc.so.6
gnu_get_libc_release@@GLIBC_2.4                   c:\sysgcc\raspberry\bin\../arm-linux-gnueabihf/sysroot/lib/arm-linux-gnueabihf/libc.so.6
gnu_get_libc_release@GLIBC_2.4                    c:\sysgcc\raspberry\bin\../arm-linux-gnueabihf/sysroot/lib/arm-linux-gnueabihf/libc.so.6
gnu_get_libc_version                              c:\sysgcc\raspberry\bin\../arm-linux-gnueabihf/sysroot/lib/arm-linux-gnueabihf/libc.so.6
gnu_get_libc_version@@GLIBC_2.4                   c:\sysgcc\raspberry\bin\../arm-linux-gnueabihf/sysroot/lib/arm-linux-gnueabihf/libc.so.6
gnu_get_libc_version@GLIBC_2.4                    c:\sysgcc\raspberry\bin\../arm-linux-gnueabihf/sysroot/lib/arm-linux-gnueabihf/libc.so.6
gpioCfgBufferSize                                 obj/Debug/pigpio.o
gpioCfgClock                                      obj/Debug/pigpio.o
                                                  obj/Debug/Executive/additionalMeasurements.o
gpioCfgDMAchannel                                 obj/Debug/pigpio.o
gpioCfgDMAchannels                                obj/Debug/pigpio.o
gpioCfgGetInternals                               obj/Debug/pigpio.o
gpioCfgInterfaces                                 obj/Debug/pigpio.o
gpioCfgMemAlloc                                   obj/Debug/pigpio.o
gpioCfgNetAddr                                    obj/Debug/pigpio.o
gpioCfgPermissions                                obj/Debug/pigpio.o
gpioCfgSetInternals                               obj/Debug/pigpio.o
gpioCfgSocketPort                                 obj/Debug/pigpio.o
gpioCustom1                                       obj/Debug/pigpio.o
gpioCustom2                                       obj/Debug/pigpio.o
gpioDelay                                         obj/Debug/pigpio.o
gpioDeleteScript                                  obj/Debug/pigpio.o
gpioGetMode                                       obj/Debug/pigpio.o
gpioGetPWMdutycycle                               obj/Debug/pigpio.o
gpioGetPWMfrequency                               obj/Debug/pigpio.o
gpioGetPWMrange                                   obj/Debug/pigpio.o
gpioGetPWMrealRange                               obj/Debug/pigpio.o
gpioGetPad                                        obj/Debug/pigpio.o
gpioGetServoPulsewidth                            obj/Debug/pigpio.o
gpioGlitchFilter                                  obj/Debug/pigpio.o
gpioHardwareClock                                 obj/Debug/pigpio.o
gpioHardwarePWM                                   obj/Debug/pigpio.o
gpioHardwareRevision                              obj/Debug/pigpio.o
gpioInitialise                                    obj/Debug/pigpio.o
                                                  obj/Debug/Executive/additionalMeasurements.o
gpioNoiseFilter                                   obj/Debug/pigpio.o
gpioNotifyBegin                                   obj/Debug/pigpio.o
gpioNotifyClose                                   obj/Debug/pigpio.o
gpioNotifyOpen                                    obj/Debug/pigpio.o
gpioNotifyOpenWithSize                            obj/Debug/pigpio.o
gpioNotifyPause                                   obj/Debug/pigpio.o
gpioPWM                                           obj/Debug/pigpio.o
gpioRead                                          obj/Debug/pigpio.o
gpioRead_Bits_0_31                                obj/Debug/pigpio.o
gpioRead_Bits_32_53                               obj/Debug/pigpio.o
gpioRunScript                                     obj/Debug/pigpio.o
gpioScriptStatus                                  obj/Debug/pigpio.o
gpioSerialRead                                    obj/Debug/pigpio.o
gpioSerialReadClose                               obj/Debug/pigpio.o
gpioSerialReadInvert                              obj/Debug/pigpio.o
gpioSerialReadOpen                                obj/Debug/pigpio.o
gpioServo                                         obj/Debug/pigpio.o
gpioSetAlertFunc                                  obj/Debug/pigpio.o
                                                  obj/Debug/Executive/additionalMeasurements.o
gpioSetAlertFuncEx                                obj/Debug/pigpio.o
gpioSetGetSamplesFunc                             obj/Debug/pigpio.o
gpioSetGetSamplesFuncEx                           obj/Debug/pigpio.o
gpioSetISRFunc                                    obj/Debug/pigpio.o
                                                  obj/Debug/Executive/additionalMeasurements.o
gpioSetISRFuncEx                                  obj/Debug/pigpio.o
gpioSetMode                                       obj/Debug/pigpio.o
gpioSetPWMfrequency                               obj/Debug/pigpio.o
gpioSetPWMrange                                   obj/Debug/pigpio.o
gpioSetPad                                        obj/Debug/pigpio.o
gpioSetPullUpDown                                 obj/Debug/pigpio.o
gpioSetSignalFunc                                 obj/Debug/pigpio.o
gpioSetSignalFuncEx                               obj/Debug/pigpio.o
gpioSetTimerFunc                                  obj/Debug/pigpio.o
gpioSetTimerFuncEx                                obj/Debug/pigpio.o
gpioSetWatchdog                                   obj/Debug/pigpio.o
gpioSleep                                         obj/Debug/pigpio.o
gpioStartThread                                   obj/Debug/pigpio.o
gpioStopScript                                    obj/Debug/pigpio.o
gpioStopThread                                    obj/Debug/pigpio.o
gpioStoreScript                                   obj/Debug/pigpio.o
gpioTerminate                                     obj/Debug/pigpio.o
                                                  obj/Debug/main.o
gpioTick                                          obj/Debug/pigpio.o
gpioTime                                          obj/Debug/pigpio.o
gpioTrigger                                       obj/Debug/pigpio.o
gpioUpdateScript                                  obj/Debug/pigpio.o
gpioVersion                                       obj/Debug/pigpio.o
gpioWaveAddGeneric                                obj/Debug/pigpio.o
gpioWaveAddNew                                    obj/Debug/pigpio.o
gpioWaveAddSerial                                 obj/Debug/pigpio.o
gpioWaveChain                                     obj/Debug/pigpio.o
gpioWaveClear                                     obj/Debug/pigpio.o
gpioWaveCreate                                    obj/Debug/pigpio.o
gpioWaveCreatePad                                 obj/Debug/pigpio.o
gpioWaveDelete                                    obj/Debug/pigpio.o
gpioWaveGetCbs                                    obj/Debug/pigpio.o
gpioWaveGetHighCbs                                obj/Debug/pigpio.o
gpioWaveGetHighMicros                             obj/Debug/pigpio.o
gpioWaveGetHighPulses                             obj/Debug/pigpio.o
gpioWaveGetMaxCbs                                 obj/Debug/pigpio.o
gpioWaveGetMaxMicros                              obj/Debug/pigpio.o
gpioWaveGetMaxPulses                              obj/Debug/pigpio.o
gpioWaveGetMicros                                 obj/Debug/pigpio.o
gpioWaveGetPulses                                 obj/Debug/pigpio.o
gpioWaveTxAt                                      obj/Debug/pigpio.o
gpioWaveTxBusy                                    obj/Debug/pigpio.o
gpioWaveTxSend                                    obj/Debug/pigpio.o
gpioWaveTxStart                                   obj/Debug/pigpio.o
gpioWaveTxStop                                    obj/Debug/pigpio.o
gpioWrite                                         obj/Debug/pigpio.o
gpioWrite_Bits_0_31_Clear                         obj/Debug/pigpio.o
gpioWrite_Bits_0_31_Set                           obj/Debug/pigpio.o
gpioWrite_Bits_32_53_Clear                        obj/Debug/pigpio.o
gpioWrite_Bits_32_53_Set                          obj/Debug/pigpio.o
group_member                                      c:\sysgcc\raspberry\bin\../arm-linux-gnueabihf/sysroot/lib/arm-linux-gnueabihf/libc.so.6
group_member@@GLIBC_2.4                           c:\sysgcc\raspberry\bin\../arm-linux-gnueabihf/sysroot/lib/arm-linux-gnueabihf/libc.so.6
group_member@GLIBC_2.4                            c:\sysgcc\raspberry\bin\../arm-linux-gnueabihf/sysroot/lib/arm-linux-gnueabihf/libc.so.6
gsignal                                           c:\sysgcc\raspberry\bin\../arm-linux-gnueabihf/sysroot/lib/arm-linux-gnueabihf/libc.so.6
gsignal@@GLIBC_2.4                                c:\sysgcc\raspberry\bin\../arm-linux-gnueabihf/sysroot/lib/arm-linux-gnueabihf/libc.so.6
gsignal@GLIBC_2.4                                 c:\sysgcc\raspberry\bin\../arm-linux-gnueabihf/sysroot/lib/arm-linux-gnueabihf/libc.so.6
hasmntopt                                         c:\sysgcc\raspberry\bin\../arm-linux-gnueabihf/sysroot/lib/arm-linux-gnueabihf/libc.so.6
hasmntopt@@GLIBC_2.4                              c:\sysgcc\raspberry\bin\../arm-linux-gnueabihf/sysroot/lib/arm-linux-gnueabihf/libc.so.6
hasmntopt@GLIBC_2.4                               c:\sysgcc\raspberry\bin\../arm-linux-gnueabihf/sysroot/lib/arm-linux-gnueabihf/libc.so.6
hcreate_r                                         c:\sysgcc\raspberry\bin\../arm-linux-gnueabihf/sysroot/lib/arm-linux-gnueabihf/libc.so.6
hcreate_r@@GLIBC_2.4                              c:\sysgcc\raspberry\bin\../arm-linux-gnueabihf/sysroot/lib/arm-linux-gnueabihf/libc.so.6
hcreate_r@GLIBC_2.4                               c:\sysgcc\raspberry\bin\../arm-linux-gnueabihf/sysroot/lib/arm-linux-gnueabihf/libc.so.6
hdestroy                                          c:\sysgcc\raspberry\bin\../arm-linux-gnueabihf/sysroot/lib/arm-linux-gnueabihf/libc.so.6
hdestroy@@GLIBC_2.4                               c:\sysgcc\raspberry\bin\../arm-linux-gnueabihf/sysroot/lib/arm-linux-gnueabihf/libc.so.6
hdestroy@GLIBC_2.4                                c:\sysgcc\raspberry\bin\../arm-linux-gnueabihf/sysroot/lib/arm-linux-gnueabihf/libc.so.6
hdestroy_r                                        c:\sysgcc\raspberry\bin\../arm-linux-gnueabihf/sysroot/lib/arm-linux-gnueabihf/libc.so.6
hdestroy_r@@GLIBC_2.4                             c:\sysgcc\raspberry\bin\../arm-linux-gnueabihf/sysroot/lib/arm-linux-gnueabihf/libc.so.6
hdestroy_r@GLIBC_2.4                              c:\sysgcc\raspberry\bin\../arm-linux-gnueabihf/sysroot/lib/arm-linux-gnueabihf/libc.so.6
hsearch_r                                         c:\sysgcc\raspberry\bin\../arm-linux-gnueabihf/sysroot/lib/arm-linux-gnueabihf/libc.so.6
hsearch_r@@GLIBC_2.4                              c:\sysgcc\raspberry\bin\../arm-linux-gnueabihf/sysroot/lib/arm-linux-gnueabihf/libc.so.6
hsearch_r@GLIBC_2.4                               c:\sysgcc\raspberry\bin\../arm-linux-gnueabihf/sysroot/lib/arm-linux-gnueabihf/libc.so.6
htonl                                             c:\sysgcc\raspberry\bin\../arm-linux-gnueabihf/sysroot/lib/arm-linux-gnueabihf/libc.so.6
                                                  obj/Debug/pigpio.o
htonl@@GLIBC_2.4                                  c:\sysgcc\raspberry\bin\../arm-linux-gnueabihf/sysroot/lib/arm-linux-gnueabihf/libc.so.6
htonl@GLIBC_2.4                                   c:\sysgcc\raspberry\bin\../arm-linux-gnueabihf/sysroot/lib/arm-linux-gnueabihf/libc.so.6
htons                                             c:\sysgcc\raspberry\bin\../arm-linux-gnueabihf/sysroot/lib/arm-linux-gnueabihf/libc.so.6
                                                  obj/Debug/pigpio.o
htons@@GLIBC_2.4                                  c:\sysgcc\raspberry\bin\../arm-linux-gnueabihf/sysroot/lib/arm-linux-gnueabihf/libc.so.6
htons@GLIBC_2.4                                   c:\sysgcc\raspberry\bin\../arm-linux-gnueabihf/sysroot/lib/arm-linux-gnueabihf/libc.so.6
i2cBlockProcessCall                               obj/Debug/pigpio.o
i2cClose                                          obj/Debug/pigpio.o
i2cOpen                                           obj/Debug/pigpio.o
i2cProcessCall                                    obj/Debug/pigpio.o
i2cReadBlockData                                  obj/Debug/pigpio.o
i2cReadByte                                       obj/Debug/pigpio.o
i2cReadByteData                                   obj/Debug/pigpio.o
i2cReadDevice                                     obj/Debug/pigpio.o
i2cReadI2CBlockData                               obj/Debug/pigpio.o
i2cReadWordData                                   obj/Debug/pigpio.o
i2cSegments                                       obj/Debug/pigpio.o
i2cSwitchCombined                                 obj/Debug/pigpio.o
i2cWriteBlockData                                 obj/Debug/pigpio.o
i2cWriteByte                                      obj/Debug/pigpio.o
i2cWriteByteData                                  obj/Debug/pigpio.o
i2cWriteDevice                                    obj/Debug/pigpio.o
i2cWriteI2CBlockData                              obj/Debug/pigpio.o
i2cWriteQuick                                     obj/Debug/pigpio.o
i2cWriteWordData                                  obj/Debug/pigpio.o
i2cZip                                            obj/Debug/pigpio.o
iCoolerEffect                                     obj/Debug/globalvardefs.o
                                                  obj/Debug/ThermoControlLibrary/PIDCalculs.o
iHeaterEffect                                     obj/Debug/globalvardefs.o
                                                  obj/Debug/ThermoControlLibrary/PIDCalculs.o
iMeasuredFrequency                                obj/Debug/Executive/additionalMeasurements.o
iTMH_Length                                       obj/Debug/globalvardefs.o
                                                  obj/Debug/ThermoControlLibrary/Interpolations.o
iTMH_Temperature_points                           obj/Debug/globalvardefs.o
                                                  obj/Debug/ThermoControlLibrary/Interpolations.o
iTMH_Voltage_points                               obj/Debug/globalvardefs.o
                                                  obj/Debug/ThermoControlLibrary/Interpolations.o
iUref                                             obj/Debug/ADC/ADC_Unit.o
iValveOutput                                      obj/Debug/globalvardefs.o
                                                  obj/Debug/ThermoControlLibrary/PIDCalculs.o
if_freenameindex                                  c:\sysgcc\raspberry\bin\../arm-linux-gnueabihf/sysroot/lib/arm-linux-gnueabihf/libc.so.6
if_freenameindex@@GLIBC_2.4                       c:\sysgcc\raspberry\bin\../arm-linux-gnueabihf/sysroot/lib/arm-linux-gnueabihf/libc.so.6
if_freenameindex@GLIBC_2.4                        c:\sysgcc\raspberry\bin\../arm-linux-gnueabihf/sysroot/lib/arm-linux-gnueabihf/libc.so.6
if_indextoname                                    c:\sysgcc\raspberry\bin\../arm-linux-gnueabihf/sysroot/lib/arm-linux-gnueabihf/libc.so.6
if_indextoname@@GLIBC_2.4                         c:\sysgcc\raspberry\bin\../arm-linux-gnueabihf/sysroot/lib/arm-linux-gnueabihf/libc.so.6
if_indextoname@GLIBC_2.4                          c:\sysgcc\raspberry\bin\../arm-linux-gnueabihf/sysroot/lib/arm-linux-gnueabihf/libc.so.6
if_nameindex                                      c:\sysgcc\raspberry\bin\../arm-linux-gnueabihf/sysroot/lib/arm-linux-gnueabihf/libc.so.6
if_nameindex@@GLIBC_2.4                           c:\sysgcc\raspberry\bin\../arm-linux-gnueabihf/sysroot/lib/arm-linux-gnueabihf/libc.so.6
if_nameindex@GLIBC_2.4                            c:\sysgcc\raspberry\bin\../arm-linux-gnueabihf/sysroot/lib/arm-linux-gnueabihf/libc.so.6
if_nametoindex                                    c:\sysgcc\raspberry\bin\../arm-linux-gnueabihf/sysroot/lib/arm-linux-gnueabihf/libc.so.6
if_nametoindex@@GLIBC_2.4                         c:\sysgcc\raspberry\bin\../arm-linux-gnueabihf/sysroot/lib/arm-linux-gnueabihf/libc.so.6
if_nametoindex@GLIBC_2.4                          c:\sysgcc\raspberry\bin\../arm-linux-gnueabihf/sysroot/lib/arm-linux-gnueabihf/libc.so.6
imaxabs                                           c:\sysgcc\raspberry\bin\../arm-linux-gnueabihf/sysroot/lib/arm-linux-gnueabihf/libc.so.6
imaxabs@@GLIBC_2.4                                c:\sysgcc\raspberry\bin\../arm-linux-gnueabihf/sysroot/lib/arm-linux-gnueabihf/libc.so.6
imaxabs@GLIBC_2.4                                 c:\sysgcc\raspberry\bin\../arm-linux-gnueabihf/sysroot/lib/arm-linux-gnueabihf/libc.so.6
imaxdiv                                           c:\sysgcc\raspberry\bin\../arm-linux-gnueabihf/sysroot/lib/arm-linux-gnueabihf/libc.so.6
imaxdiv@@GLIBC_2.4                                c:\sysgcc\raspberry\bin\../arm-linux-gnueabihf/sysroot/lib/arm-linux-gnueabihf/libc.so.6
imaxdiv@GLIBC_2.4                                 c:\sysgcc\raspberry\bin\../arm-linux-gnueabihf/sysroot/lib/arm-linux-gnueabihf/libc.so.6
in6addr_any                                       c:\sysgcc\raspberry\bin\../arm-linux-gnueabihf/sysroot/lib/arm-linux-gnueabihf/libc.so.6
                                                  obj/Debug/pigpio.o
in6addr_any@@GLIBC_2.4                            c:\sysgcc\raspberry\bin\../arm-linux-gnueabihf/sysroot/lib/arm-linux-gnueabihf/libc.so.6
in6addr_any@GLIBC_2.4                             c:\sysgcc\raspberry\bin\../arm-linux-gnueabihf/sysroot/lib/arm-linux-gnueabihf/libc.so.6
in6addr_loopback                                  c:\sysgcc\raspberry\bin\../arm-linux-gnueabihf/sysroot/lib/arm-linux-gnueabihf/libc.so.6
                                                  obj/Debug/pigpio.o
in6addr_loopback@@GLIBC_2.4                       c:\sysgcc\raspberry\bin\../arm-linux-gnueabihf/sysroot/lib/arm-linux-gnueabihf/libc.so.6
in6addr_loopback@GLIBC_2.4                        c:\sysgcc\raspberry\bin\../arm-linux-gnueabihf/sysroot/lib/arm-linux-gnueabihf/libc.so.6
index                                             c:\sysgcc\raspberry\bin\../arm-linux-gnueabihf/sysroot/lib/arm-linux-gnueabihf/libc.so.6
index@@GLIBC_2.4                                  c:\sysgcc\raspberry\bin\../arm-linux-gnueabihf/sysroot/lib/arm-linux-gnueabihf/libc.so.6
index@GLIBC_2.4                                   c:\sysgcc\raspberry\bin\../arm-linux-gnueabihf/sysroot/lib/arm-linux-gnueabihf/libc.so.6
inet_addr                                         c:\sysgcc\raspberry\bin\../arm-linux-gnueabihf/sysroot/lib/arm-linux-gnueabihf/libc.so.6
inet_addr@@GLIBC_2.4                              c:\sysgcc\raspberry\bin\../arm-linux-gnueabihf/sysroot/lib/arm-linux-gnueabihf/libc.so.6
inet_addr@GLIBC_2.4                               c:\sysgcc\raspberry\bin\../arm-linux-gnueabihf/sysroot/lib/arm-linux-gnueabihf/libc.so.6
inet_aton                                         c:\sysgcc\raspberry\bin\../arm-linux-gnueabihf/sysroot/lib/arm-linux-gnueabihf/libc.so.6
inet_aton@@GLIBC_2.4                              c:\sysgcc\raspberry\bin\../arm-linux-gnueabihf/sysroot/lib/arm-linux-gnueabihf/libc.so.6
inet_aton@GLIBC_2.4                               c:\sysgcc\raspberry\bin\../arm-linux-gnueabihf/sysroot/lib/arm-linux-gnueabihf/libc.so.6
inet_makeaddr                                     c:\sysgcc\raspberry\bin\../arm-linux-gnueabihf/sysroot/lib/arm-linux-gnueabihf/libc.so.6
inet_makeaddr@@GLIBC_2.4                          c:\sysgcc\raspberry\bin\../arm-linux-gnueabihf/sysroot/lib/arm-linux-gnueabihf/libc.so.6
inet_makeaddr@GLIBC_2.4                           c:\sysgcc\raspberry\bin\../arm-linux-gnueabihf/sysroot/lib/arm-linux-gnueabihf/libc.so.6
inet_pton                                         c:\sysgcc\raspberry\bin\../arm-linux-gnueabihf/sysroot/lib/arm-linux-gnueabihf/libc.so.6
inet_pton@@GLIBC_2.4                              c:\sysgcc\raspberry\bin\../arm-linux-gnueabihf/sysroot/lib/arm-linux-gnueabihf/libc.so.6
inet_pton@GLIBC_2.4                               c:\sysgcc\raspberry\bin\../arm-linux-gnueabihf/sysroot/lib/arm-linux-gnueabihf/libc.so.6
iniTemperaturController                           obj/Debug/ThermoControlLibrary/Interpolations.o
                                                  obj/Debug/main.o
initInitialise                                    obj/Debug/pigpio.o
init_keypad                                       obj/Debug/Keyboard_Indicator/Keypad.o
                                                  obj/Debug/main.o
initstate                                         c:\sysgcc\raspberry\bin\../arm-linux-gnueabihf/sysroot/lib/arm-linux-gnueabihf/libc.so.6
initstate@@GLIBC_2.4                              c:\sysgcc\raspberry\bin\../arm-linux-gnueabihf/sysroot/lib/arm-linux-gnueabihf/libc.so.6
initstate@GLIBC_2.4                               c:\sysgcc\raspberry\bin\../arm-linux-gnueabihf/sysroot/lib/arm-linux-gnueabihf/libc.so.6
initstate_r                                       c:\sysgcc\raspberry\bin\../arm-linux-gnueabihf/sysroot/lib/arm-linux-gnueabihf/libc.so.6
initstate_r@@GLIBC_2.4                            c:\sysgcc\raspberry\bin\../arm-linux-gnueabihf/sysroot/lib/arm-linux-gnueabihf/libc.so.6
initstate_r@GLIBC_2.4                             c:\sysgcc\raspberry\bin\../arm-linux-gnueabihf/sysroot/lib/arm-linux-gnueabihf/libc.so.6
ioctl                                             c:\sysgcc\raspberry\bin\../arm-linux-gnueabihf/sysroot/lib/arm-linux-gnueabihf/libc.so.6
                                                  obj/Debug/pigpio.o
ioctl@@GLIBC_2.4                                  c:\sysgcc\raspberry\bin\../arm-linux-gnueabihf/sysroot/lib/arm-linux-gnueabihf/libc.so.6
ioctl@GLIBC_2.4                                   c:\sysgcc\raspberry\bin\../arm-linux-gnueabihf/sysroot/lib/arm-linux-gnueabihf/libc.so.6
isalnum_l                                         c:\sysgcc\raspberry\bin\../arm-linux-gnueabihf/sysroot/lib/arm-linux-gnueabihf/libc.so.6
isalnum_l@@GLIBC_2.4                              c:\sysgcc\raspberry\bin\../arm-linux-gnueabihf/sysroot/lib/arm-linux-gnueabihf/libc.so.6
isalnum_l@GLIBC_2.4                               c:\sysgcc\raspberry\bin\../arm-linux-gnueabihf/sysroot/lib/arm-linux-gnueabihf/libc.so.6
isalpha_l                                         c:\sysgcc\raspberry\bin\../arm-linux-gnueabihf/sysroot/lib/arm-linux-gnueabihf/libc.so.6
isalpha_l@@GLIBC_2.4                              c:\sysgcc\raspberry\bin\../arm-linux-gnueabihf/sysroot/lib/arm-linux-gnueabihf/libc.so.6
isalpha_l@GLIBC_2.4                               c:\sysgcc\raspberry\bin\../arm-linux-gnueabihf/sysroot/lib/arm-linux-gnueabihf/libc.so.6
isatty                                            c:\sysgcc\raspberry\bin\../arm-linux-gnueabihf/sysroot/lib/arm-linux-gnueabihf/libc.so.6
isatty@@GLIBC_2.4                                 c:\sysgcc\raspberry\bin\../arm-linux-gnueabihf/sysroot/lib/arm-linux-gnueabihf/libc.so.6
isatty@GLIBC_2.4                                  c:\sysgcc\raspberry\bin\../arm-linux-gnueabihf/sysroot/lib/arm-linux-gnueabihf/libc.so.6
isblank_l                                         c:\sysgcc\raspberry\bin\../arm-linux-gnueabihf/sysroot/lib/arm-linux-gnueabihf/libc.so.6
isblank_l@@GLIBC_2.4                              c:\sysgcc\raspberry\bin\../arm-linux-gnueabihf/sysroot/lib/arm-linux-gnueabihf/libc.so.6
isblank_l@GLIBC_2.4                               c:\sysgcc\raspberry\bin\../arm-linux-gnueabihf/sysroot/lib/arm-linux-gnueabihf/libc.so.6
iscntrl_l                                         c:\sysgcc\raspberry\bin\../arm-linux-gnueabihf/sysroot/lib/arm-linux-gnueabihf/libc.so.6
iscntrl_l@@GLIBC_2.4                              c:\sysgcc\raspberry\bin\../arm-linux-gnueabihf/sysroot/lib/arm-linux-gnueabihf/libc.so.6
iscntrl_l@GLIBC_2.4                               c:\sysgcc\raspberry\bin\../arm-linux-gnueabihf/sysroot/lib/arm-linux-gnueabihf/libc.so.6
isctype                                           c:\sysgcc\raspberry\bin\../arm-linux-gnueabihf/sysroot/lib/arm-linux-gnueabihf/libc.so.6
isctype@@GLIBC_2.4                                c:\sysgcc\raspberry\bin\../arm-linux-gnueabihf/sysroot/lib/arm-linux-gnueabihf/libc.so.6
isctype@GLIBC_2.4                                 c:\sysgcc\raspberry\bin\../arm-linux-gnueabihf/sysroot/lib/arm-linux-gnueabihf/libc.so.6
isdigit_l                                         c:\sysgcc\raspberry\bin\../arm-linux-gnueabihf/sysroot/lib/arm-linux-gnueabihf/libc.so.6
isdigit_l@@GLIBC_2.4                              c:\sysgcc\raspberry\bin\../arm-linux-gnueabihf/sysroot/lib/arm-linux-gnueabihf/libc.so.6
isdigit_l@GLIBC_2.4                               c:\sysgcc\raspberry\bin\../arm-linux-gnueabihf/sysroot/lib/arm-linux-gnueabihf/libc.so.6
isgraph_l                                         c:\sysgcc\raspberry\bin\../arm-linux-gnueabihf/sysroot/lib/arm-linux-gnueabihf/libc.so.6
isgraph_l@@GLIBC_2.4                              c:\sysgcc\raspberry\bin\../arm-linux-gnueabihf/sysroot/lib/arm-linux-gnueabihf/libc.so.6
isgraph_l@GLIBC_2.4                               c:\sysgcc\raspberry\bin\../arm-linux-gnueabihf/sysroot/lib/arm-linux-gnueabihf/libc.so.6
isinf                                             c:\sysgcc\raspberry\bin\../arm-linux-gnueabihf/sysroot/lib/arm-linux-gnueabihf/libc.so.6
isinf@@GLIBC_2.4                                  c:\sysgcc\raspberry\bin\../arm-linux-gnueabihf/sysroot/lib/arm-linux-gnueabihf/libc.so.6
isinf@GLIBC_2.4                                   c:\sysgcc\raspberry\bin\../arm-linux-gnueabihf/sysroot/lib/arm-linux-gnueabihf/libc.so.6
isinff                                            c:\sysgcc\raspberry\bin\../arm-linux-gnueabihf/sysroot/lib/arm-linux-gnueabihf/libc.so.6
isinff@@GLIBC_2.4                                 c:\sysgcc\raspberry\bin\../arm-linux-gnueabihf/sysroot/lib/arm-linux-gnueabihf/libc.so.6
isinff@GLIBC_2.4                                  c:\sysgcc\raspberry\bin\../arm-linux-gnueabihf/sysroot/lib/arm-linux-gnueabihf/libc.so.6
isinfl                                            c:\sysgcc\raspberry\bin\../arm-linux-gnueabihf/sysroot/lib/arm-linux-gnueabihf/libc.so.6
isinfl@@GLIBC_2.4                                 c:\sysgcc\raspberry\bin\../arm-linux-gnueabihf/sysroot/lib/arm-linux-gnueabihf/libc.so.6
isinfl@GLIBC_2.4                                  c:\sysgcc\raspberry\bin\../arm-linux-gnueabihf/sysroot/lib/arm-linux-gnueabihf/libc.so.6
islower_l                                         c:\sysgcc\raspberry\bin\../arm-linux-gnueabihf/sysroot/lib/arm-linux-gnueabihf/libc.so.6
islower_l@@GLIBC_2.4                              c:\sysgcc\raspberry\bin\../arm-linux-gnueabihf/sysroot/lib/arm-linux-gnueabihf/libc.so.6
islower_l@GLIBC_2.4                               c:\sysgcc\raspberry\bin\../arm-linux-gnueabihf/sysroot/lib/arm-linux-gnueabihf/libc.so.6
isnan                                             c:\sysgcc\raspberry\bin\../arm-linux-gnueabihf/sysroot/lib/arm-linux-gnueabihf/libc.so.6
isnan@@GLIBC_2.4                                  c:\sysgcc\raspberry\bin\../arm-linux-gnueabihf/sysroot/lib/arm-linux-gnueabihf/libc.so.6
isnan@GLIBC_2.4                                   c:\sysgcc\raspberry\bin\../arm-linux-gnueabihf/sysroot/lib/arm-linux-gnueabihf/libc.so.6
isnanf                                            c:\sysgcc\raspberry\bin\../arm-linux-gnueabihf/sysroot/lib/arm-linux-gnueabihf/libc.so.6
isnanf@@GLIBC_2.4                                 c:\sysgcc\raspberry\bin\../arm-linux-gnueabihf/sysroot/lib/arm-linux-gnueabihf/libc.so.6
isnanf@GLIBC_2.4                                  c:\sysgcc\raspberry\bin\../arm-linux-gnueabihf/sysroot/lib/arm-linux-gnueabihf/libc.so.6
isnanl                                            c:\sysgcc\raspberry\bin\../arm-linux-gnueabihf/sysroot/lib/arm-linux-gnueabihf/libc.so.6
isnanl@@GLIBC_2.4                                 c:\sysgcc\raspberry\bin\../arm-linux-gnueabihf/sysroot/lib/arm-linux-gnueabihf/libc.so.6
isnanl@GLIBC_2.4                                  c:\sysgcc\raspberry\bin\../arm-linux-gnueabihf/sysroot/lib/arm-linux-gnueabihf/libc.so.6
isprint_l                                         c:\sysgcc\raspberry\bin\../arm-linux-gnueabihf/sysroot/lib/arm-linux-gnueabihf/libc.so.6
isprint_l@@GLIBC_2.4                              c:\sysgcc\raspberry\bin\../arm-linux-gnueabihf/sysroot/lib/arm-linux-gnueabihf/libc.so.6
isprint_l@GLIBC_2.4                               c:\sysgcc\raspberry\bin\../arm-linux-gnueabihf/sysroot/lib/arm-linux-gnueabihf/libc.so.6
ispunct_l                                         c:\sysgcc\raspberry\bin\../arm-linux-gnueabihf/sysroot/lib/arm-linux-gnueabihf/libc.so.6
ispunct_l@@GLIBC_2.4                              c:\sysgcc\raspberry\bin\../arm-linux-gnueabihf/sysroot/lib/arm-linux-gnueabihf/libc.so.6
ispunct_l@GLIBC_2.4                               c:\sysgcc\raspberry\bin\../arm-linux-gnueabihf/sysroot/lib/arm-linux-gnueabihf/libc.so.6
isspace_l                                         c:\sysgcc\raspberry\bin\../arm-linux-gnueabihf/sysroot/lib/arm-linux-gnueabihf/libc.so.6
isspace_l@@GLIBC_2.4                              c:\sysgcc\raspberry\bin\../arm-linux-gnueabihf/sysroot/lib/arm-linux-gnueabihf/libc.so.6
isspace_l@GLIBC_2.4                               c:\sysgcc\raspberry\bin\../arm-linux-gnueabihf/sysroot/lib/arm-linux-gnueabihf/libc.so.6
isupper_l                                         c:\sysgcc\raspberry\bin\../arm-linux-gnueabihf/sysroot/lib/arm-linux-gnueabihf/libc.so.6
isupper_l@@GLIBC_2.4                              c:\sysgcc\raspberry\bin\../arm-linux-gnueabihf/sysroot/lib/arm-linux-gnueabihf/libc.so.6
isupper_l@GLIBC_2.4                               c:\sysgcc\raspberry\bin\../arm-linux-gnueabihf/sysroot/lib/arm-linux-gnueabihf/libc.so.6
iswalnum                                          c:\sysgcc\raspberry\bin\../arm-linux-gnueabihf/sysroot/lib/arm-linux-gnueabihf/libc.so.6
iswalnum@@GLIBC_2.4                               c:\sysgcc\raspberry\bin\../arm-linux-gnueabihf/sysroot/lib/arm-linux-gnueabihf/libc.so.6
iswalnum@GLIBC_2.4                                c:\sysgcc\raspberry\bin\../arm-linux-gnueabihf/sysroot/lib/arm-linux-gnueabihf/libc.so.6
iswalnum_l                                        c:\sysgcc\raspberry\bin\../arm-linux-gnueabihf/sysroot/lib/arm-linux-gnueabihf/libc.so.6
iswalnum_l@@GLIBC_2.4                             c:\sysgcc\raspberry\bin\../arm-linux-gnueabihf/sysroot/lib/arm-linux-gnueabihf/libc.so.6
iswalnum_l@GLIBC_2.4                              c:\sysgcc\raspberry\bin\../arm-linux-gnueabihf/sysroot/lib/arm-linux-gnueabihf/libc.so.6
iswalpha                                          c:\sysgcc\raspberry\bin\../arm-linux-gnueabihf/sysroot/lib/arm-linux-gnueabihf/libc.so.6
iswalpha@@GLIBC_2.4                               c:\sysgcc\raspberry\bin\../arm-linux-gnueabihf/sysroot/lib/arm-linux-gnueabihf/libc.so.6
iswalpha@GLIBC_2.4                                c:\sysgcc\raspberry\bin\../arm-linux-gnueabihf/sysroot/lib/arm-linux-gnueabihf/libc.so.6
iswalpha_l                                        c:\sysgcc\raspberry\bin\../arm-linux-gnueabihf/sysroot/lib/arm-linux-gnueabihf/libc.so.6
iswalpha_l@@GLIBC_2.4                             c:\sysgcc\raspberry\bin\../arm-linux-gnueabihf/sysroot/lib/arm-linux-gnueabihf/libc.so.6
iswalpha_l@GLIBC_2.4                              c:\sysgcc\raspberry\bin\../arm-linux-gnueabihf/sysroot/lib/arm-linux-gnueabihf/libc.so.6
iswblank                                          c:\sysgcc\raspberry\bin\../arm-linux-gnueabihf/sysroot/lib/arm-linux-gnueabihf/libc.so.6
iswblank@@GLIBC_2.4                               c:\sysgcc\raspberry\bin\../arm-linux-gnueabihf/sysroot/lib/arm-linux-gnueabihf/libc.so.6
iswblank@GLIBC_2.4                                c:\sysgcc\raspberry\bin\../arm-linux-gnueabihf/sysroot/lib/arm-linux-gnueabihf/libc.so.6
iswblank_l                                        c:\sysgcc\raspberry\bin\../arm-linux-gnueabihf/sysroot/lib/arm-linux-gnueabihf/libc.so.6
iswblank_l@@GLIBC_2.4                             c:\sysgcc\raspberry\bin\../arm-linux-gnueabihf/sysroot/lib/arm-linux-gnueabihf/libc.so.6
iswblank_l@GLIBC_2.4                              c:\sysgcc\raspberry\bin\../arm-linux-gnueabihf/sysroot/lib/arm-linux-gnueabihf/libc.so.6
iswcntrl                                          c:\sysgcc\raspberry\bin\../arm-linux-gnueabihf/sysroot/lib/arm-linux-gnueabihf/libc.so.6
iswcntrl@@GLIBC_2.4                               c:\sysgcc\raspberry\bin\../arm-linux-gnueabihf/sysroot/lib/arm-linux-gnueabihf/libc.so.6
iswcntrl@GLIBC_2.4                                c:\sysgcc\raspberry\bin\../arm-linux-gnueabihf/sysroot/lib/arm-linux-gnueabihf/libc.so.6
iswcntrl_l                                        c:\sysgcc\raspberry\bin\../arm-linux-gnueabihf/sysroot/lib/arm-linux-gnueabihf/libc.so.6
iswcntrl_l@@GLIBC_2.4                             c:\sysgcc\raspberry\bin\../arm-linux-gnueabihf/sysroot/lib/arm-linux-gnueabihf/libc.so.6
iswcntrl_l@GLIBC_2.4                              c:\sysgcc\raspberry\bin\../arm-linux-gnueabihf/sysroot/lib/arm-linux-gnueabihf/libc.so.6
iswctype                                          c:\sysgcc\raspberry\bin\../arm-linux-gnueabihf/sysroot/lib/arm-linux-gnueabihf/libc.so.6
iswctype@@GLIBC_2.4                               c:\sysgcc\raspberry\bin\../arm-linux-gnueabihf/sysroot/lib/arm-linux-gnueabihf/libc.so.6
iswctype@GLIBC_2.4                                c:\sysgcc\raspberry\bin\../arm-linux-gnueabihf/sysroot/lib/arm-linux-gnueabihf/libc.so.6
iswctype_l                                        c:\sysgcc\raspberry\bin\../arm-linux-gnueabihf/sysroot/lib/arm-linux-gnueabihf/libc.so.6
iswctype_l@@GLIBC_2.4                             c:\sysgcc\raspberry\bin\../arm-linux-gnueabihf/sysroot/lib/arm-linux-gnueabihf/libc.so.6
iswctype_l@GLIBC_2.4                              c:\sysgcc\raspberry\bin\../arm-linux-gnueabihf/sysroot/lib/arm-linux-gnueabihf/libc.so.6
iswdigit                                          c:\sysgcc\raspberry\bin\../arm-linux-gnueabihf/sysroot/lib/arm-linux-gnueabihf/libc.so.6
iswdigit@@GLIBC_2.4                               c:\sysgcc\raspberry\bin\../arm-linux-gnueabihf/sysroot/lib/arm-linux-gnueabihf/libc.so.6
iswdigit@GLIBC_2.4                                c:\sysgcc\raspberry\bin\../arm-linux-gnueabihf/sysroot/lib/arm-linux-gnueabihf/libc.so.6
iswdigit_l                                        c:\sysgcc\raspberry\bin\../arm-linux-gnueabihf/sysroot/lib/arm-linux-gnueabihf/libc.so.6
iswdigit_l@@GLIBC_2.4                             c:\sysgcc\raspberry\bin\../arm-linux-gnueabihf/sysroot/lib/arm-linux-gnueabihf/libc.so.6
iswdigit_l@GLIBC_2.4                              c:\sysgcc\raspberry\bin\../arm-linux-gnueabihf/sysroot/lib/arm-linux-gnueabihf/libc.so.6
iswgraph                                          c:\sysgcc\raspberry\bin\../arm-linux-gnueabihf/sysroot/lib/arm-linux-gnueabihf/libc.so.6
iswgraph@@GLIBC_2.4                               c:\sysgcc\raspberry\bin\../arm-linux-gnueabihf/sysroot/lib/arm-linux-gnueabihf/libc.so.6
iswgraph@GLIBC_2.4                                c:\sysgcc\raspberry\bin\../arm-linux-gnueabihf/sysroot/lib/arm-linux-gnueabihf/libc.so.6
iswgraph_l                                        c:\sysgcc\raspberry\bin\../arm-linux-gnueabihf/sysroot/lib/arm-linux-gnueabihf/libc.so.6
iswgraph_l@@GLIBC_2.4                             c:\sysgcc\raspberry\bin\../arm-linux-gnueabihf/sysroot/lib/arm-linux-gnueabihf/libc.so.6
iswgraph_l@GLIBC_2.4                              c:\sysgcc\raspberry\bin\../arm-linux-gnueabihf/sysroot/lib/arm-linux-gnueabihf/libc.so.6
iswlower                                          c:\sysgcc\raspberry\bin\../arm-linux-gnueabihf/sysroot/lib/arm-linux-gnueabihf/libc.so.6
iswlower@@GLIBC_2.4                               c:\sysgcc\raspberry\bin\../arm-linux-gnueabihf/sysroot/lib/arm-linux-gnueabihf/libc.so.6
iswlower@GLIBC_2.4                                c:\sysgcc\raspberry\bin\../arm-linux-gnueabihf/sysroot/lib/arm-linux-gnueabihf/libc.so.6
iswlower_l                                        c:\sysgcc\raspberry\bin\../arm-linux-gnueabihf/sysroot/lib/arm-linux-gnueabihf/libc.so.6
iswlower_l@@GLIBC_2.4                             c:\sysgcc\raspberry\bin\../arm-linux-gnueabihf/sysroot/lib/arm-linux-gnueabihf/libc.so.6
iswlower_l@GLIBC_2.4                              c:\sysgcc\raspberry\bin\../arm-linux-gnueabihf/sysroot/lib/arm-linux-gnueabihf/libc.so.6
iswprint                                          c:\sysgcc\raspberry\bin\../arm-linux-gnueabihf/sysroot/lib/arm-linux-gnueabihf/libc.so.6
iswprint@@GLIBC_2.4                               c:\sysgcc\raspberry\bin\../arm-linux-gnueabihf/sysroot/lib/arm-linux-gnueabihf/libc.so.6
iswprint@GLIBC_2.4                                c:\sysgcc\raspberry\bin\../arm-linux-gnueabihf/sysroot/lib/arm-linux-gnueabihf/libc.so.6
iswprint_l                                        c:\sysgcc\raspberry\bin\../arm-linux-gnueabihf/sysroot/lib/arm-linux-gnueabihf/libc.so.6
iswprint_l@@GLIBC_2.4                             c:\sysgcc\raspberry\bin\../arm-linux-gnueabihf/sysroot/lib/arm-linux-gnueabihf/libc.so.6
iswprint_l@GLIBC_2.4                              c:\sysgcc\raspberry\bin\../arm-linux-gnueabihf/sysroot/lib/arm-linux-gnueabihf/libc.so.6
iswpunct                                          c:\sysgcc\raspberry\bin\../arm-linux-gnueabihf/sysroot/lib/arm-linux-gnueabihf/libc.so.6
iswpunct@@GLIBC_2.4                               c:\sysgcc\raspberry\bin\../arm-linux-gnueabihf/sysroot/lib/arm-linux-gnueabihf/libc.so.6
iswpunct@GLIBC_2.4                                c:\sysgcc\raspberry\bin\../arm-linux-gnueabihf/sysroot/lib/arm-linux-gnueabihf/libc.so.6
iswpunct_l                                        c:\sysgcc\raspberry\bin\../arm-linux-gnueabihf/sysroot/lib/arm-linux-gnueabihf/libc.so.6
iswpunct_l@@GLIBC_2.4                             c:\sysgcc\raspberry\bin\../arm-linux-gnueabihf/sysroot/lib/arm-linux-gnueabihf/libc.so.6
iswpunct_l@GLIBC_2.4                              c:\sysgcc\raspberry\bin\../arm-linux-gnueabihf/sysroot/lib/arm-linux-gnueabihf/libc.so.6
iswspace                                          c:\sysgcc\raspberry\bin\../arm-linux-gnueabihf/sysroot/lib/arm-linux-gnueabihf/libc.so.6
iswspace@@GLIBC_2.4                               c:\sysgcc\raspberry\bin\../arm-linux-gnueabihf/sysroot/lib/arm-linux-gnueabihf/libc.so.6
iswspace@GLIBC_2.4                                c:\sysgcc\raspberry\bin\../arm-linux-gnueabihf/sysroot/lib/arm-linux-gnueabihf/libc.so.6
iswspace_l                                        c:\sysgcc\raspberry\bin\../arm-linux-gnueabihf/sysroot/lib/arm-linux-gnueabihf/libc.so.6
iswspace_l@@GLIBC_2.4                             c:\sysgcc\raspberry\bin\../arm-linux-gnueabihf/sysroot/lib/arm-linux-gnueabihf/libc.so.6
iswspace_l@GLIBC_2.4                              c:\sysgcc\raspberry\bin\../arm-linux-gnueabihf/sysroot/lib/arm-linux-gnueabihf/libc.so.6
iswupper                                          c:\sysgcc\raspberry\bin\../arm-linux-gnueabihf/sysroot/lib/arm-linux-gnueabihf/libc.so.6
iswupper@@GLIBC_2.4                               c:\sysgcc\raspberry\bin\../arm-linux-gnueabihf/sysroot/lib/arm-linux-gnueabihf/libc.so.6
iswupper@GLIBC_2.4                                c:\sysgcc\raspberry\bin\../arm-linux-gnueabihf/sysroot/lib/arm-linux-gnueabihf/libc.so.6
iswupper_l                                        c:\sysgcc\raspberry\bin\../arm-linux-gnueabihf/sysroot/lib/arm-linux-gnueabihf/libc.so.6
iswupper_l@@GLIBC_2.4                             c:\sysgcc\raspberry\bin\../arm-linux-gnueabihf/sysroot/lib/arm-linux-gnueabihf/libc.so.6
iswupper_l@GLIBC_2.4                              c:\sysgcc\raspberry\bin\../arm-linux-gnueabihf/sysroot/lib/arm-linux-gnueabihf/libc.so.6
iswxdigit                                         c:\sysgcc\raspberry\bin\../arm-linux-gnueabihf/sysroot/lib/arm-linux-gnueabihf/libc.so.6
iswxdigit@@GLIBC_2.4                              c:\sysgcc\raspberry\bin\../arm-linux-gnueabihf/sysroot/lib/arm-linux-gnueabihf/libc.so.6
iswxdigit@GLIBC_2.4                               c:\sysgcc\raspberry\bin\../arm-linux-gnueabihf/sysroot/lib/arm-linux-gnueabihf/libc.so.6
iswxdigit_l                                       c:\sysgcc\raspberry\bin\../arm-linux-gnueabihf/sysroot/lib/arm-linux-gnueabihf/libc.so.6
iswxdigit_l@@GLIBC_2.4                            c:\sysgcc\raspberry\bin\../arm-linux-gnueabihf/sysroot/lib/arm-linux-gnueabihf/libc.so.6
iswxdigit_l@GLIBC_2.4                             c:\sysgcc\raspberry\bin\../arm-linux-gnueabihf/sysroot/lib/arm-linux-gnueabihf/libc.so.6
isxdigit_l                                        c:\sysgcc\raspberry\bin\../arm-linux-gnueabihf/sysroot/lib/arm-linux-gnueabihf/libc.so.6
isxdigit_l@@GLIBC_2.4                             c:\sysgcc\raspberry\bin\../arm-linux-gnueabihf/sysroot/lib/arm-linux-gnueabihf/libc.so.6
isxdigit_l@GLIBC_2.4                              c:\sysgcc\raspberry\bin\../arm-linux-gnueabihf/sysroot/lib/arm-linux-gnueabihf/libc.so.6
jrand48_r                                         c:\sysgcc\raspberry\bin\../arm-linux-gnueabihf/sysroot/lib/arm-linux-gnueabihf/libc.so.6
jrand48_r@@GLIBC_2.4                              c:\sysgcc\raspberry\bin\../arm-linux-gnueabihf/sysroot/lib/arm-linux-gnueabihf/libc.so.6
jrand48_r@GLIBC_2.4                               c:\sysgcc\raspberry\bin\../arm-linux-gnueabihf/sysroot/lib/arm-linux-gnueabihf/libc.so.6
kill                                              c:\sysgcc\raspberry\bin\../arm-linux-gnueabihf/sysroot/lib/arm-linux-gnueabihf/libc.so.6
                                                  obj/Debug/pigpio.o
kill@@GLIBC_2.4                                   c:\sysgcc\raspberry\bin\../arm-linux-gnueabihf/sysroot/lib/arm-linux-gnueabihf/libc.so.6
kill@GLIBC_2.4                                    c:\sysgcc\raspberry\bin\../arm-linux-gnueabihf/sysroot/lib/arm-linux-gnueabihf/libc.so.6
lDelta_T                                          obj/Debug/globalvardefs.o
                                                  obj/Debug/UART/uart.o
                                                  obj/Debug/ThermoControlLibrary/PIDCalculs.o
                                                  obj/Debug/Keyboard_Indicator/Indicator_Variables.o
lDelta_t                                          obj/Debug/globalvardefs.o
                                                  obj/Debug/UART/uart.o
                                                  obj/Debug/ThermoControlLibrary/PIDCalculs.o
                                                  obj/Debug/Keyboard_Indicator/Indicator_Variables.o
lKdiff                                            obj/Debug/globalvardefs.o
                                                  obj/Debug/diskIO.o
                                                  obj/Debug/UART/uart.o
                                                  obj/Debug/ThermoControlLibrary/PIDCalculs.o
                                                  obj/Debug/Keyboard_Indicator/Indicator_Variables.o
lKint                                             obj/Debug/globalvardefs.o
                                                  obj/Debug/diskIO.o
lKprop                                            obj/Debug/globalvardefs.o
                                                  obj/Debug/diskIO.o
                                                  obj/Debug/UART/uart.o
                                                  obj/Debug/ThermoControlLibrary/PIDCalculs.o
                                                  obj/Debug/Keyboard_Indicator/Indicator_Variables.o
lTemperatureCurrentSet                            obj/Debug/globalvardefs.o
                                                  obj/Debug/ThermoControlLibrary/PIDCalculs.o
                                                  obj/Debug/Keyboard_Indicator/Indicator_Variables.o
lTemperaturePrevious                              obj/Debug/globalvardefs.o
                                                  obj/Debug/ThermoControlLibrary/PIDCalculs.o
lTemperatureReal                                  obj/Debug/globalvardefs.o
                                                  obj/Debug/ThermoControlLibrary/PIDCalculs.o
                                                  obj/Debug/Keyboard_Indicator/Indicator_Variables.o
                                                  obj/Debug/Keyboard_Indicator/Keypad.o
lTemperatureSet                                   obj/Debug/globalvardefs.o
                                                  obj/Debug/UART/uart.o
                                                  obj/Debug/ThermoControlLibrary/PIDCalculs.o
                                                  obj/Debug/Keyboard_Indicator/Indicator_Variables.o
                                                  obj/Debug/Keyboard_Indicator/Keypad.o
lcd_Init                                          obj/Debug/i2c_lcd/lcd.o
                                                  obj/Debug/main.o
lcd_update                                        obj/Debug/i2c_lcd/lcd.o
                                                  obj/Debug/main.o
lcdi2c                                            obj/Debug/i2c_lcd/i2c_lcd.o
lchown                                            c:\sysgcc\raspberry\bin\../arm-linux-gnueabihf/sysroot/lib/arm-linux-gnueabihf/libc.so.6
lchown@@GLIBC_2.4                                 c:\sysgcc\raspberry\bin\../arm-linux-gnueabihf/sysroot/lib/arm-linux-gnueabihf/libc.so.6
lchown@GLIBC_2.4                                  c:\sysgcc\raspberry\bin\../arm-linux-gnueabihf/sysroot/lib/arm-linux-gnueabihf/libc.so.6
lckpwdf                                           c:\sysgcc\raspberry\bin\../arm-linux-gnueabihf/sysroot/lib/arm-linux-gnueabihf/libc.so.6
lckpwdf@@GLIBC_2.4                                c:\sysgcc\raspberry\bin\../arm-linux-gnueabihf/sysroot/lib/arm-linux-gnueabihf/libc.so.6
lckpwdf@GLIBC_2.4                                 c:\sysgcc\raspberry\bin\../arm-linux-gnueabihf/sysroot/lib/arm-linux-gnueabihf/libc.so.6
lcong48_r                                         c:\sysgcc\raspberry\bin\../arm-linux-gnueabihf/sysroot/lib/arm-linux-gnueabihf/libc.so.6
lcong48_r@@GLIBC_2.4                              c:\sysgcc\raspberry\bin\../arm-linux-gnueabihf/sysroot/lib/arm-linux-gnueabihf/libc.so.6
lcong48_r@GLIBC_2.4                               c:\sysgcc\raspberry\bin\../arm-linux-gnueabihf/sysroot/lib/arm-linux-gnueabihf/libc.so.6
ldexp                                             c:\sysgcc\raspberry\bin\../arm-linux-gnueabihf/sysroot/lib/arm-linux-gnueabihf/libc.so.6
ldexp@@GLIBC_2.4                                  c:\sysgcc\raspberry\bin\../arm-linux-gnueabihf/sysroot/lib/arm-linux-gnueabihf/libc.so.6
ldexp@GLIBC_2.4                                   c:\sysgcc\raspberry\bin\../arm-linux-gnueabihf/sysroot/lib/arm-linux-gnueabihf/libc.so.6
ldexpf                                            c:\sysgcc\raspberry\bin\../arm-linux-gnueabihf/sysroot/lib/arm-linux-gnueabihf/libc.so.6
ldexpf@@GLIBC_2.4                                 c:\sysgcc\raspberry\bin\../arm-linux-gnueabihf/sysroot/lib/arm-linux-gnueabihf/libc.so.6
ldexpf@GLIBC_2.4                                  c:\sysgcc\raspberry\bin\../arm-linux-gnueabihf/sysroot/lib/arm-linux-gnueabihf/libc.so.6
ldexpl                                            c:\sysgcc\raspberry\bin\../arm-linux-gnueabihf/sysroot/lib/arm-linux-gnueabihf/libc.so.6
ldexpl@@GLIBC_2.4                                 c:\sysgcc\raspberry\bin\../arm-linux-gnueabihf/sysroot/lib/arm-linux-gnueabihf/libc.so.6
ldexpl@GLIBC_2.4                                  c:\sysgcc\raspberry\bin\../arm-linux-gnueabihf/sysroot/lib/arm-linux-gnueabihf/libc.so.6
link                                              c:\sysgcc\raspberry\bin\../arm-linux-gnueabihf/sysroot/lib/arm-linux-gnueabihf/libc.so.6
link@@GLIBC_2.4                                   c:\sysgcc\raspberry\bin\../arm-linux-gnueabihf/sysroot/lib/arm-linux-gnueabihf/libc.so.6
link@GLIBC_2.4                                    c:\sysgcc\raspberry\bin\../arm-linux-gnueabihf/sysroot/lib/arm-linux-gnueabihf/libc.so.6
                                                  c:/sysgcc/raspberry/bin/../arm-linux-gnueabihf/sysroot/lib/arm-linux-gnueabihf/libpthread.so
listen                                            c:\sysgcc\raspberry\bin\../arm-linux-gnueabihf/sysroot/lib/arm-linux-gnueabihf/libc.so.6
                                                  obj/Debug/pigpio.o
listen@@GLIBC_2.4                                 c:\sysgcc\raspberry\bin\../arm-linux-gnueabihf/sysroot/lib/arm-linux-gnueabihf/libc.so.6
listen@GLIBC_2.4                                  c:\sysgcc\raspberry\bin\../arm-linux-gnueabihf/sysroot/lib/arm-linux-gnueabihf/libc.so.6
localtime_r                                       c:\sysgcc\raspberry\bin\../arm-linux-gnueabihf/sysroot/lib/arm-linux-gnueabihf/libc.so.6
                                                  obj/Debug/pigpio.o
localtime_r@@GLIBC_2.4                            c:\sysgcc\raspberry\bin\../arm-linux-gnueabihf/sysroot/lib/arm-linux-gnueabihf/libc.so.6
localtime_r@GLIBC_2.4                             c:\sysgcc\raspberry\bin\../arm-linux-gnueabihf/sysroot/lib/arm-linux-gnueabihf/libc.so.6
lockf64                                           c:\sysgcc\raspberry\bin\../arm-linux-gnueabihf/sysroot/lib/arm-linux-gnueabihf/libc.so.6
lockf64@@GLIBC_2.4                                c:\sysgcc\raspberry\bin\../arm-linux-gnueabihf/sysroot/lib/arm-linux-gnueabihf/libc.so.6
lockf64@GLIBC_2.4                                 c:\sysgcc\raspberry\bin\../arm-linux-gnueabihf/sysroot/lib/arm-linux-gnueabihf/libc.so.6
longjmp                                           c:\sysgcc\raspberry\bin\../arm-linux-gnueabihf/sysroot/lib/arm-linux-gnueabihf/libc.so.6
longjmp@@GLIBC_2.4                                c:\sysgcc\raspberry\bin\../arm-linux-gnueabihf/sysroot/lib/arm-linux-gnueabihf/libc.so.6
lseek                                             c:/sysgcc/raspberry/bin/../arm-linux-gnueabihf/sysroot/lib/arm-linux-gnueabihf/libpthread.so
                                                  obj/Debug/pigpio.o
lseek64                                           c:/sysgcc/raspberry/bin/../arm-linux-gnueabihf/sysroot/lib/arm-linux-gnueabihf/libpthread.so
lseek64@@GLIBC_2.4                                c:/sysgcc/raspberry/bin/../arm-linux-gnueabihf/sysroot/lib/arm-linux-gnueabihf/libpthread.so
                                                  c:\sysgcc\raspberry\bin\../arm-linux-gnueabihf/sysroot/lib/arm-linux-gnueabihf/libc.so.6
lseek64@GLIBC_2.4                                 c:/sysgcc/raspberry/bin/../arm-linux-gnueabihf/sysroot/lib/arm-linux-gnueabihf/libpthread.so
lseek@@GLIBC_2.4                                  c:/sysgcc/raspberry/bin/../arm-linux-gnueabihf/sysroot/lib/arm-linux-gnueabihf/libpthread.so
                                                  c:\sysgcc\raspberry\bin\../arm-linux-gnueabihf/sysroot/lib/arm-linux-gnueabihf/libc.so.6
lseek@GLIBC_2.4                                   c:/sysgcc/raspberry/bin/../arm-linux-gnueabihf/sysroot/lib/arm-linux-gnueabihf/libpthread.so
madvise                                           c:\sysgcc\raspberry\bin\../arm-linux-gnueabihf/sysroot/lib/arm-linux-gnueabihf/libc.so.6
madvise@@GLIBC_2.4                                c:\sysgcc\raspberry\bin\../arm-linux-gnueabihf/sysroot/lib/arm-linux-gnueabihf/libc.so.6
madvise@GLIBC_2.4                                 c:\sysgcc\raspberry\bin\../arm-linux-gnueabihf/sysroot/lib/arm-linux-gnueabihf/libc.so.6
main                                              obj/Debug/main.o
                                                  c:/sysgcc/raspberry/bin/../arm-linux-gnueabihf/sysroot/lib/arm-linux-gnueabihf/crt1.o
makecontext                                       c:\sysgcc\raspberry\bin\../arm-linux-gnueabihf/sysroot/lib/arm-linux-gnueabihf/libc.so.6
makecontext@@GLIBC_2.4                            c:\sysgcc\raspberry\bin\../arm-linux-gnueabihf/sysroot/lib/arm-linux-gnueabihf/libc.so.6
makecontext@GLIBC_2.4                             c:\sysgcc\raspberry\bin\../arm-linux-gnueabihf/sysroot/lib/arm-linux-gnueabihf/libc.so.6
mallinfo                                          c:\sysgcc\raspberry\bin\../arm-linux-gnueabihf/sysroot/lib/arm-linux-gnueabihf/libc.so.6
mallinfo@@GLIBC_2.4                               c:\sysgcc\raspberry\bin\../arm-linux-gnueabihf/sysroot/lib/arm-linux-gnueabihf/libc.so.6
mallinfo@GLIBC_2.4                                c:\sysgcc\raspberry\bin\../arm-linux-gnueabihf/sysroot/lib/arm-linux-gnueabihf/libc.so.6
malloc                                            c:\sysgcc\raspberry\bin\../arm-linux-gnueabihf/sysroot/lib/arm-linux-gnueabihf/libc.so.6
                                                  obj/Debug/pigpio.o
malloc@@GLIBC_2.4                                 c:\sysgcc\raspberry\bin\../arm-linux-gnueabihf/sysroot/lib/arm-linux-gnueabihf/libc.so.6
                                                  c:\sysgcc\raspberry\bin\../arm-linux-gnueabihf/sysroot/lib/ld-linux-armhf.so.3
malloc@GLIBC_2.4                                  c:\sysgcc\raspberry\bin\../arm-linux-gnueabihf/sysroot/lib/arm-linux-gnueabihf/libc.so.6
                                                  c:/sysgcc/raspberry/bin/../arm-linux-gnueabihf/sysroot/lib/arm-linux-gnueabihf/libpthread.so
malloc_aligned                                    obj/Debug/bcm2835.o
malloc_info                                       c:\sysgcc\raspberry\bin\../arm-linux-gnueabihf/sysroot/lib/arm-linux-gnueabihf/libc.so.6
malloc_info@@GLIBC_2.10                           c:\sysgcc\raspberry\bin\../arm-linux-gnueabihf/sysroot/lib/arm-linux-gnueabihf/libc.so.6
malloc_info@GLIBC_2.10                            c:\sysgcc\raspberry\bin\../arm-linux-gnueabihf/sysroot/lib/arm-linux-gnueabihf/libc.so.6
malloc_stats                                      c:\sysgcc\raspberry\bin\../arm-linux-gnueabihf/sysroot/lib/arm-linux-gnueabihf/libc.so.6
malloc_stats@@GLIBC_2.4                           c:\sysgcc\raspberry\bin\../arm-linux-gnueabihf/sysroot/lib/arm-linux-gnueabihf/libc.so.6
malloc_stats@GLIBC_2.4                            c:\sysgcc\raspberry\bin\../arm-linux-gnueabihf/sysroot/lib/arm-linux-gnueabihf/libc.so.6
malloc_trim                                       c:\sysgcc\raspberry\bin\../arm-linux-gnueabihf/sysroot/lib/arm-linux-gnueabihf/libc.so.6
malloc_trim@@GLIBC_2.4                            c:\sysgcc\raspberry\bin\../arm-linux-gnueabihf/sysroot/lib/arm-linux-gnueabihf/libc.so.6
malloc_trim@GLIBC_2.4                             c:\sysgcc\raspberry\bin\../arm-linux-gnueabihf/sysroot/lib/arm-linux-gnueabihf/libc.so.6
malloc_usable_size                                c:\sysgcc\raspberry\bin\../arm-linux-gnueabihf/sysroot/lib/arm-linux-gnueabihf/libc.so.6
malloc_usable_size@@GLIBC_2.4                     c:\sysgcc\raspberry\bin\../arm-linux-gnueabihf/sysroot/lib/arm-linux-gnueabihf/libc.so.6
malloc_usable_size@GLIBC_2.4                      c:\sysgcc\raspberry\bin\../arm-linux-gnueabihf/sysroot/lib/arm-linux-gnueabihf/libc.so.6
mallopt                                           c:\sysgcc\raspberry\bin\../arm-linux-gnueabihf/sysroot/lib/arm-linux-gnueabihf/libc.so.6
mallopt@@GLIBC_2.4                                c:\sysgcc\raspberry\bin\../arm-linux-gnueabihf/sysroot/lib/arm-linux-gnueabihf/libc.so.6
mallopt@GLIBC_2.4                                 c:\sysgcc\raspberry\bin\../arm-linux-gnueabihf/sysroot/lib/arm-linux-gnueabihf/libc.so.6
map                                               obj/Debug/Keyboard_Indicator/Keypad.o
mbrlen                                            c:\sysgcc\raspberry\bin\../arm-linux-gnueabihf/sysroot/lib/arm-linux-gnueabihf/libc.so.6
mbrlen@@GLIBC_2.4                                 c:\sysgcc\raspberry\bin\../arm-linux-gnueabihf/sysroot/lib/arm-linux-gnueabihf/libc.so.6
mbrlen@GLIBC_2.4                                  c:\sysgcc\raspberry\bin\../arm-linux-gnueabihf/sysroot/lib/arm-linux-gnueabihf/libc.so.6
mbrtowc                                           c:\sysgcc\raspberry\bin\../arm-linux-gnueabihf/sysroot/lib/arm-linux-gnueabihf/libc.so.6
mbrtowc@@GLIBC_2.4                                c:\sysgcc\raspberry\bin\../arm-linux-gnueabihf/sysroot/lib/arm-linux-gnueabihf/libc.so.6
mbrtowc@GLIBC_2.4                                 c:\sysgcc\raspberry\bin\../arm-linux-gnueabihf/sysroot/lib/arm-linux-gnueabihf/libc.so.6
mbsinit                                           c:\sysgcc\raspberry\bin\../arm-linux-gnueabihf/sysroot/lib/arm-linux-gnueabihf/libc.so.6
mbsinit@@GLIBC_2.4                                c:\sysgcc\raspberry\bin\../arm-linux-gnueabihf/sysroot/lib/arm-linux-gnueabihf/libc.so.6
mbsinit@GLIBC_2.4                                 c:\sysgcc\raspberry\bin\../arm-linux-gnueabihf/sysroot/lib/arm-linux-gnueabihf/libc.so.6
mbsnrtowcs                                        c:\sysgcc\raspberry\bin\../arm-linux-gnueabihf/sysroot/lib/arm-linux-gnueabihf/libc.so.6
mbsnrtowcs@@GLIBC_2.4                             c:\sysgcc\raspberry\bin\../arm-linux-gnueabihf/sysroot/lib/arm-linux-gnueabihf/libc.so.6
mbsnrtowcs@GLIBC_2.4                              c:\sysgcc\raspberry\bin\../arm-linux-gnueabihf/sysroot/lib/arm-linux-gnueabihf/libc.so.6
mbsrtowcs                                         c:\sysgcc\raspberry\bin\../arm-linux-gnueabihf/sysroot/lib/arm-linux-gnueabihf/libc.so.6
mbsrtowcs@@GLIBC_2.4                              c:\sysgcc\raspberry\bin\../arm-linux-gnueabihf/sysroot/lib/arm-linux-gnueabihf/libc.so.6
mbsrtowcs@GLIBC_2.4                               c:\sysgcc\raspberry\bin\../arm-linux-gnueabihf/sysroot/lib/arm-linux-gnueabihf/libc.so.6
memalign                                          c:\sysgcc\raspberry\bin\../arm-linux-gnueabihf/sysroot/lib/arm-linux-gnueabihf/libc.so.6
memalign@@GLIBC_2.4                               c:\sysgcc\raspberry\bin\../arm-linux-gnueabihf/sysroot/lib/arm-linux-gnueabihf/libc.so.6
memalign@GLIBC_2.4                                c:\sysgcc\raspberry\bin\../arm-linux-gnueabihf/sysroot/lib/arm-linux-gnueabihf/libc.so.6
memccpy                                           c:\sysgcc\raspberry\bin\../arm-linux-gnueabihf/sysroot/lib/arm-linux-gnueabihf/libc.so.6
memccpy@@GLIBC_2.4                                c:\sysgcc\raspberry\bin\../arm-linux-gnueabihf/sysroot/lib/arm-linux-gnueabihf/libc.so.6
memccpy@GLIBC_2.4                                 c:\sysgcc\raspberry\bin\../arm-linux-gnueabihf/sysroot/lib/arm-linux-gnueabihf/libc.so.6
memchr                                            c:\sysgcc\raspberry\bin\../arm-linux-gnueabihf/sysroot/lib/arm-linux-gnueabihf/libc.so.6
                                                  obj/Debug/pigpio.o
memchr@@GLIBC_2.4                                 c:\sysgcc\raspberry\bin\../arm-linux-gnueabihf/sysroot/lib/arm-linux-gnueabihf/libc.so.6
memchr@GLIBC_2.4                                  c:\sysgcc\raspberry\bin\../arm-linux-gnueabihf/sysroot/lib/arm-linux-gnueabihf/libc.so.6
memcpy                                            c:\sysgcc\raspberry\bin\../arm-linux-gnueabihf/sysroot/lib/arm-linux-gnueabihf/libc.so.6
                                                  obj/Debug/command.o
                                                  obj/Debug/pigpio.o
memcpy@@GLIBC_2.4                                 c:\sysgcc\raspberry\bin\../arm-linux-gnueabihf/sysroot/lib/arm-linux-gnueabihf/libc.so.6
memcpy@GLIBC_2.4                                  c:\sysgcc\raspberry\bin\../arm-linux-gnueabihf/sysroot/lib/arm-linux-gnueabihf/libc.so.6
                                                  c:/sysgcc/raspberry/bin/../arm-linux-gnueabihf/sysroot/lib/arm-linux-gnueabihf/libpthread.so
memmem                                            c:\sysgcc\raspberry\bin\../arm-linux-gnueabihf/sysroot/lib/arm-linux-gnueabihf/libc.so.6
memmem@@GLIBC_2.4                                 c:\sysgcc\raspberry\bin\../arm-linux-gnueabihf/sysroot/lib/arm-linux-gnueabihf/libc.so.6
memmem@GLIBC_2.4                                  c:\sysgcc\raspberry\bin\../arm-linux-gnueabihf/sysroot/lib/arm-linux-gnueabihf/libc.so.6
memrchr                                           c:\sysgcc\raspberry\bin\../arm-linux-gnueabihf/sysroot/lib/arm-linux-gnueabihf/libc.so.6
memrchr@@GLIBC_2.4                                c:\sysgcc\raspberry\bin\../arm-linux-gnueabihf/sysroot/lib/arm-linux-gnueabihf/libc.so.6
memrchr@GLIBC_2.4                                 c:\sysgcc\raspberry\bin\../arm-linux-gnueabihf/sysroot/lib/arm-linux-gnueabihf/libc.so.6
memset                                            c:\sysgcc\raspberry\bin\../arm-linux-gnueabihf/sysroot/lib/arm-linux-gnueabihf/libc.so.6
                                                  obj/Debug/pigpio.o
memset@@GLIBC_2.4                                 c:\sysgcc\raspberry\bin\../arm-linux-gnueabihf/sysroot/lib/arm-linux-gnueabihf/libc.so.6
memset@GLIBC_2.4                                  c:\sysgcc\raspberry\bin\../arm-linux-gnueabihf/sysroot/lib/arm-linux-gnueabihf/libc.so.6
                                                  c:/sysgcc/raspberry/bin/../arm-linux-gnueabihf/sysroot/lib/arm-linux-gnueabihf/libpthread.so
millis                                            obj/Debug/commonUnit.o
mkdir                                             c:\sysgcc\raspberry\bin\../arm-linux-gnueabihf/sysroot/lib/arm-linux-gnueabihf/libc.so.6
mkdir@@GLIBC_2.4                                  c:\sysgcc\raspberry\bin\../arm-linux-gnueabihf/sysroot/lib/arm-linux-gnueabihf/libc.so.6
mkdir@GLIBC_2.4                                   c:\sysgcc\raspberry\bin\../arm-linux-gnueabihf/sysroot/lib/arm-linux-gnueabihf/libc.so.6
mkfifo                                            c:\sysgcc\raspberry\bin\../arm-linux-gnueabihf/sysroot/lib/arm-linux-gnueabihf/libc.so.6
                                                  obj/Debug/pigpio.o
mkfifo@@GLIBC_2.4                                 c:\sysgcc\raspberry\bin\../arm-linux-gnueabihf/sysroot/lib/arm-linux-gnueabihf/libc.so.6
mkfifo@GLIBC_2.4                                  c:\sysgcc\raspberry\bin\../arm-linux-gnueabihf/sysroot/lib/arm-linux-gnueabihf/libc.so.6
mknod                                             c:\sysgcc\raspberry\bin\../arm-linux-gnueabihf/sysroot/usr/lib/arm-linux-gnueabihf/libc_nonshared.a(mknod.oS)
                                                  obj/Debug/pigpio.o
mktemp                                            c:\sysgcc\raspberry\bin\../arm-linux-gnueabihf/sysroot/lib/arm-linux-gnueabihf/libc.so.6
mktemp@@GLIBC_2.4                                 c:\sysgcc\raspberry\bin\../arm-linux-gnueabihf/sysroot/lib/arm-linux-gnueabihf/libc.so.6
mktemp@GLIBC_2.4                                  c:\sysgcc\raspberry\bin\../arm-linux-gnueabihf/sysroot/lib/arm-linux-gnueabihf/libc.so.6
mmap                                              c:\sysgcc\raspberry\bin\../arm-linux-gnueabihf/sysroot/lib/arm-linux-gnueabihf/libc.so.6
                                                  obj/Debug/pigpio.o
                                                  obj/Debug/bcm2835.o
mmap64                                            c:\sysgcc\raspberry\bin\../arm-linux-gnueabihf/sysroot/lib/arm-linux-gnueabihf/libc.so.6
mmap64@@GLIBC_2.4                                 c:\sysgcc\raspberry\bin\../arm-linux-gnueabihf/sysroot/lib/arm-linux-gnueabihf/libc.so.6
mmap64@GLIBC_2.4                                  c:\sysgcc\raspberry\bin\../arm-linux-gnueabihf/sysroot/lib/arm-linux-gnueabihf/libc.so.6
mmap@@GLIBC_2.4                                   c:\sysgcc\raspberry\bin\../arm-linux-gnueabihf/sysroot/lib/arm-linux-gnueabihf/libc.so.6
mmap@GLIBC_2.4                                    c:\sysgcc\raspberry\bin\../arm-linux-gnueabihf/sysroot/lib/arm-linux-gnueabihf/libc.so.6
                                                  c:/sysgcc/raspberry/bin/../arm-linux-gnueabihf/sysroot/lib/arm-linux-gnueabihf/libpthread.so
modf                                              c:\sysgcc\raspberry\bin\../arm-linux-gnueabihf/sysroot/lib/arm-linux-gnueabihf/libc.so.6
modf@@GLIBC_2.4                                   c:\sysgcc\raspberry\bin\../arm-linux-gnueabihf/sysroot/lib/arm-linux-gnueabihf/libc.so.6
modf@GLIBC_2.4                                    c:\sysgcc\raspberry\bin\../arm-linux-gnueabihf/sysroot/lib/arm-linux-gnueabihf/libc.so.6
modff                                             c:\sysgcc\raspberry\bin\../arm-linux-gnueabihf/sysroot/lib/arm-linux-gnueabihf/libc.so.6
modff@@GLIBC_2.4                                  c:\sysgcc\raspberry\bin\../arm-linux-gnueabihf/sysroot/lib/arm-linux-gnueabihf/libc.so.6
modff@GLIBC_2.4                                   c:\sysgcc\raspberry\bin\../arm-linux-gnueabihf/sysroot/lib/arm-linux-gnueabihf/libc.so.6
modfl                                             c:\sysgcc\raspberry\bin\../arm-linux-gnueabihf/sysroot/lib/arm-linux-gnueabihf/libc.so.6
modfl@@GLIBC_2.4                                  c:\sysgcc\raspberry\bin\../arm-linux-gnueabihf/sysroot/lib/arm-linux-gnueabihf/libc.so.6
modfl@GLIBC_2.4                                   c:\sysgcc\raspberry\bin\../arm-linux-gnueabihf/sysroot/lib/arm-linux-gnueabihf/libc.so.6
moncontrol                                        c:\sysgcc\raspberry\bin\../arm-linux-gnueabihf/sysroot/lib/arm-linux-gnueabihf/libc.so.6
moncontrol@@GLIBC_2.4                             c:\sysgcc\raspberry\bin\../arm-linux-gnueabihf/sysroot/lib/arm-linux-gnueabihf/libc.so.6
moncontrol@GLIBC_2.4                              c:\sysgcc\raspberry\bin\../arm-linux-gnueabihf/sysroot/lib/arm-linux-gnueabihf/libc.so.6
monstartup                                        c:\sysgcc\raspberry\bin\../arm-linux-gnueabihf/sysroot/lib/arm-linux-gnueabihf/libc.so.6
monstartup@@GLIBC_2.4                             c:\sysgcc\raspberry\bin\../arm-linux-gnueabihf/sysroot/lib/arm-linux-gnueabihf/libc.so.6
monstartup@GLIBC_2.4                              c:\sysgcc\raspberry\bin\../arm-linux-gnueabihf/sysroot/lib/arm-linux-gnueabihf/libc.so.6
mount                                             c:\sysgcc\raspberry\bin\../arm-linux-gnueabihf/sysroot/lib/arm-linux-gnueabihf/libc.so.6
mount@@GLIBC_2.4                                  c:\sysgcc\raspberry\bin\../arm-linux-gnueabihf/sysroot/lib/arm-linux-gnueabihf/libc.so.6
mount@GLIBC_2.4                                   c:\sysgcc\raspberry\bin\../arm-linux-gnueabihf/sysroot/lib/arm-linux-gnueabihf/libc.so.6
mprotect                                          c:\sysgcc\raspberry\bin\../arm-linux-gnueabihf/sysroot/lib/arm-linux-gnueabihf/libc.so.6
mprotect@@GLIBC_2.4                               c:\sysgcc\raspberry\bin\../arm-linux-gnueabihf/sysroot/lib/arm-linux-gnueabihf/libc.so.6
mprotect@GLIBC_2.4                                c:\sysgcc\raspberry\bin\../arm-linux-gnueabihf/sysroot/lib/arm-linux-gnueabihf/libc.so.6
mremap                                            c:\sysgcc\raspberry\bin\../arm-linux-gnueabihf/sysroot/lib/arm-linux-gnueabihf/libc.so.6
mremap@@GLIBC_2.4                                 c:\sysgcc\raspberry\bin\../arm-linux-gnueabihf/sysroot/lib/arm-linux-gnueabihf/libc.so.6
mremap@GLIBC_2.4                                  c:\sysgcc\raspberry\bin\../arm-linux-gnueabihf/sysroot/lib/arm-linux-gnueabihf/libc.so.6
msgrcv                                            c:\sysgcc\raspberry\bin\../arm-linux-gnueabihf/sysroot/lib/arm-linux-gnueabihf/libc.so.6
msgrcv@@GLIBC_2.4                                 c:\sysgcc\raspberry\bin\../arm-linux-gnueabihf/sysroot/lib/arm-linux-gnueabihf/libc.so.6
msgrcv@GLIBC_2.4                                  c:\sysgcc\raspberry\bin\../arm-linux-gnueabihf/sysroot/lib/arm-linux-gnueabihf/libc.so.6
msgsnd                                            c:\sysgcc\raspberry\bin\../arm-linux-gnueabihf/sysroot/lib/arm-linux-gnueabihf/libc.so.6
msgsnd@@GLIBC_2.4                                 c:\sysgcc\raspberry\bin\../arm-linux-gnueabihf/sysroot/lib/arm-linux-gnueabihf/libc.so.6
msgsnd@GLIBC_2.4                                  c:\sysgcc\raspberry\bin\../arm-linux-gnueabihf/sysroot/lib/arm-linux-gnueabihf/libc.so.6
munmap                                            c:\sysgcc\raspberry\bin\../arm-linux-gnueabihf/sysroot/lib/arm-linux-gnueabihf/libc.so.6
                                                  obj/Debug/pigpio.o
                                                  obj/Debug/bcm2835.o
munmap@@GLIBC_2.4                                 c:\sysgcc\raspberry\bin\../arm-linux-gnueabihf/sysroot/lib/arm-linux-gnueabihf/libc.so.6
munmap@GLIBC_2.4                                  c:\sysgcc\raspberry\bin\../arm-linux-gnueabihf/sysroot/lib/arm-linux-gnueabihf/libc.so.6
                                                  c:/sysgcc/raspberry/bin/../arm-linux-gnueabihf/sysroot/lib/arm-linux-gnueabihf/libpthread.so
myPathBad                                         obj/Debug/pigpio.o
myScriptNameValid                                 obj/Debug/pigpio.o
nanosleep                                         c:\sysgcc\raspberry\bin\../arm-linux-gnueabihf/sysroot/lib/arm-linux-gnueabihf/libc.so.6
                                                  obj/Debug/pigpio.o
                                                  obj/Debug/bcm2835.o
nanosleep@@GLIBC_2.4                              c:\sysgcc\raspberry\bin\../arm-linux-gnueabihf/sysroot/lib/arm-linux-gnueabihf/libc.so.6
nanosleep@GLIBC_2.4                               c:\sysgcc\raspberry\bin\../arm-linux-gnueabihf/sysroot/lib/arm-linux-gnueabihf/libc.so.6
newlocale                                         c:\sysgcc\raspberry\bin\../arm-linux-gnueabihf/sysroot/lib/arm-linux-gnueabihf/libc.so.6
newlocale@@GLIBC_2.4                              c:\sysgcc\raspberry\bin\../arm-linux-gnueabihf/sysroot/lib/arm-linux-gnueabihf/libc.so.6
newlocale@GLIBC_2.4                               c:\sysgcc\raspberry\bin\../arm-linux-gnueabihf/sysroot/lib/arm-linux-gnueabihf/libc.so.6
ngettext                                          c:\sysgcc\raspberry\bin\../arm-linux-gnueabihf/sysroot/lib/arm-linux-gnueabihf/libc.so.6
ngettext@@GLIBC_2.4                               c:\sysgcc\raspberry\bin\../arm-linux-gnueabihf/sysroot/lib/arm-linux-gnueabihf/libc.so.6
ngettext@GLIBC_2.4                                c:\sysgcc\raspberry\bin\../arm-linux-gnueabihf/sysroot/lib/arm-linux-gnueabihf/libc.so.6
nl_langinfo_l                                     c:\sysgcc\raspberry\bin\../arm-linux-gnueabihf/sysroot/lib/arm-linux-gnueabihf/libc.so.6
nl_langinfo_l@@GLIBC_2.4                          c:\sysgcc\raspberry\bin\../arm-linux-gnueabihf/sysroot/lib/arm-linux-gnueabihf/libc.so.6
nl_langinfo_l@GLIBC_2.4                           c:\sysgcc\raspberry\bin\../arm-linux-gnueabihf/sysroot/lib/arm-linux-gnueabihf/libc.so.6
nrand48_r                                         c:\sysgcc\raspberry\bin\../arm-linux-gnueabihf/sysroot/lib/arm-linux-gnueabihf/libc.so.6
nrand48_r@@GLIBC_2.4                              c:\sysgcc\raspberry\bin\../arm-linux-gnueabihf/sysroot/lib/arm-linux-gnueabihf/libc.so.6
nrand48_r@GLIBC_2.4                               c:\sysgcc\raspberry\bin\../arm-linux-gnueabihf/sysroot/lib/arm-linux-gnueabihf/libc.so.6
ntohl                                             c:\sysgcc\raspberry\bin\../arm-linux-gnueabihf/sysroot/lib/arm-linux-gnueabihf/libc.so.6
                                                  obj/Debug/pigpio.o
ntohl@@GLIBC_2.4                                  c:\sysgcc\raspberry\bin\../arm-linux-gnueabihf/sysroot/lib/arm-linux-gnueabihf/libc.so.6
ntohl@GLIBC_2.4                                   c:\sysgcc\raspberry\bin\../arm-linux-gnueabihf/sysroot/lib/arm-linux-gnueabihf/libc.so.6
ntohs                                             c:\sysgcc\raspberry\bin\../arm-linux-gnueabihf/sysroot/lib/arm-linux-gnueabihf/libc.so.6
ntohs@@GLIBC_2.4                                  c:\sysgcc\raspberry\bin\../arm-linux-gnueabihf/sysroot/lib/arm-linux-gnueabihf/libc.so.6
ntohs@GLIBC_2.4                                   c:\sysgcc\raspberry\bin\../arm-linux-gnueabihf/sysroot/lib/arm-linux-gnueabihf/libc.so.6
ntp_adjtime                                       c:\sysgcc\raspberry\bin\../arm-linux-gnueabihf/sysroot/lib/arm-linux-gnueabihf/libc.so.6
ntp_adjtime@@GLIBC_2.4                            c:\sysgcc\raspberry\bin\../arm-linux-gnueabihf/sysroot/lib/arm-linux-gnueabihf/libc.so.6
ntp_adjtime@GLIBC_2.4                             c:\sysgcc\raspberry\bin\../arm-linux-gnueabihf/sysroot/lib/arm-linux-gnueabihf/libc.so.6
obstack_printf                                    c:\sysgcc\raspberry\bin\../arm-linux-gnueabihf/sysroot/lib/arm-linux-gnueabihf/libc.so.6
obstack_printf@@GLIBC_2.4                         c:\sysgcc\raspberry\bin\../arm-linux-gnueabihf/sysroot/lib/arm-linux-gnueabihf/libc.so.6
obstack_printf@GLIBC_2.4                          c:\sysgcc\raspberry\bin\../arm-linux-gnueabihf/sysroot/lib/arm-linux-gnueabihf/libc.so.6
obstack_vprintf                                   c:\sysgcc\raspberry\bin\../arm-linux-gnueabihf/sysroot/lib/arm-linux-gnueabihf/libc.so.6
obstack_vprintf@@GLIBC_2.4                        c:\sysgcc\raspberry\bin\../arm-linux-gnueabihf/sysroot/lib/arm-linux-gnueabihf/libc.so.6
obstack_vprintf@GLIBC_2.4                         c:\sysgcc\raspberry\bin\../arm-linux-gnueabihf/sysroot/lib/arm-linux-gnueabihf/libc.so.6
on_exit                                           c:\sysgcc\raspberry\bin\../arm-linux-gnueabihf/sysroot/lib/arm-linux-gnueabihf/libc.so.6
on_exit@@GLIBC_2.4                                c:\sysgcc\raspberry\bin\../arm-linux-gnueabihf/sysroot/lib/arm-linux-gnueabihf/libc.so.6
on_exit@GLIBC_2.4                                 c:\sysgcc\raspberry\bin\../arm-linux-gnueabihf/sysroot/lib/arm-linux-gnueabihf/libc.so.6
open                                              c:/sysgcc/raspberry/bin/../arm-linux-gnueabihf/sysroot/lib/arm-linux-gnueabihf/libpthread.so
                                                  obj/Debug/UART/uart.o
                                                  obj/Debug/pigpio.o
                                                  obj/Debug/bcm2835.o
open64                                            c:/sysgcc/raspberry/bin/../arm-linux-gnueabihf/sysroot/lib/arm-linux-gnueabihf/libpthread.so
open64@@GLIBC_2.4                                 c:/sysgcc/raspberry/bin/../arm-linux-gnueabihf/sysroot/lib/arm-linux-gnueabihf/libpthread.so
                                                  c:\sysgcc\raspberry\bin\../arm-linux-gnueabihf/sysroot/lib/arm-linux-gnueabihf/libc.so.6
open64@GLIBC_2.4                                  c:/sysgcc/raspberry/bin/../arm-linux-gnueabihf/sysroot/lib/arm-linux-gnueabihf/libpthread.so
open@@GLIBC_2.4                                   c:/sysgcc/raspberry/bin/../arm-linux-gnueabihf/sysroot/lib/arm-linux-gnueabihf/libpthread.so
                                                  c:\sysgcc\raspberry\bin\../arm-linux-gnueabihf/sysroot/lib/arm-linux-gnueabihf/libc.so.6
open@GLIBC_2.4                                    c:/sysgcc/raspberry/bin/../arm-linux-gnueabihf/sysroot/lib/arm-linux-gnueabihf/libpthread.so
open_memstream                                    c:\sysgcc\raspberry\bin\../arm-linux-gnueabihf/sysroot/lib/arm-linux-gnueabihf/libc.so.6
open_memstream@@GLIBC_2.4                         c:\sysgcc\raspberry\bin\../arm-linux-gnueabihf/sysroot/lib/arm-linux-gnueabihf/libc.so.6
open_memstream@GLIBC_2.4                          c:\sysgcc\raspberry\bin\../arm-linux-gnueabihf/sysroot/lib/arm-linux-gnueabihf/libc.so.6
openat                                            c:\sysgcc\raspberry\bin\../arm-linux-gnueabihf/sysroot/lib/arm-linux-gnueabihf/libc.so.6
openat64                                          c:\sysgcc\raspberry\bin\../arm-linux-gnueabihf/sysroot/lib/arm-linux-gnueabihf/libc.so.6
openat64@@GLIBC_2.4                               c:\sysgcc\raspberry\bin\../arm-linux-gnueabihf/sysroot/lib/arm-linux-gnueabihf/libc.so.6
openat64@GLIBC_2.4                                c:\sysgcc\raspberry\bin\../arm-linux-gnueabihf/sysroot/lib/arm-linux-gnueabihf/libc.so.6
openat@@GLIBC_2.4                                 c:\sysgcc\raspberry\bin\../arm-linux-gnueabihf/sysroot/lib/arm-linux-gnueabihf/libc.so.6
openat@GLIBC_2.4                                  c:\sysgcc\raspberry\bin\../arm-linux-gnueabihf/sysroot/lib/arm-linux-gnueabihf/libc.so.6
opendir                                           c:\sysgcc\raspberry\bin\../arm-linux-gnueabihf/sysroot/lib/arm-linux-gnueabihf/libc.so.6
opendir@@GLIBC_2.4                                c:\sysgcc\raspberry\bin\../arm-linux-gnueabihf/sysroot/lib/arm-linux-gnueabihf/libc.so.6
opendir@GLIBC_2.4                                 c:\sysgcc\raspberry\bin\../arm-linux-gnueabihf/sysroot/lib/arm-linux-gnueabihf/libc.so.6
pBufferReadPointer                                obj/Debug/UART/uart.o
pBufferWritePointer                               obj/Debug/UART/uart.o
pathconf                                          c:\sysgcc\raspberry\bin\../arm-linux-gnueabihf/sysroot/lib/arm-linux-gnueabihf/libc.so.6
pathconf@@GLIBC_2.4                               c:\sysgcc\raspberry\bin\../arm-linux-gnueabihf/sysroot/lib/arm-linux-gnueabihf/libc.so.6
pathconf@GLIBC_2.4                                c:\sysgcc\raspberry\bin\../arm-linux-gnueabihf/sysroot/lib/arm-linux-gnueabihf/libc.so.6
pause                                             c:/sysgcc/raspberry/bin/../arm-linux-gnueabihf/sysroot/lib/arm-linux-gnueabihf/libpthread.so
pause@@GLIBC_2.4                                  c:/sysgcc/raspberry/bin/../arm-linux-gnueabihf/sysroot/lib/arm-linux-gnueabihf/libpthread.so
                                                  c:\sysgcc\raspberry\bin\../arm-linux-gnueabihf/sysroot/lib/arm-linux-gnueabihf/libc.so.6
pause@GLIBC_2.4                                   c:/sysgcc/raspberry/bin/../arm-linux-gnueabihf/sysroot/lib/arm-linux-gnueabihf/libpthread.so
periferal_SPI1_Init                               obj/Debug/Executive/SPI1.o
perror                                            c:\sysgcc\raspberry\bin\../arm-linux-gnueabihf/sysroot/lib/arm-linux-gnueabihf/libc.so.6
                                                  obj/Debug/diskIO.o
                                                  obj/Debug/UART/uart.o
perror@@GLIBC_2.4                                 c:\sysgcc\raspberry\bin\../arm-linux-gnueabihf/sysroot/lib/arm-linux-gnueabihf/libc.so.6
perror@GLIBC_2.4                                  c:\sysgcc\raspberry\bin\../arm-linux-gnueabihf/sysroot/lib/arm-linux-gnueabihf/libc.so.6
personality                                       c:\sysgcc\raspberry\bin\../arm-linux-gnueabihf/sysroot/lib/arm-linux-gnueabihf/libc.so.6
personality@@GLIBC_2.4                            c:\sysgcc\raspberry\bin\../arm-linux-gnueabihf/sysroot/lib/arm-linux-gnueabihf/libc.so.6
personality@GLIBC_2.4                             c:\sysgcc\raspberry\bin\../arm-linux-gnueabihf/sysroot/lib/arm-linux-gnueabihf/libc.so.6
pipe                                              c:\sysgcc\raspberry\bin\../arm-linux-gnueabihf/sysroot/lib/arm-linux-gnueabihf/libc.so.6
pipe2                                             c:\sysgcc\raspberry\bin\../arm-linux-gnueabihf/sysroot/lib/arm-linux-gnueabihf/libc.so.6
pipe2@@GLIBC_2.9                                  c:\sysgcc\raspberry\bin\../arm-linux-gnueabihf/sysroot/lib/arm-linux-gnueabihf/libc.so.6
pipe2@GLIBC_2.9                                   c:\sysgcc\raspberry\bin\../arm-linux-gnueabihf/sysroot/lib/arm-linux-gnueabihf/libc.so.6
pipe@@GLIBC_2.4                                   c:\sysgcc\raspberry\bin\../arm-linux-gnueabihf/sysroot/lib/arm-linux-gnueabihf/libc.so.6
pipe@GLIBC_2.4                                    c:\sysgcc\raspberry\bin\../arm-linux-gnueabihf/sysroot/lib/arm-linux-gnueabihf/libc.so.6
poll                                              c:\sysgcc\raspberry\bin\../arm-linux-gnueabihf/sysroot/lib/arm-linux-gnueabihf/libc.so.6
                                                  obj/Debug/pigpio.o
poll@@GLIBC_2.4                                   c:\sysgcc\raspberry\bin\../arm-linux-gnueabihf/sysroot/lib/arm-linux-gnueabihf/libc.so.6
poll@GLIBC_2.4                                    c:\sysgcc\raspberry\bin\../arm-linux-gnueabihf/sysroot/lib/arm-linux-gnueabihf/libc.so.6
posix_fadvise64                                   c:\sysgcc\raspberry\bin\../arm-linux-gnueabihf/sysroot/lib/arm-linux-gnueabihf/libc.so.6
posix_fadvise64@@GLIBC_2.4                        c:\sysgcc\raspberry\bin\../arm-linux-gnueabihf/sysroot/lib/arm-linux-gnueabihf/libc.so.6
posix_fadvise64@GLIBC_2.4                         c:\sysgcc\raspberry\bin\../arm-linux-gnueabihf/sysroot/lib/arm-linux-gnueabihf/libc.so.6
posix_memalign                                    c:\sysgcc\raspberry\bin\../arm-linux-gnueabihf/sysroot/lib/arm-linux-gnueabihf/libc.so.6
                                                  obj/Debug/bcm2835.o
posix_memalign@@GLIBC_2.4                         c:\sysgcc\raspberry\bin\../arm-linux-gnueabihf/sysroot/lib/arm-linux-gnueabihf/libc.so.6
posix_memalign@GLIBC_2.4                          c:\sysgcc\raspberry\bin\../arm-linux-gnueabihf/sysroot/lib/arm-linux-gnueabihf/libc.so.6
posix_openpt                                      c:\sysgcc\raspberry\bin\../arm-linux-gnueabihf/sysroot/lib/arm-linux-gnueabihf/libc.so.6
posix_openpt@@GLIBC_2.4                           c:\sysgcc\raspberry\bin\../arm-linux-gnueabihf/sysroot/lib/arm-linux-gnueabihf/libc.so.6
posix_openpt@GLIBC_2.4                            c:\sysgcc\raspberry\bin\../arm-linux-gnueabihf/sysroot/lib/arm-linux-gnueabihf/libc.so.6
posix_spawn_file_actions_addclose                 c:\sysgcc\raspberry\bin\../arm-linux-gnueabihf/sysroot/lib/arm-linux-gnueabihf/libc.so.6
posix_spawn_file_actions_addclose@@GLIBC_2.4      c:\sysgcc\raspberry\bin\../arm-linux-gnueabihf/sysroot/lib/arm-linux-gnueabihf/libc.so.6
posix_spawn_file_actions_addclose@GLIBC_2.4       c:\sysgcc\raspberry\bin\../arm-linux-gnueabihf/sysroot/lib/arm-linux-gnueabihf/libc.so.6
posix_spawn_file_actions_adddup2                  c:\sysgcc\raspberry\bin\../arm-linux-gnueabihf/sysroot/lib/arm-linux-gnueabihf/libc.so.6
posix_spawn_file_actions_adddup2@@GLIBC_2.4       c:\sysgcc\raspberry\bin\../arm-linux-gnueabihf/sysroot/lib/arm-linux-gnueabihf/libc.so.6
posix_spawn_file_actions_adddup2@GLIBC_2.4        c:\sysgcc\raspberry\bin\../arm-linux-gnueabihf/sysroot/lib/arm-linux-gnueabihf/libc.so.6
posix_spawn_file_actions_addopen                  c:\sysgcc\raspberry\bin\../arm-linux-gnueabihf/sysroot/lib/arm-linux-gnueabihf/libc.so.6
posix_spawn_file_actions_addopen@@GLIBC_2.4       c:\sysgcc\raspberry\bin\../arm-linux-gnueabihf/sysroot/lib/arm-linux-gnueabihf/libc.so.6
posix_spawn_file_actions_addopen@GLIBC_2.4        c:\sysgcc\raspberry\bin\../arm-linux-gnueabihf/sysroot/lib/arm-linux-gnueabihf/libc.so.6
posix_spawn_file_actions_destroy                  c:\sysgcc\raspberry\bin\../arm-linux-gnueabihf/sysroot/lib/arm-linux-gnueabihf/libc.so.6
posix_spawn_file_actions_destroy@@GLIBC_2.4       c:\sysgcc\raspberry\bin\../arm-linux-gnueabihf/sysroot/lib/arm-linux-gnueabihf/libc.so.6
posix_spawn_file_actions_destroy@GLIBC_2.4        c:\sysgcc\raspberry\bin\../arm-linux-gnueabihf/sysroot/lib/arm-linux-gnueabihf/libc.so.6
posix_spawn_file_actions_init                     c:\sysgcc\raspberry\bin\../arm-linux-gnueabihf/sysroot/lib/arm-linux-gnueabihf/libc.so.6
posix_spawn_file_actions_init@@GLIBC_2.4          c:\sysgcc\raspberry\bin\../arm-linux-gnueabihf/sysroot/lib/arm-linux-gnueabihf/libc.so.6
posix_spawn_file_actions_init@GLIBC_2.4           c:\sysgcc\raspberry\bin\../arm-linux-gnueabihf/sysroot/lib/arm-linux-gnueabihf/libc.so.6
posix_spawnattr_destroy                           c:\sysgcc\raspberry\bin\../arm-linux-gnueabihf/sysroot/lib/arm-linux-gnueabihf/libc.so.6
posix_spawnattr_destroy@@GLIBC_2.4                c:\sysgcc\raspberry\bin\../arm-linux-gnueabihf/sysroot/lib/arm-linux-gnueabihf/libc.so.6
posix_spawnattr_destroy@GLIBC_2.4                 c:\sysgcc\raspberry\bin\../arm-linux-gnueabihf/sysroot/lib/arm-linux-gnueabihf/libc.so.6
posix_spawnattr_init                              c:\sysgcc\raspberry\bin\../arm-linux-gnueabihf/sysroot/lib/arm-linux-gnueabihf/libc.so.6
posix_spawnattr_init@@GLIBC_2.4                   c:\sysgcc\raspberry\bin\../arm-linux-gnueabihf/sysroot/lib/arm-linux-gnueabihf/libc.so.6
posix_spawnattr_init@GLIBC_2.4                    c:\sysgcc\raspberry\bin\../arm-linux-gnueabihf/sysroot/lib/arm-linux-gnueabihf/libc.so.6
posix_spawnattr_setflags                          c:\sysgcc\raspberry\bin\../arm-linux-gnueabihf/sysroot/lib/arm-linux-gnueabihf/libc.so.6
posix_spawnattr_setflags@@GLIBC_2.4               c:\sysgcc\raspberry\bin\../arm-linux-gnueabihf/sysroot/lib/arm-linux-gnueabihf/libc.so.6
posix_spawnattr_setflags@GLIBC_2.4                c:\sysgcc\raspberry\bin\../arm-linux-gnueabihf/sysroot/lib/arm-linux-gnueabihf/libc.so.6
posix_spawnattr_setsigdefault                     c:\sysgcc\raspberry\bin\../arm-linux-gnueabihf/sysroot/lib/arm-linux-gnueabihf/libc.so.6
posix_spawnattr_setsigdefault@@GLIBC_2.4          c:\sysgcc\raspberry\bin\../arm-linux-gnueabihf/sysroot/lib/arm-linux-gnueabihf/libc.so.6
posix_spawnattr_setsigdefault@GLIBC_2.4           c:\sysgcc\raspberry\bin\../arm-linux-gnueabihf/sysroot/lib/arm-linux-gnueabihf/libc.so.6
posix_spawnattr_setsigmask                        c:\sysgcc\raspberry\bin\../arm-linux-gnueabihf/sysroot/lib/arm-linux-gnueabihf/libc.so.6
posix_spawnattr_setsigmask@@GLIBC_2.4             c:\sysgcc\raspberry\bin\../arm-linux-gnueabihf/sysroot/lib/arm-linux-gnueabihf/libc.so.6
posix_spawnattr_setsigmask@GLIBC_2.4              c:\sysgcc\raspberry\bin\../arm-linux-gnueabihf/sysroot/lib/arm-linux-gnueabihf/libc.so.6
prctl                                             c:\sysgcc\raspberry\bin\../arm-linux-gnueabihf/sysroot/lib/arm-linux-gnueabihf/libc.so.6
prctl@@GLIBC_2.4                                  c:\sysgcc\raspberry\bin\../arm-linux-gnueabihf/sysroot/lib/arm-linux-gnueabihf/libc.so.6
prctl@GLIBC_2.4                                   c:\sysgcc\raspberry\bin\../arm-linux-gnueabihf/sysroot/lib/arm-linux-gnueabihf/libc.so.6
                                                  c:/sysgcc/raspberry/bin/../arm-linux-gnueabihf/sysroot/lib/arm-linux-gnueabihf/libpthread.so
pread                                             c:/sysgcc/raspberry/bin/../arm-linux-gnueabihf/sysroot/lib/arm-linux-gnueabihf/libpthread.so
pread64                                           c:/sysgcc/raspberry/bin/../arm-linux-gnueabihf/sysroot/lib/arm-linux-gnueabihf/libpthread.so
pread64@@GLIBC_2.4                                c:/sysgcc/raspberry/bin/../arm-linux-gnueabihf/sysroot/lib/arm-linux-gnueabihf/libpthread.so
                                                  c:\sysgcc\raspberry\bin\../arm-linux-gnueabihf/sysroot/lib/arm-linux-gnueabihf/libc.so.6
pread64@GLIBC_2.4                                 c:/sysgcc/raspberry/bin/../arm-linux-gnueabihf/sysroot/lib/arm-linux-gnueabihf/libpthread.so
pread@@GLIBC_2.4                                  c:/sysgcc/raspberry/bin/../arm-linux-gnueabihf/sysroot/lib/arm-linux-gnueabihf/libpthread.so
                                                  c:\sysgcc\raspberry\bin\../arm-linux-gnueabihf/sysroot/lib/arm-linux-gnueabihf/libc.so.6
pread@GLIBC_2.4                                   c:/sysgcc/raspberry/bin/../arm-linux-gnueabihf/sysroot/lib/arm-linux-gnueabihf/libpthread.so
printf                                            c:\sysgcc\raspberry\bin\../arm-linux-gnueabihf/sysroot/lib/arm-linux-gnueabihf/libc.so.6
                                                  obj/Debug/diskIO.o
                                                  obj/Debug/ADC/ADS1256.o
                                                  obj/Debug/i2c_lcd/lcd.o
                                                  obj/Debug/Executive/additionalMeasurements.o
                                                  obj/Debug/bcm2835.o
                                                  obj/Debug/main.o
printf@@GLIBC_2.4                                 c:\sysgcc\raspberry\bin\../arm-linux-gnueabihf/sysroot/lib/arm-linux-gnueabihf/libc.so.6
printf@GLIBC_2.4                                  c:\sysgcc\raspberry\bin\../arm-linux-gnueabihf/sysroot/lib/arm-linux-gnueabihf/libc.so.6
profil                                            c:\sysgcc\raspberry\bin\../arm-linux-gnueabihf/sysroot/lib/arm-linux-gnueabihf/libc.so.6
profil@@GLIBC_2.4                                 c:\sysgcc\raspberry\bin\../arm-linux-gnueabihf/sysroot/lib/arm-linux-gnueabihf/libc.so.6
profil@GLIBC_2.4                                  c:\sysgcc\raspberry\bin\../arm-linux-gnueabihf/sysroot/lib/arm-linux-gnueabihf/libc.so.6
program_invocation_name                           c:\sysgcc\raspberry\bin\../arm-linux-gnueabihf/sysroot/lib/arm-linux-gnueabihf/libc.so.6
program_invocation_name@@GLIBC_2.4                c:\sysgcc\raspberry\bin\../arm-linux-gnueabihf/sysroot/lib/arm-linux-gnueabihf/libc.so.6
program_invocation_name@GLIBC_2.4                 c:\sysgcc\raspberry\bin\../arm-linux-gnueabihf/sysroot/lib/arm-linux-gnueabihf/libc.so.6
program_invocation_short_name                     c:\sysgcc\raspberry\bin\../arm-linux-gnueabihf/sysroot/lib/arm-linux-gnueabihf/libc.so.6
program_invocation_short_name@@GLIBC_2.4          c:\sysgcc\raspberry\bin\../arm-linux-gnueabihf/sysroot/lib/arm-linux-gnueabihf/libc.so.6
program_invocation_short_name@GLIBC_2.4           c:\sysgcc\raspberry\bin\../arm-linux-gnueabihf/sysroot/lib/arm-linux-gnueabihf/libc.so.6
pselect                                           c:\sysgcc\raspberry\bin\../arm-linux-gnueabihf/sysroot/lib/arm-linux-gnueabihf/libc.so.6
pselect@@GLIBC_2.4                                c:\sysgcc\raspberry\bin\../arm-linux-gnueabihf/sysroot/lib/arm-linux-gnueabihf/libc.so.6
pselect@GLIBC_2.4                                 c:\sysgcc\raspberry\bin\../arm-linux-gnueabihf/sysroot/lib/arm-linux-gnueabihf/libc.so.6
pthread_attr_init                                 c:\sysgcc\raspberry\bin\../arm-linux-gnueabihf/sysroot/lib/arm-linux-gnueabihf/libc.so.6
                                                  obj/Debug/pigpio.o
                                                  obj/Debug/main.o
pthread_attr_init@@GLIBC_2.4                      c:\sysgcc\raspberry\bin\../arm-linux-gnueabihf/sysroot/lib/arm-linux-gnueabihf/libc.so.6
pthread_attr_init@GLIBC_2.4                       c:\sysgcc\raspberry\bin\../arm-linux-gnueabihf/sysroot/lib/arm-linux-gnueabihf/libc.so.6
pthread_attr_setdetachstate                       c:\sysgcc\raspberry\bin\../arm-linux-gnueabihf/sysroot/lib/arm-linux-gnueabihf/libc.so.6
                                                  obj/Debug/pigpio.o
pthread_attr_setdetachstate@@GLIBC_2.4            c:\sysgcc\raspberry\bin\../arm-linux-gnueabihf/sysroot/lib/arm-linux-gnueabihf/libc.so.6
pthread_attr_setdetachstate@GLIBC_2.4             c:\sysgcc\raspberry\bin\../arm-linux-gnueabihf/sysroot/lib/arm-linux-gnueabihf/libc.so.6
pthread_attr_setinheritsched                      c:\sysgcc\raspberry\bin\../arm-linux-gnueabihf/sysroot/lib/arm-linux-gnueabihf/libc.so.6
                                                  obj/Debug/main.o
pthread_attr_setinheritsched@@GLIBC_2.4           c:\sysgcc\raspberry\bin\../arm-linux-gnueabihf/sysroot/lib/arm-linux-gnueabihf/libc.so.6
pthread_attr_setinheritsched@GLIBC_2.4            c:\sysgcc\raspberry\bin\../arm-linux-gnueabihf/sysroot/lib/arm-linux-gnueabihf/libc.so.6
pthread_attr_setschedparam                        c:\sysgcc\raspberry\bin\../arm-linux-gnueabihf/sysroot/lib/arm-linux-gnueabihf/libc.so.6
                                                  obj/Debug/main.o
pthread_attr_setschedparam@@GLIBC_2.4             c:\sysgcc\raspberry\bin\../arm-linux-gnueabihf/sysroot/lib/arm-linux-gnueabihf/libc.so.6
pthread_attr_setschedparam@GLIBC_2.4              c:\sysgcc\raspberry\bin\../arm-linux-gnueabihf/sysroot/lib/arm-linux-gnueabihf/libc.so.6
pthread_attr_setschedpolicy                       c:/sysgcc/raspberry/bin/../arm-linux-gnueabihf/sysroot/lib/arm-linux-gnueabihf/libpthread.so
                                                  obj/Debug/main.o
pthread_attr_setschedpolicy@@GLIBC_2.4            c:/sysgcc/raspberry/bin/../arm-linux-gnueabihf/sysroot/lib/arm-linux-gnueabihf/libpthread.so
                                                  c:\sysgcc\raspberry\bin\../arm-linux-gnueabihf/sysroot/lib/arm-linux-gnueabihf/libc.so.6
pthread_attr_setschedpolicy@GLIBC_2.4             c:/sysgcc/raspberry/bin/../arm-linux-gnueabihf/sysroot/lib/arm-linux-gnueabihf/libpthread.so
pthread_attr_setstacksize                         c:/sysgcc/raspberry/bin/../arm-linux-gnueabihf/sysroot/lib/arm-linux-gnueabihf/libpthread.so
                                                  obj/Debug/pigpio.o
pthread_attr_setstacksize@@GLIBC_2.4              c:/sysgcc/raspberry/bin/../arm-linux-gnueabihf/sysroot/lib/arm-linux-gnueabihf/libpthread.so
pthread_attr_setstacksize@GLIBC_2.4               c:/sysgcc/raspberry/bin/../arm-linux-gnueabihf/sysroot/lib/arm-linux-gnueabihf/libpthread.so
pthread_barrier_init                              c:/sysgcc/raspberry/bin/../arm-linux-gnueabihf/sysroot/lib/arm-linux-gnueabihf/libpthread.so
pthread_barrier_init@@GLIBC_2.4                   c:/sysgcc/raspberry/bin/../arm-linux-gnueabihf/sysroot/lib/arm-linux-gnueabihf/libpthread.so
pthread_barrier_init@GLIBC_2.4                    c:/sysgcc/raspberry/bin/../arm-linux-gnueabihf/sysroot/lib/arm-linux-gnueabihf/libpthread.so
pthread_barrier_wait                              c:/sysgcc/raspberry/bin/../arm-linux-gnueabihf/sysroot/lib/arm-linux-gnueabihf/libpthread.so
pthread_barrier_wait@@GLIBC_2.4                   c:/sysgcc/raspberry/bin/../arm-linux-gnueabihf/sysroot/lib/arm-linux-gnueabihf/libpthread.so
pthread_barrier_wait@GLIBC_2.4                    c:/sysgcc/raspberry/bin/../arm-linux-gnueabihf/sysroot/lib/arm-linux-gnueabihf/libpthread.so
pthread_cancel                                    c:/sysgcc/raspberry/bin/../arm-linux-gnueabihf/sysroot/lib/arm-linux-gnueabihf/libpthread.so
                                                  obj/Debug/pigpio.o
pthread_cancel@@GLIBC_2.4                         c:/sysgcc/raspberry/bin/../arm-linux-gnueabihf/sysroot/lib/arm-linux-gnueabihf/libpthread.so
pthread_cancel@GLIBC_2.4                          c:/sysgcc/raspberry/bin/../arm-linux-gnueabihf/sysroot/lib/arm-linux-gnueabihf/libpthread.so
pthread_clockjoin_np                              c:/sysgcc/raspberry/bin/../arm-linux-gnueabihf/sysroot/lib/arm-linux-gnueabihf/libpthread.so
pthread_clockjoin_np@@GLIBC_2.31                  c:/sysgcc/raspberry/bin/../arm-linux-gnueabihf/sysroot/lib/arm-linux-gnueabihf/libpthread.so
pthread_clockjoin_np@GLIBC_2.31                   c:/sysgcc/raspberry/bin/../arm-linux-gnueabihf/sysroot/lib/arm-linux-gnueabihf/libpthread.so
pthread_cond_clockwait                            c:/sysgcc/raspberry/bin/../arm-linux-gnueabihf/sysroot/lib/arm-linux-gnueabihf/libpthread.so
pthread_cond_clockwait@@GLIBC_2.30                c:/sysgcc/raspberry/bin/../arm-linux-gnueabihf/sysroot/lib/arm-linux-gnueabihf/libpthread.so
pthread_cond_clockwait@GLIBC_2.30                 c:/sysgcc/raspberry/bin/../arm-linux-gnueabihf/sysroot/lib/arm-linux-gnueabihf/libpthread.so
pthread_cond_init                                 c:/sysgcc/raspberry/bin/../arm-linux-gnueabihf/sysroot/lib/arm-linux-gnueabihf/libpthread.so
                                                  obj/Debug/pigpio.o
pthread_cond_init@@GLIBC_2.4                      c:/sysgcc/raspberry/bin/../arm-linux-gnueabihf/sysroot/lib/arm-linux-gnueabihf/libpthread.so
                                                  c:\sysgcc\raspberry\bin\../arm-linux-gnueabihf/sysroot/lib/arm-linux-gnueabihf/libc.so.6
pthread_cond_init@GLIBC_2.4                       c:/sysgcc/raspberry/bin/../arm-linux-gnueabihf/sysroot/lib/arm-linux-gnueabihf/libpthread.so
pthread_cond_signal                               c:/sysgcc/raspberry/bin/../arm-linux-gnueabihf/sysroot/lib/arm-linux-gnueabihf/libpthread.so
                                                  obj/Debug/pigpio.o
pthread_cond_signal@@GLIBC_2.4                    c:/sysgcc/raspberry/bin/../arm-linux-gnueabihf/sysroot/lib/arm-linux-gnueabihf/libpthread.so
                                                  c:\sysgcc\raspberry\bin\../arm-linux-gnueabihf/sysroot/lib/arm-linux-gnueabihf/libc.so.6
pthread_cond_signal@GLIBC_2.4                     c:/sysgcc/raspberry/bin/../arm-linux-gnueabihf/sysroot/lib/arm-linux-gnueabihf/libpthread.so
pthread_cond_wait                                 c:/sysgcc/raspberry/bin/../arm-linux-gnueabihf/sysroot/lib/arm-linux-gnueabihf/libpthread.so
                                                  obj/Debug/pigpio.o
pthread_cond_wait@@GLIBC_2.4                      c:/sysgcc/raspberry/bin/../arm-linux-gnueabihf/sysroot/lib/arm-linux-gnueabihf/libpthread.so
                                                  c:\sysgcc\raspberry\bin\../arm-linux-gnueabihf/sysroot/lib/arm-linux-gnueabihf/libc.so.6
pthread_cond_wait@GLIBC_2.4                       c:/sysgcc/raspberry/bin/../arm-linux-gnueabihf/sysroot/lib/arm-linux-gnueabihf/libpthread.so
pthread_create                                    c:/sysgcc/raspberry/bin/../arm-linux-gnueabihf/sysroot/lib/arm-linux-gnueabihf/libpthread.so
                                                  obj/Debug/pigpio.o
                                                  obj/Debug/main.o
pthread_create@@GLIBC_2.4                         c:/sysgcc/raspberry/bin/../arm-linux-gnueabihf/sysroot/lib/arm-linux-gnueabihf/libpthread.so
pthread_create@GLIBC_2.4                          c:/sysgcc/raspberry/bin/../arm-linux-gnueabihf/sysroot/lib/arm-linux-gnueabihf/libpthread.so
pthread_detach                                    c:/sysgcc/raspberry/bin/../arm-linux-gnueabihf/sysroot/lib/arm-linux-gnueabihf/libpthread.so
pthread_detach@@GLIBC_2.4                         c:/sysgcc/raspberry/bin/../arm-linux-gnueabihf/sysroot/lib/arm-linux-gnueabihf/libpthread.so
pthread_detach@GLIBC_2.4                          c:/sysgcc/raspberry/bin/../arm-linux-gnueabihf/sysroot/lib/arm-linux-gnueabihf/libpthread.so
pthread_equal                                     c:\sysgcc\raspberry\bin\../arm-linux-gnueabihf/sysroot/lib/arm-linux-gnueabihf/libc.so.6
pthread_equal@@GLIBC_2.4                          c:\sysgcc\raspberry\bin\../arm-linux-gnueabihf/sysroot/lib/arm-linux-gnueabihf/libc.so.6
pthread_equal@GLIBC_2.4                           c:\sysgcc\raspberry\bin\../arm-linux-gnueabihf/sysroot/lib/arm-linux-gnueabihf/libc.so.6
pthread_exit                                      c:/sysgcc/raspberry/bin/../arm-linux-gnueabihf/sysroot/lib/arm-linux-gnueabihf/libpthread.so
                                                  obj/Debug/pigpio.o
                                                  obj/Debug/main.o
pthread_exit@@GLIBC_2.4                           c:/sysgcc/raspberry/bin/../arm-linux-gnueabihf/sysroot/lib/arm-linux-gnueabihf/libpthread.so
                                                  c:\sysgcc\raspberry\bin\../arm-linux-gnueabihf/sysroot/lib/arm-linux-gnueabihf/libc.so.6
pthread_exit@GLIBC_2.4                            c:/sysgcc/raspberry/bin/../arm-linux-gnueabihf/sysroot/lib/arm-linux-gnueabihf/libpthread.so
pthread_getschedparam                             c:/sysgcc/raspberry/bin/../arm-linux-gnueabihf/sysroot/lib/arm-linux-gnueabihf/libpthread.so
                                                  obj/Debug/main.o
pthread_getschedparam@@GLIBC_2.4                  c:/sysgcc/raspberry/bin/../arm-linux-gnueabihf/sysroot/lib/arm-linux-gnueabihf/libpthread.so
                                                  c:\sysgcc\raspberry\bin\../arm-linux-gnueabihf/sysroot/lib/arm-linux-gnueabihf/libc.so.6
pthread_getschedparam@GLIBC_2.4                   c:/sysgcc/raspberry/bin/../arm-linux-gnueabihf/sysroot/lib/arm-linux-gnueabihf/libpthread.so
pthread_getspecific                               c:/sysgcc/raspberry/bin/../arm-linux-gnueabihf/sysroot/lib/arm-linux-gnueabihf/libpthread.so
pthread_getspecific@@GLIBC_2.4                    c:/sysgcc/raspberry/bin/../arm-linux-gnueabihf/sysroot/lib/arm-linux-gnueabihf/libpthread.so
pthread_getspecific@GLIBC_2.4                     c:/sysgcc/raspberry/bin/../arm-linux-gnueabihf/sysroot/lib/arm-linux-gnueabihf/libpthread.so
pthread_join                                      c:/sysgcc/raspberry/bin/../arm-linux-gnueabihf/sysroot/lib/arm-linux-gnueabihf/libpthread.so
                                                  obj/Debug/pigpio.o
                                                  obj/Debug/main.o
pthread_join@@GLIBC_2.4                           c:/sysgcc/raspberry/bin/../arm-linux-gnueabihf/sysroot/lib/arm-linux-gnueabihf/libpthread.so
pthread_join@GLIBC_2.4                            c:/sysgcc/raspberry/bin/../arm-linux-gnueabihf/sysroot/lib/arm-linux-gnueabihf/libpthread.so
pthread_key_create                                c:/sysgcc/raspberry/bin/../arm-linux-gnueabihf/sysroot/lib/arm-linux-gnueabihf/libpthread.so
pthread_key_create@@GLIBC_2.4                     c:/sysgcc/raspberry/bin/../arm-linux-gnueabihf/sysroot/lib/arm-linux-gnueabihf/libpthread.so
pthread_key_create@GLIBC_2.4                      c:/sysgcc/raspberry/bin/../arm-linux-gnueabihf/sysroot/lib/arm-linux-gnueabihf/libpthread.so
pthread_key_delete                                c:/sysgcc/raspberry/bin/../arm-linux-gnueabihf/sysroot/lib/arm-linux-gnueabihf/libpthread.so
pthread_key_delete@@GLIBC_2.4                     c:/sysgcc/raspberry/bin/../arm-linux-gnueabihf/sysroot/lib/arm-linux-gnueabihf/libpthread.so
pthread_key_delete@GLIBC_2.4                      c:/sysgcc/raspberry/bin/../arm-linux-gnueabihf/sysroot/lib/arm-linux-gnueabihf/libpthread.so
pthread_kill                                      c:/sysgcc/raspberry/bin/../arm-linux-gnueabihf/sysroot/lib/arm-linux-gnueabihf/libpthread.so
                                                  obj/Debug/pigpio.o
pthread_kill@@GLIBC_2.4                           c:/sysgcc/raspberry/bin/../arm-linux-gnueabihf/sysroot/lib/arm-linux-gnueabihf/libpthread.so
pthread_kill@GLIBC_2.4                            c:/sysgcc/raspberry/bin/../arm-linux-gnueabihf/sysroot/lib/arm-linux-gnueabihf/libpthread.so
pthread_mutex_clocklock                           c:/sysgcc/raspberry/bin/../arm-linux-gnueabihf/sysroot/lib/arm-linux-gnueabihf/libpthread.so
pthread_mutex_clocklock@@GLIBC_2.30               c:/sysgcc/raspberry/bin/../arm-linux-gnueabihf/sysroot/lib/arm-linux-gnueabihf/libpthread.so
pthread_mutex_clocklock@GLIBC_2.30                c:/sysgcc/raspberry/bin/../arm-linux-gnueabihf/sysroot/lib/arm-linux-gnueabihf/libpthread.so
pthread_mutex_consistent_np                       c:/sysgcc/raspberry/bin/../arm-linux-gnueabihf/sysroot/lib/arm-linux-gnueabihf/libpthread.so
pthread_mutex_consistent_np@@GLIBC_2.4            c:/sysgcc/raspberry/bin/../arm-linux-gnueabihf/sysroot/lib/arm-linux-gnueabihf/libpthread.so
pthread_mutex_consistent_np@GLIBC_2.4             c:/sysgcc/raspberry/bin/../arm-linux-gnueabihf/sysroot/lib/arm-linux-gnueabihf/libpthread.so
pthread_mutex_destroy                             c:/sysgcc/raspberry/bin/../arm-linux-gnueabihf/sysroot/lib/arm-linux-gnueabihf/libpthread.so
pthread_mutex_destroy@@GLIBC_2.4                  c:/sysgcc/raspberry/bin/../arm-linux-gnueabihf/sysroot/lib/arm-linux-gnueabihf/libpthread.so
                                                  c:\sysgcc\raspberry\bin\../arm-linux-gnueabihf/sysroot/lib/arm-linux-gnueabihf/libc.so.6
pthread_mutex_destroy@GLIBC_2.4                   c:/sysgcc/raspberry/bin/../arm-linux-gnueabihf/sysroot/lib/arm-linux-gnueabihf/libpthread.so
pthread_mutex_init                                c:/sysgcc/raspberry/bin/../arm-linux-gnueabihf/sysroot/lib/arm-linux-gnueabihf/libpthread.so
                                                  obj/Debug/pigpio.o
pthread_mutex_init@@GLIBC_2.4                     c:/sysgcc/raspberry/bin/../arm-linux-gnueabihf/sysroot/lib/arm-linux-gnueabihf/libpthread.so
                                                  c:\sysgcc\raspberry\bin\../arm-linux-gnueabihf/sysroot/lib/arm-linux-gnueabihf/libc.so.6
pthread_mutex_init@GLIBC_2.4                      c:/sysgcc/raspberry/bin/../arm-linux-gnueabihf/sysroot/lib/arm-linux-gnueabihf/libpthread.so
pthread_mutex_lock                                c:/sysgcc/raspberry/bin/../arm-linux-gnueabihf/sysroot/lib/arm-linux-gnueabihf/libpthread.so
                                                  obj/Debug/ThermoControlLibrary/PIDCalculs.o
                                                  obj/Debug/ADC/ADC_Unit.o
                                                  obj/Debug/Executive/additionalMeasurements.o
                                                  obj/Debug/pigpio.o
pthread_mutex_lock@@GLIBC_2.4                     c:/sysgcc/raspberry/bin/../arm-linux-gnueabihf/sysroot/lib/arm-linux-gnueabihf/libpthread.so
                                                  c:\sysgcc\raspberry\bin\../arm-linux-gnueabihf/sysroot/lib/arm-linux-gnueabihf/libc.so.6
pthread_mutex_lock@GLIBC_2.4                      c:/sysgcc/raspberry/bin/../arm-linux-gnueabihf/sysroot/lib/arm-linux-gnueabihf/libpthread.so
pthread_mutex_timedlock                           c:/sysgcc/raspberry/bin/../arm-linux-gnueabihf/sysroot/lib/arm-linux-gnueabihf/libpthread.so
pthread_mutex_timedlock@@GLIBC_2.4                c:/sysgcc/raspberry/bin/../arm-linux-gnueabihf/sysroot/lib/arm-linux-gnueabihf/libpthread.so
pthread_mutex_timedlock@GLIBC_2.4                 c:/sysgcc/raspberry/bin/../arm-linux-gnueabihf/sysroot/lib/arm-linux-gnueabihf/libpthread.so
pthread_mutex_trylock                             c:/sysgcc/raspberry/bin/../arm-linux-gnueabihf/sysroot/lib/arm-linux-gnueabihf/libpthread.so
pthread_mutex_trylock@@GLIBC_2.4                  c:/sysgcc/raspberry/bin/../arm-linux-gnueabihf/sysroot/lib/arm-linux-gnueabihf/libpthread.so
pthread_mutex_trylock@GLIBC_2.4                   c:/sysgcc/raspberry/bin/../arm-linux-gnueabihf/sysroot/lib/arm-linux-gnueabihf/libpthread.so
pthread_mutex_unlock                              c:/sysgcc/raspberry/bin/../arm-linux-gnueabihf/sysroot/lib/arm-linux-gnueabihf/libpthread.so
                                                  obj/Debug/ThermoControlLibrary/PIDCalculs.o
                                                  obj/Debug/ADC/ADC_Unit.o
                                                  obj/Debug/Executive/additionalMeasurements.o
                                                  obj/Debug/pigpio.o
pthread_mutex_unlock@@GLIBC_2.4                   c:/sysgcc/raspberry/bin/../arm-linux-gnueabihf/sysroot/lib/arm-linux-gnueabihf/libpthread.so
                                                  c:\sysgcc\raspberry\bin\../arm-linux-gnueabihf/sysroot/lib/arm-linux-gnueabihf/libc.so.6
pthread_mutex_unlock@GLIBC_2.4                    c:/sysgcc/raspberry/bin/../arm-linux-gnueabihf/sysroot/lib/arm-linux-gnueabihf/libpthread.so
pthread_mutexattr_getkind_np                      c:/sysgcc/raspberry/bin/../arm-linux-gnueabihf/sysroot/lib/arm-linux-gnueabihf/libpthread.so
pthread_mutexattr_getkind_np@@GLIBC_2.4           c:/sysgcc/raspberry/bin/../arm-linux-gnueabihf/sysroot/lib/arm-linux-gnueabihf/libpthread.so
pthread_mutexattr_getkind_np@GLIBC_2.4            c:/sysgcc/raspberry/bin/../arm-linux-gnueabihf/sysroot/lib/arm-linux-gnueabihf/libpthread.so
pthread_mutexattr_getrobust_np                    c:/sysgcc/raspberry/bin/../arm-linux-gnueabihf/sysroot/lib/arm-linux-gnueabihf/libpthread.so
pthread_mutexattr_getrobust_np@@GLIBC_2.4         c:/sysgcc/raspberry/bin/../arm-linux-gnueabihf/sysroot/lib/arm-linux-gnueabihf/libpthread.so
pthread_mutexattr_getrobust_np@GLIBC_2.4          c:/sysgcc/raspberry/bin/../arm-linux-gnueabihf/sysroot/lib/arm-linux-gnueabihf/libpthread.so
pthread_mutexattr_init                            c:/sysgcc/raspberry/bin/../arm-linux-gnueabihf/sysroot/lib/arm-linux-gnueabihf/libpthread.so
pthread_mutexattr_init@@GLIBC_2.4                 c:/sysgcc/raspberry/bin/../arm-linux-gnueabihf/sysroot/lib/arm-linux-gnueabihf/libpthread.so
pthread_mutexattr_init@GLIBC_2.4                  c:/sysgcc/raspberry/bin/../arm-linux-gnueabihf/sysroot/lib/arm-linux-gnueabihf/libpthread.so
pthread_mutexattr_setkind_np                      c:/sysgcc/raspberry/bin/../arm-linux-gnueabihf/sysroot/lib/arm-linux-gnueabihf/libpthread.so
pthread_mutexattr_setkind_np@@GLIBC_2.4           c:/sysgcc/raspberry/bin/../arm-linux-gnueabihf/sysroot/lib/arm-linux-gnueabihf/libpthread.so
pthread_mutexattr_setkind_np@GLIBC_2.4            c:/sysgcc/raspberry/bin/../arm-linux-gnueabihf/sysroot/lib/arm-linux-gnueabihf/libpthread.so
pthread_mutexattr_setrobust_np                    c:/sysgcc/raspberry/bin/../arm-linux-gnueabihf/sysroot/lib/arm-linux-gnueabihf/libpthread.so
pthread_mutexattr_setrobust_np@@GLIBC_2.4         c:/sysgcc/raspberry/bin/../arm-linux-gnueabihf/sysroot/lib/arm-linux-gnueabihf/libpthread.so
pthread_mutexattr_setrobust_np@GLIBC_2.4          c:/sysgcc/raspberry/bin/../arm-linux-gnueabihf/sysroot/lib/arm-linux-gnueabihf/libpthread.so
pthread_mutexattr_settype                         c:/sysgcc/raspberry/bin/../arm-linux-gnueabihf/sysroot/lib/arm-linux-gnueabihf/libpthread.so
pthread_mutexattr_settype@@GLIBC_2.4              c:/sysgcc/raspberry/bin/../arm-linux-gnueabihf/sysroot/lib/arm-linux-gnueabihf/libpthread.so
pthread_mutexattr_settype@GLIBC_2.4               c:/sysgcc/raspberry/bin/../arm-linux-gnueabihf/sysroot/lib/arm-linux-gnueabihf/libpthread.so
pthread_once                                      c:/sysgcc/raspberry/bin/../arm-linux-gnueabihf/sysroot/lib/arm-linux-gnueabihf/libpthread.so
pthread_once@@GLIBC_2.4                           c:/sysgcc/raspberry/bin/../arm-linux-gnueabihf/sysroot/lib/arm-linux-gnueabihf/libpthread.so
pthread_once@GLIBC_2.4                            c:/sysgcc/raspberry/bin/../arm-linux-gnueabihf/sysroot/lib/arm-linux-gnueabihf/libpthread.so
pthread_rwlock_rdlock                             c:/sysgcc/raspberry/bin/../arm-linux-gnueabihf/sysroot/lib/arm-linux-gnueabihf/libpthread.so
pthread_rwlock_rdlock@@GLIBC_2.4                  c:/sysgcc/raspberry/bin/../arm-linux-gnueabihf/sysroot/lib/arm-linux-gnueabihf/libpthread.so
pthread_rwlock_rdlock@GLIBC_2.4                   c:/sysgcc/raspberry/bin/../arm-linux-gnueabihf/sysroot/lib/arm-linux-gnueabihf/libpthread.so
pthread_rwlock_unlock                             c:/sysgcc/raspberry/bin/../arm-linux-gnueabihf/sysroot/lib/arm-linux-gnueabihf/libpthread.so
pthread_rwlock_unlock@@GLIBC_2.4                  c:/sysgcc/raspberry/bin/../arm-linux-gnueabihf/sysroot/lib/arm-linux-gnueabihf/libpthread.so
pthread_rwlock_unlock@GLIBC_2.4                   c:/sysgcc/raspberry/bin/../arm-linux-gnueabihf/sysroot/lib/arm-linux-gnueabihf/libpthread.so
pthread_rwlock_wrlock                             c:/sysgcc/raspberry/bin/../arm-linux-gnueabihf/sysroot/lib/arm-linux-gnueabihf/libpthread.so
pthread_rwlock_wrlock@@GLIBC_2.4                  c:/sysgcc/raspberry/bin/../arm-linux-gnueabihf/sysroot/lib/arm-linux-gnueabihf/libpthread.so
pthread_rwlock_wrlock@GLIBC_2.4                   c:/sysgcc/raspberry/bin/../arm-linux-gnueabihf/sysroot/lib/arm-linux-gnueabihf/libpthread.so
pthread_self                                      c:\sysgcc\raspberry\bin\../arm-linux-gnueabihf/sysroot/lib/arm-linux-gnueabihf/libc.so.6
                                                  obj/Debug/pigpio.o
pthread_self@@GLIBC_2.4                           c:\sysgcc\raspberry\bin\../arm-linux-gnueabihf/sysroot/lib/arm-linux-gnueabihf/libc.so.6
pthread_self@GLIBC_2.4                            c:\sysgcc\raspberry\bin\../arm-linux-gnueabihf/sysroot/lib/arm-linux-gnueabihf/libc.so.6
pthread_setschedparam                             c:/sysgcc/raspberry/bin/../arm-linux-gnueabihf/sysroot/lib/arm-linux-gnueabihf/libpthread.so
                                                  obj/Debug/main.o
pthread_setschedparam@@GLIBC_2.4                  c:/sysgcc/raspberry/bin/../arm-linux-gnueabihf/sysroot/lib/arm-linux-gnueabihf/libpthread.so
                                                  c:\sysgcc\raspberry\bin\../arm-linux-gnueabihf/sysroot/lib/arm-linux-gnueabihf/libc.so.6
pthread_setschedparam@GLIBC_2.4                   c:/sysgcc/raspberry/bin/../arm-linux-gnueabihf/sysroot/lib/arm-linux-gnueabihf/libpthread.so
pthread_setspecific                               c:/sysgcc/raspberry/bin/../arm-linux-gnueabihf/sysroot/lib/arm-linux-gnueabihf/libpthread.so
pthread_setspecific@@GLIBC_2.4                    c:/sysgcc/raspberry/bin/../arm-linux-gnueabihf/sysroot/lib/arm-linux-gnueabihf/libpthread.so
pthread_setspecific@GLIBC_2.4                     c:/sysgcc/raspberry/bin/../arm-linux-gnueabihf/sysroot/lib/arm-linux-gnueabihf/libpthread.so
pthread_timedjoin_np                              c:/sysgcc/raspberry/bin/../arm-linux-gnueabihf/sysroot/lib/arm-linux-gnueabihf/libpthread.so
pthread_timedjoin_np@@GLIBC_2.4                   c:/sysgcc/raspberry/bin/../arm-linux-gnueabihf/sysroot/lib/arm-linux-gnueabihf/libpthread.so
pthread_timedjoin_np@GLIBC_2.4                    c:/sysgcc/raspberry/bin/../arm-linux-gnueabihf/sysroot/lib/arm-linux-gnueabihf/libpthread.so
ptsname_r                                         c:\sysgcc\raspberry\bin\../arm-linux-gnueabihf/sysroot/lib/arm-linux-gnueabihf/libc.so.6
ptsname_r@@GLIBC_2.4                              c:\sysgcc\raspberry\bin\../arm-linux-gnueabihf/sysroot/lib/arm-linux-gnueabihf/libc.so.6
ptsname_r@GLIBC_2.4                               c:\sysgcc\raspberry\bin\../arm-linux-gnueabihf/sysroot/lib/arm-linux-gnueabihf/libc.so.6
putBitInBytes                                     obj/Debug/pigpio.o
putc                                              c:\sysgcc\raspberry\bin\../arm-linux-gnueabihf/sysroot/lib/arm-linux-gnueabihf/libc.so.6
putc@@GLIBC_2.4                                   c:\sysgcc\raspberry\bin\../arm-linux-gnueabihf/sysroot/lib/arm-linux-gnueabihf/libc.so.6
putc@GLIBC_2.4                                    c:\sysgcc\raspberry\bin\../arm-linux-gnueabihf/sysroot/lib/arm-linux-gnueabihf/libc.so.6
putc_unlocked                                     c:\sysgcc\raspberry\bin\../arm-linux-gnueabihf/sysroot/lib/arm-linux-gnueabihf/libc.so.6
putc_unlocked@@GLIBC_2.4                          c:\sysgcc\raspberry\bin\../arm-linux-gnueabihf/sysroot/lib/arm-linux-gnueabihf/libc.so.6
putc_unlocked@GLIBC_2.4                           c:\sysgcc\raspberry\bin\../arm-linux-gnueabihf/sysroot/lib/arm-linux-gnueabihf/libc.so.6
puts                                              c:\sysgcc\raspberry\bin\../arm-linux-gnueabihf/sysroot/lib/arm-linux-gnueabihf/libc.so.6
                                                  obj/Debug/diskIO.o
                                                  obj/Debug/UART/uart.o
                                                  obj/Debug/ADC/ADS1256.o
                                                  obj/Debug/ADC/ADC_Unit.o
                                                  obj/Debug/Executive/additionalMeasurements.o
                                                  obj/Debug/DEV_Config.o
                                                  obj/Debug/main.o
puts@@GLIBC_2.4                                   c:\sysgcc\raspberry\bin\../arm-linux-gnueabihf/sysroot/lib/arm-linux-gnueabihf/libc.so.6
puts@GLIBC_2.4                                    c:\sysgcc\raspberry\bin\../arm-linux-gnueabihf/sysroot/lib/arm-linux-gnueabihf/libc.so.6
pututline                                         c:\sysgcc\raspberry\bin\../arm-linux-gnueabihf/sysroot/lib/arm-linux-gnueabihf/libc.so.6
pututline@@GLIBC_2.4                              c:\sysgcc\raspberry\bin\../arm-linux-gnueabihf/sysroot/lib/arm-linux-gnueabihf/libc.so.6
pututline@GLIBC_2.4                               c:\sysgcc\raspberry\bin\../arm-linux-gnueabihf/sysroot/lib/arm-linux-gnueabihf/libc.so.6
pvalloc                                           c:\sysgcc\raspberry\bin\../arm-linux-gnueabihf/sysroot/lib/arm-linux-gnueabihf/libc.so.6
pvalloc@@GLIBC_2.4                                c:\sysgcc\raspberry\bin\../arm-linux-gnueabihf/sysroot/lib/arm-linux-gnueabihf/libc.so.6
pvalloc@GLIBC_2.4                                 c:\sysgcc\raspberry\bin\../arm-linux-gnueabihf/sysroot/lib/arm-linux-gnueabihf/libc.so.6
pwrite                                            c:/sysgcc/raspberry/bin/../arm-linux-gnueabihf/sysroot/lib/arm-linux-gnueabihf/libpthread.so
pwrite64                                          c:/sysgcc/raspberry/bin/../arm-linux-gnueabihf/sysroot/lib/arm-linux-gnueabihf/libpthread.so
pwrite64@@GLIBC_2.4                               c:/sysgcc/raspberry/bin/../arm-linux-gnueabihf/sysroot/lib/arm-linux-gnueabihf/libpthread.so
                                                  c:\sysgcc\raspberry\bin\../arm-linux-gnueabihf/sysroot/lib/arm-linux-gnueabihf/libc.so.6
pwrite64@GLIBC_2.4                                c:/sysgcc/raspberry/bin/../arm-linux-gnueabihf/sysroot/lib/arm-linux-gnueabihf/libpthread.so
pwrite@@GLIBC_2.4                                 c:/sysgcc/raspberry/bin/../arm-linux-gnueabihf/sysroot/lib/arm-linux-gnueabihf/libpthread.so
                                                  c:\sysgcc\raspberry\bin\../arm-linux-gnueabihf/sysroot/lib/arm-linux-gnueabihf/libc.so.6
pwrite@GLIBC_2.4                                  c:/sysgcc/raspberry/bin/../arm-linux-gnueabihf/sysroot/lib/arm-linux-gnueabihf/libpthread.so
qecvt_r                                           c:\sysgcc\raspberry\bin\../arm-linux-gnueabihf/sysroot/lib/arm-linux-gnueabihf/libc.so.6
qecvt_r@@GLIBC_2.4                                c:\sysgcc\raspberry\bin\../arm-linux-gnueabihf/sysroot/lib/arm-linux-gnueabihf/libc.so.6
qecvt_r@GLIBC_2.4                                 c:\sysgcc\raspberry\bin\../arm-linux-gnueabihf/sysroot/lib/arm-linux-gnueabihf/libc.so.6
qfcvt_r                                           c:\sysgcc\raspberry\bin\../arm-linux-gnueabihf/sysroot/lib/arm-linux-gnueabihf/libc.so.6
qfcvt_r@@GLIBC_2.4                                c:\sysgcc\raspberry\bin\../arm-linux-gnueabihf/sysroot/lib/arm-linux-gnueabihf/libc.so.6
qfcvt_r@GLIBC_2.4                                 c:\sysgcc\raspberry\bin\../arm-linux-gnueabihf/sysroot/lib/arm-linux-gnueabihf/libc.so.6
qsort_r                                           c:\sysgcc\raspberry\bin\../arm-linux-gnueabihf/sysroot/lib/arm-linux-gnueabihf/libc.so.6
qsort_r@@GLIBC_2.8                                c:\sysgcc\raspberry\bin\../arm-linux-gnueabihf/sysroot/lib/arm-linux-gnueabihf/libc.so.6
qsort_r@GLIBC_2.8                                 c:\sysgcc\raspberry\bin\../arm-linux-gnueabihf/sysroot/lib/arm-linux-gnueabihf/libc.so.6
raise                                             c:/sysgcc/raspberry/bin/../arm-linux-gnueabihf/sysroot/lib/arm-linux-gnueabihf/libpthread.so
                                                  C:/SysGCC/raspberry/arm-linux-gnueabihf/lib\libgcc.a(_dvmd_lnx.o)
raise@@GLIBC_2.4                                  c:/sysgcc/raspberry/bin/../arm-linux-gnueabihf/sysroot/lib/arm-linux-gnueabihf/libpthread.so
                                                  c:\sysgcc\raspberry\bin\../arm-linux-gnueabihf/sysroot/lib/arm-linux-gnueabihf/libc.so.6
raise@GLIBC_2.4                                   c:/sysgcc/raspberry/bin/../arm-linux-gnueabihf/sysroot/lib/arm-linux-gnueabihf/libpthread.so
random                                            c:\sysgcc\raspberry\bin\../arm-linux-gnueabihf/sysroot/lib/arm-linux-gnueabihf/libc.so.6
random@@GLIBC_2.4                                 c:\sysgcc\raspberry\bin\../arm-linux-gnueabihf/sysroot/lib/arm-linux-gnueabihf/libc.so.6
random@GLIBC_2.4                                  c:\sysgcc\raspberry\bin\../arm-linux-gnueabihf/sysroot/lib/arm-linux-gnueabihf/libc.so.6
random_r                                          c:\sysgcc\raspberry\bin\../arm-linux-gnueabihf/sysroot/lib/arm-linux-gnueabihf/libc.so.6
random_r@@GLIBC_2.4                               c:\sysgcc\raspberry\bin\../arm-linux-gnueabihf/sysroot/lib/arm-linux-gnueabihf/libc.so.6
random_r@GLIBC_2.4                                c:\sysgcc\raspberry\bin\../arm-linux-gnueabihf/sysroot/lib/arm-linux-gnueabihf/libc.so.6
rawDumpScript                                     obj/Debug/pigpio.o
rawDumpWave                                       obj/Debug/pigpio.o
rawWaveAddGeneric                                 obj/Debug/pigpio.o
rawWaveAddSPI                                     obj/Debug/pigpio.o
rawWaveCB                                         obj/Debug/pigpio.o
rawWaveCBAdr                                      obj/Debug/pigpio.o
rawWaveGetIn                                      obj/Debug/pigpio.o
rawWaveGetOOL                                     obj/Debug/pigpio.o
rawWaveGetOut                                     obj/Debug/pigpio.o
rawWaveInfo                                       obj/Debug/pigpio.o
rawWaveSetIn                                      obj/Debug/pigpio.o
rawWaveSetOOL                                     obj/Debug/pigpio.o
rawWaveSetOut                                     obj/Debug/pigpio.o
rawmemchr                                         c:\sysgcc\raspberry\bin\../arm-linux-gnueabihf/sysroot/lib/arm-linux-gnueabihf/libc.so.6
rawmemchr@@GLIBC_2.4                              c:\sysgcc\raspberry\bin\../arm-linux-gnueabihf/sysroot/lib/arm-linux-gnueabihf/libc.so.6
rawmemchr@GLIBC_2.4                               c:\sysgcc\raspberry\bin\../arm-linux-gnueabihf/sysroot/lib/arm-linux-gnueabihf/libc.so.6
re_comp                                           c:\sysgcc\raspberry\bin\../arm-linux-gnueabihf/sysroot/lib/arm-linux-gnueabihf/libc.so.6
re_comp@@GLIBC_2.4                                c:\sysgcc\raspberry\bin\../arm-linux-gnueabihf/sysroot/lib/arm-linux-gnueabihf/libc.so.6
re_comp@GLIBC_2.4                                 c:\sysgcc\raspberry\bin\../arm-linux-gnueabihf/sysroot/lib/arm-linux-gnueabihf/libc.so.6
re_compile_fastmap                                c:\sysgcc\raspberry\bin\../arm-linux-gnueabihf/sysroot/lib/arm-linux-gnueabihf/libc.so.6
re_compile_fastmap@@GLIBC_2.4                     c:\sysgcc\raspberry\bin\../arm-linux-gnueabihf/sysroot/lib/arm-linux-gnueabihf/libc.so.6
re_compile_fastmap@GLIBC_2.4                      c:\sysgcc\raspberry\bin\../arm-linux-gnueabihf/sysroot/lib/arm-linux-gnueabihf/libc.so.6
re_compile_pattern                                c:\sysgcc\raspberry\bin\../arm-linux-gnueabihf/sysroot/lib/arm-linux-gnueabihf/libc.so.6
re_compile_pattern@@GLIBC_2.4                     c:\sysgcc\raspberry\bin\../arm-linux-gnueabihf/sysroot/lib/arm-linux-gnueabihf/libc.so.6
re_compile_pattern@GLIBC_2.4                      c:\sysgcc\raspberry\bin\../arm-linux-gnueabihf/sysroot/lib/arm-linux-gnueabihf/libc.so.6
re_exec                                           c:\sysgcc\raspberry\bin\../arm-linux-gnueabihf/sysroot/lib/arm-linux-gnueabihf/libc.so.6
re_exec@@GLIBC_2.4                                c:\sysgcc\raspberry\bin\../arm-linux-gnueabihf/sysroot/lib/arm-linux-gnueabihf/libc.so.6
re_exec@GLIBC_2.4                                 c:\sysgcc\raspberry\bin\../arm-linux-gnueabihf/sysroot/lib/arm-linux-gnueabihf/libc.so.6
re_match                                          c:\sysgcc\raspberry\bin\../arm-linux-gnueabihf/sysroot/lib/arm-linux-gnueabihf/libc.so.6
re_match@@GLIBC_2.4                               c:\sysgcc\raspberry\bin\../arm-linux-gnueabihf/sysroot/lib/arm-linux-gnueabihf/libc.so.6
re_match@GLIBC_2.4                                c:\sysgcc\raspberry\bin\../arm-linux-gnueabihf/sysroot/lib/arm-linux-gnueabihf/libc.so.6
re_match_2                                        c:\sysgcc\raspberry\bin\../arm-linux-gnueabihf/sysroot/lib/arm-linux-gnueabihf/libc.so.6
re_match_2@@GLIBC_2.4                             c:\sysgcc\raspberry\bin\../arm-linux-gnueabihf/sysroot/lib/arm-linux-gnueabihf/libc.so.6
re_match_2@GLIBC_2.4                              c:\sysgcc\raspberry\bin\../arm-linux-gnueabihf/sysroot/lib/arm-linux-gnueabihf/libc.so.6
re_search                                         c:\sysgcc\raspberry\bin\../arm-linux-gnueabihf/sysroot/lib/arm-linux-gnueabihf/libc.so.6
re_search@@GLIBC_2.4                              c:\sysgcc\raspberry\bin\../arm-linux-gnueabihf/sysroot/lib/arm-linux-gnueabihf/libc.so.6
re_search@GLIBC_2.4                               c:\sysgcc\raspberry\bin\../arm-linux-gnueabihf/sysroot/lib/arm-linux-gnueabihf/libc.so.6
re_search_2                                       c:\sysgcc\raspberry\bin\../arm-linux-gnueabihf/sysroot/lib/arm-linux-gnueabihf/libc.so.6
re_search_2@@GLIBC_2.4                            c:\sysgcc\raspberry\bin\../arm-linux-gnueabihf/sysroot/lib/arm-linux-gnueabihf/libc.so.6
re_search_2@GLIBC_2.4                             c:\sysgcc\raspberry\bin\../arm-linux-gnueabihf/sysroot/lib/arm-linux-gnueabihf/libc.so.6
re_set_registers                                  c:\sysgcc\raspberry\bin\../arm-linux-gnueabihf/sysroot/lib/arm-linux-gnueabihf/libc.so.6
re_set_registers@@GLIBC_2.4                       c:\sysgcc\raspberry\bin\../arm-linux-gnueabihf/sysroot/lib/arm-linux-gnueabihf/libc.so.6
re_set_registers@GLIBC_2.4                        c:\sysgcc\raspberry\bin\../arm-linux-gnueabihf/sysroot/lib/arm-linux-gnueabihf/libc.so.6
re_set_syntax                                     c:\sysgcc\raspberry\bin\../arm-linux-gnueabihf/sysroot/lib/arm-linux-gnueabihf/libc.so.6
re_set_syntax@@GLIBC_2.4                          c:\sysgcc\raspberry\bin\../arm-linux-gnueabihf/sysroot/lib/arm-linux-gnueabihf/libc.so.6
re_set_syntax@GLIBC_2.4                           c:\sysgcc\raspberry\bin\../arm-linux-gnueabihf/sysroot/lib/arm-linux-gnueabihf/libc.so.6
read                                              c:/sysgcc/raspberry/bin/../arm-linux-gnueabihf/sysroot/lib/arm-linux-gnueabihf/libpthread.so
                                                  obj/Debug/UART/uart.o
                                                  obj/Debug/pigpio.o
read@@GLIBC_2.4                                   c:/sysgcc/raspberry/bin/../arm-linux-gnueabihf/sysroot/lib/arm-linux-gnueabihf/libpthread.so
                                                  c:\sysgcc\raspberry\bin\../arm-linux-gnueabihf/sysroot/lib/arm-linux-gnueabihf/libc.so.6
read@GLIBC_2.4                                    c:/sysgcc/raspberry/bin/../arm-linux-gnueabihf/sysroot/lib/arm-linux-gnueabihf/libpthread.so
readahead                                         c:\sysgcc\raspberry\bin\../arm-linux-gnueabihf/sysroot/lib/arm-linux-gnueabihf/libc.so.6
readahead@@GLIBC_2.4                              c:\sysgcc\raspberry\bin\../arm-linux-gnueabihf/sysroot/lib/arm-linux-gnueabihf/libc.so.6
readahead@GLIBC_2.4                               c:\sysgcc\raspberry\bin\../arm-linux-gnueabihf/sysroot/lib/arm-linux-gnueabihf/libc.so.6
readdir                                           c:\sysgcc\raspberry\bin\../arm-linux-gnueabihf/sysroot/lib/arm-linux-gnueabihf/libc.so.6
readdir@@GLIBC_2.4                                c:\sysgcc\raspberry\bin\../arm-linux-gnueabihf/sysroot/lib/arm-linux-gnueabihf/libc.so.6
readdir@GLIBC_2.4                                 c:\sysgcc\raspberry\bin\../arm-linux-gnueabihf/sysroot/lib/arm-linux-gnueabihf/libc.so.6
readdir_r                                         c:\sysgcc\raspberry\bin\../arm-linux-gnueabihf/sysroot/lib/arm-linux-gnueabihf/libc.so.6
readdir_r@@GLIBC_2.4                              c:\sysgcc\raspberry\bin\../arm-linux-gnueabihf/sysroot/lib/arm-linux-gnueabihf/libc.so.6
readdir_r@GLIBC_2.4                               c:\sysgcc\raspberry\bin\../arm-linux-gnueabihf/sysroot/lib/arm-linux-gnueabihf/libc.so.6
readlink                                          c:\sysgcc\raspberry\bin\../arm-linux-gnueabihf/sysroot/lib/arm-linux-gnueabihf/libc.so.6
readlink@@GLIBC_2.4                               c:\sysgcc\raspberry\bin\../arm-linux-gnueabihf/sysroot/lib/arm-linux-gnueabihf/libc.so.6
readlink@GLIBC_2.4                                c:\sysgcc\raspberry\bin\../arm-linux-gnueabihf/sysroot/lib/arm-linux-gnueabihf/libc.so.6
readv                                             c:\sysgcc\raspberry\bin\../arm-linux-gnueabihf/sysroot/lib/arm-linux-gnueabihf/libc.so.6
readv@@GLIBC_2.4                                  c:\sysgcc\raspberry\bin\../arm-linux-gnueabihf/sysroot/lib/arm-linux-gnueabihf/libc.so.6
readv@GLIBC_2.4                                   c:\sysgcc\raspberry\bin\../arm-linux-gnueabihf/sysroot/lib/arm-linux-gnueabihf/libc.so.6
reallocarray                                      c:\sysgcc\raspberry\bin\../arm-linux-gnueabihf/sysroot/lib/arm-linux-gnueabihf/libc.so.6
reallocarray@@GLIBC_2.26                          c:\sysgcc\raspberry\bin\../arm-linux-gnueabihf/sysroot/lib/arm-linux-gnueabihf/libc.so.6
reallocarray@GLIBC_2.26                           c:\sysgcc\raspberry\bin\../arm-linux-gnueabihf/sysroot/lib/arm-linux-gnueabihf/libc.so.6
received_data                                     obj/Debug/UART/uart.o
recv                                              c:/sysgcc/raspberry/bin/../arm-linux-gnueabihf/sysroot/lib/arm-linux-gnueabihf/libpthread.so
                                                  obj/Debug/pigpio.o
recv@@GLIBC_2.4                                   c:/sysgcc/raspberry/bin/../arm-linux-gnueabihf/sysroot/lib/arm-linux-gnueabihf/libpthread.so
                                                  c:\sysgcc\raspberry\bin\../arm-linux-gnueabihf/sysroot/lib/arm-linux-gnueabihf/libc.so.6
recv@GLIBC_2.4                                    c:/sysgcc/raspberry/bin/../arm-linux-gnueabihf/sysroot/lib/arm-linux-gnueabihf/libpthread.so
recvfrom                                          c:/sysgcc/raspberry/bin/../arm-linux-gnueabihf/sysroot/lib/arm-linux-gnueabihf/libpthread.so
recvfrom@@GLIBC_2.4                               c:/sysgcc/raspberry/bin/../arm-linux-gnueabihf/sysroot/lib/arm-linux-gnueabihf/libpthread.so
                                                  c:\sysgcc\raspberry\bin\../arm-linux-gnueabihf/sysroot/lib/arm-linux-gnueabihf/libc.so.6
recvfrom@GLIBC_2.4                                c:/sysgcc/raspberry/bin/../arm-linux-gnueabihf/sysroot/lib/arm-linux-gnueabihf/libpthread.so
recvmsg                                           c:/sysgcc/raspberry/bin/../arm-linux-gnueabihf/sysroot/lib/arm-linux-gnueabihf/libpthread.so
recvmsg@@GLIBC_2.4                                c:/sysgcc/raspberry/bin/../arm-linux-gnueabihf/sysroot/lib/arm-linux-gnueabihf/libpthread.so
                                                  c:\sysgcc\raspberry\bin\../arm-linux-gnueabihf/sysroot/lib/arm-linux-gnueabihf/libc.so.6
recvmsg@GLIBC_2.4                                 c:/sysgcc/raspberry/bin/../arm-linux-gnueabihf/sysroot/lib/arm-linux-gnueabihf/libpthread.so
regcomp                                           c:\sysgcc\raspberry\bin\../arm-linux-gnueabihf/sysroot/lib/arm-linux-gnueabihf/libc.so.6
regcomp@@GLIBC_2.4                                c:\sysgcc\raspberry\bin\../arm-linux-gnueabihf/sysroot/lib/arm-linux-gnueabihf/libc.so.6
regcomp@GLIBC_2.4                                 c:\sysgcc\raspberry\bin\../arm-linux-gnueabihf/sysroot/lib/arm-linux-gnueabihf/libc.so.6
regerror                                          c:\sysgcc\raspberry\bin\../arm-linux-gnueabihf/sysroot/lib/arm-linux-gnueabihf/libc.so.6
regerror@@GLIBC_2.4                               c:\sysgcc\raspberry\bin\../arm-linux-gnueabihf/sysroot/lib/arm-linux-gnueabihf/libc.so.6
regerror@GLIBC_2.4                                c:\sysgcc\raspberry\bin\../arm-linux-gnueabihf/sysroot/lib/arm-linux-gnueabihf/libc.so.6
regfree                                           c:\sysgcc\raspberry\bin\../arm-linux-gnueabihf/sysroot/lib/arm-linux-gnueabihf/libc.so.6
regfree@@GLIBC_2.4                                c:\sysgcc\raspberry\bin\../arm-linux-gnueabihf/sysroot/lib/arm-linux-gnueabihf/libc.so.6
regfree@GLIBC_2.4                                 c:\sysgcc\raspberry\bin\../arm-linux-gnueabihf/sysroot/lib/arm-linux-gnueabihf/libc.so.6
register_printf_function                          c:\sysgcc\raspberry\bin\../arm-linux-gnueabihf/sysroot/lib/arm-linux-gnueabihf/libc.so.6
register_printf_function@@GLIBC_2.4               c:\sysgcc\raspberry\bin\../arm-linux-gnueabihf/sysroot/lib/arm-linux-gnueabihf/libc.so.6
register_printf_function@GLIBC_2.4                c:\sysgcc\raspberry\bin\../arm-linux-gnueabihf/sysroot/lib/arm-linux-gnueabihf/libc.so.6
register_printf_modifier                          c:\sysgcc\raspberry\bin\../arm-linux-gnueabihf/sysroot/lib/arm-linux-gnueabihf/libc.so.6
register_printf_modifier@@GLIBC_2.10              c:\sysgcc\raspberry\bin\../arm-linux-gnueabihf/sysroot/lib/arm-linux-gnueabihf/libc.so.6
register_printf_modifier@GLIBC_2.10               c:\sysgcc\raspberry\bin\../arm-linux-gnueabihf/sysroot/lib/arm-linux-gnueabihf/libc.so.6
register_printf_specifier                         c:\sysgcc\raspberry\bin\../arm-linux-gnueabihf/sysroot/lib/arm-linux-gnueabihf/libc.so.6
register_printf_specifier@@GLIBC_2.10             c:\sysgcc\raspberry\bin\../arm-linux-gnueabihf/sysroot/lib/arm-linux-gnueabihf/libc.so.6
register_printf_specifier@GLIBC_2.10              c:\sysgcc\raspberry\bin\../arm-linux-gnueabihf/sysroot/lib/arm-linux-gnueabihf/libc.so.6
register_printf_type                              c:\sysgcc\raspberry\bin\../arm-linux-gnueabihf/sysroot/lib/arm-linux-gnueabihf/libc.so.6
register_printf_type@@GLIBC_2.10                  c:\sysgcc\raspberry\bin\../arm-linux-gnueabihf/sysroot/lib/arm-linux-gnueabihf/libc.so.6
register_printf_type@GLIBC_2.10                   c:\sysgcc\raspberry\bin\../arm-linux-gnueabihf/sysroot/lib/arm-linux-gnueabihf/libc.so.6
remap_file_pages                                  c:\sysgcc\raspberry\bin\../arm-linux-gnueabihf/sysroot/lib/arm-linux-gnueabihf/libc.so.6
remap_file_pages@@GLIBC_2.4                       c:\sysgcc\raspberry\bin\../arm-linux-gnueabihf/sysroot/lib/arm-linux-gnueabihf/libc.so.6
remap_file_pages@GLIBC_2.4                        c:\sysgcc\raspberry\bin\../arm-linux-gnueabihf/sysroot/lib/arm-linux-gnueabihf/libc.so.6
renameat                                          c:\sysgcc\raspberry\bin\../arm-linux-gnueabihf/sysroot/lib/arm-linux-gnueabihf/libc.so.6
renameat2                                         c:\sysgcc\raspberry\bin\../arm-linux-gnueabihf/sysroot/lib/arm-linux-gnueabihf/libc.so.6
renameat2@@GLIBC_2.28                             c:\sysgcc\raspberry\bin\../arm-linux-gnueabihf/sysroot/lib/arm-linux-gnueabihf/libc.so.6
renameat2@GLIBC_2.28                              c:\sysgcc\raspberry\bin\../arm-linux-gnueabihf/sysroot/lib/arm-linux-gnueabihf/libc.so.6
renameat@@GLIBC_2.4                               c:\sysgcc\raspberry\bin\../arm-linux-gnueabihf/sysroot/lib/arm-linux-gnueabihf/libc.so.6
renameat@GLIBC_2.4                                c:\sysgcc\raspberry\bin\../arm-linux-gnueabihf/sysroot/lib/arm-linux-gnueabihf/libc.so.6
revoke                                            c:\sysgcc\raspberry\bin\../arm-linux-gnueabihf/sysroot/lib/arm-linux-gnueabihf/libc.so.6
revoke@@GLIBC_2.4                                 c:\sysgcc\raspberry\bin\../arm-linux-gnueabihf/sysroot/lib/arm-linux-gnueabihf/libc.so.6
revoke@GLIBC_2.4                                  c:\sysgcc\raspberry\bin\../arm-linux-gnueabihf/sysroot/lib/arm-linux-gnueabihf/libc.so.6
rewinddir                                         c:\sysgcc\raspberry\bin\../arm-linux-gnueabihf/sysroot/lib/arm-linux-gnueabihf/libc.so.6
rewinddir@@GLIBC_2.4                              c:\sysgcc\raspberry\bin\../arm-linux-gnueabihf/sysroot/lib/arm-linux-gnueabihf/libc.so.6
rewinddir@GLIBC_2.4                               c:\sysgcc\raspberry\bin\../arm-linux-gnueabihf/sysroot/lib/arm-linux-gnueabihf/libc.so.6
rindex                                            c:\sysgcc\raspberry\bin\../arm-linux-gnueabihf/sysroot/lib/arm-linux-gnueabihf/libc.so.6
rindex@@GLIBC_2.4                                 c:\sysgcc\raspberry\bin\../arm-linux-gnueabihf/sysroot/lib/arm-linux-gnueabihf/libc.so.6
rindex@GLIBC_2.4                                  c:\sysgcc\raspberry\bin\../arm-linux-gnueabihf/sysroot/lib/arm-linux-gnueabihf/libc.so.6
rmdir                                             c:\sysgcc\raspberry\bin\../arm-linux-gnueabihf/sysroot/lib/arm-linux-gnueabihf/libc.so.6
rmdir@@GLIBC_2.4                                  c:\sysgcc\raspberry\bin\../arm-linux-gnueabihf/sysroot/lib/arm-linux-gnueabihf/libc.so.6
rmdir@GLIBC_2.4                                   c:\sysgcc\raspberry\bin\../arm-linux-gnueabihf/sysroot/lib/arm-linux-gnueabihf/libc.so.6
row                                               obj/Debug/Keyboard_Indicator/Keypad.o
sDisplay_Zone                                     obj/Debug/Keyboard_Indicator/lcd_variables.o
                                                  obj/Debug/i2c_lcd/lcd.o
                                                  obj/Debug/Keyboard_Indicator/Keypad.o
sInputString                                      obj/Debug/Keyboard_Indicator/lcd_variables.o
                                                  obj/Debug/i2c_lcd/lcd.o
                                                  obj/Debug/Keyboard_Indicator/Keypad.o
sSensorData                                       obj/Debug/globalvardefs.o
                                                  obj/Debug/ThermoControlLibrary/PIDCalculs.o
                                                  obj/Debug/ADC/ADC_Unit.o
                                                  obj/Debug/Keyboard_Indicator/Indicator_Variables.o
                                                  obj/Debug/main.o
saveSettings                                      obj/Debug/diskIO.o
                                                  obj/Debug/UART/uart.o
                                                  obj/Debug/Keyboard_Indicator/Keypad.o
sbrk                                              c:\sysgcc\raspberry\bin\../arm-linux-gnueabihf/sysroot/lib/arm-linux-gnueabihf/libc.so.6
sbrk@@GLIBC_2.4                                   c:\sysgcc\raspberry\bin\../arm-linux-gnueabihf/sysroot/lib/arm-linux-gnueabihf/libc.so.6
sbrk@GLIBC_2.4                                    c:\sysgcc\raspberry\bin\../arm-linux-gnueabihf/sysroot/lib/arm-linux-gnueabihf/libc.so.6
scalbn                                            c:\sysgcc\raspberry\bin\../arm-linux-gnueabihf/sysroot/lib/arm-linux-gnueabihf/libc.so.6
scalbn@@GLIBC_2.4                                 c:\sysgcc\raspberry\bin\../arm-linux-gnueabihf/sysroot/lib/arm-linux-gnueabihf/libc.so.6
scalbn@GLIBC_2.4                                  c:\sysgcc\raspberry\bin\../arm-linux-gnueabihf/sysroot/lib/arm-linux-gnueabihf/libc.so.6
scalbnf                                           c:\sysgcc\raspberry\bin\../arm-linux-gnueabihf/sysroot/lib/arm-linux-gnueabihf/libc.so.6
scalbnf@@GLIBC_2.4                                c:\sysgcc\raspberry\bin\../arm-linux-gnueabihf/sysroot/lib/arm-linux-gnueabihf/libc.so.6
scalbnf@GLIBC_2.4                                 c:\sysgcc\raspberry\bin\../arm-linux-gnueabihf/sysroot/lib/arm-linux-gnueabihf/libc.so.6
scalbnl                                           c:\sysgcc\raspberry\bin\../arm-linux-gnueabihf/sysroot/lib/arm-linux-gnueabihf/libc.so.6
scalbnl@@GLIBC_2.4                                c:\sysgcc\raspberry\bin\../arm-linux-gnueabihf/sysroot/lib/arm-linux-gnueabihf/libc.so.6
scalbnl@GLIBC_2.4                                 c:\sysgcc\raspberry\bin\../arm-linux-gnueabihf/sysroot/lib/arm-linux-gnueabihf/libc.so.6
scandirat                                         c:\sysgcc\raspberry\bin\../arm-linux-gnueabihf/sysroot/lib/arm-linux-gnueabihf/libc.so.6
scandirat@@GLIBC_2.15                             c:\sysgcc\raspberry\bin\../arm-linux-gnueabihf/sysroot/lib/arm-linux-gnueabihf/libc.so.6
scandirat@GLIBC_2.15                              c:\sysgcc\raspberry\bin\../arm-linux-gnueabihf/sysroot/lib/arm-linux-gnueabihf/libc.so.6
sched_get_priority_max                            c:\sysgcc\raspberry\bin\../arm-linux-gnueabihf/sysroot/lib/arm-linux-gnueabihf/libc.so.6
                                                  obj/Debug/pigpio.o
sched_get_priority_max@@GLIBC_2.4                 c:\sysgcc\raspberry\bin\../arm-linux-gnueabihf/sysroot/lib/arm-linux-gnueabihf/libc.so.6
sched_get_priority_max@GLIBC_2.4                  c:\sysgcc\raspberry\bin\../arm-linux-gnueabihf/sysroot/lib/arm-linux-gnueabihf/libc.so.6
sched_get_priority_min                            c:\sysgcc\raspberry\bin\../arm-linux-gnueabihf/sysroot/lib/arm-linux-gnueabihf/libc.so.6
sched_get_priority_min@@GLIBC_2.4                 c:\sysgcc\raspberry\bin\../arm-linux-gnueabihf/sysroot/lib/arm-linux-gnueabihf/libc.so.6
sched_get_priority_min@GLIBC_2.4                  c:\sysgcc\raspberry\bin\../arm-linux-gnueabihf/sysroot/lib/arm-linux-gnueabihf/libc.so.6
sched_getparam                                    c:\sysgcc\raspberry\bin\../arm-linux-gnueabihf/sysroot/lib/arm-linux-gnueabihf/libc.so.6
sched_getparam@@GLIBC_2.4                         c:\sysgcc\raspberry\bin\../arm-linux-gnueabihf/sysroot/lib/arm-linux-gnueabihf/libc.so.6
sched_getparam@GLIBC_2.4                          c:\sysgcc\raspberry\bin\../arm-linux-gnueabihf/sysroot/lib/arm-linux-gnueabihf/libc.so.6
sched_getscheduler                                c:\sysgcc\raspberry\bin\../arm-linux-gnueabihf/sysroot/lib/arm-linux-gnueabihf/libc.so.6
sched_getscheduler@@GLIBC_2.4                     c:\sysgcc\raspberry\bin\../arm-linux-gnueabihf/sysroot/lib/arm-linux-gnueabihf/libc.so.6
sched_getscheduler@GLIBC_2.4                      c:\sysgcc\raspberry\bin\../arm-linux-gnueabihf/sysroot/lib/arm-linux-gnueabihf/libc.so.6
sched_rr_get_interval                             c:\sysgcc\raspberry\bin\../arm-linux-gnueabihf/sysroot/lib/arm-linux-gnueabihf/libc.so.6
sched_rr_get_interval@@GLIBC_2.4                  c:\sysgcc\raspberry\bin\../arm-linux-gnueabihf/sysroot/lib/arm-linux-gnueabihf/libc.so.6
sched_rr_get_interval@GLIBC_2.4                   c:\sysgcc\raspberry\bin\../arm-linux-gnueabihf/sysroot/lib/arm-linux-gnueabihf/libc.so.6
sched_setparam                                    c:\sysgcc\raspberry\bin\../arm-linux-gnueabihf/sysroot/lib/arm-linux-gnueabihf/libc.so.6
sched_setparam@@GLIBC_2.4                         c:\sysgcc\raspberry\bin\../arm-linux-gnueabihf/sysroot/lib/arm-linux-gnueabihf/libc.so.6
sched_setparam@GLIBC_2.4                          c:\sysgcc\raspberry\bin\../arm-linux-gnueabihf/sysroot/lib/arm-linux-gnueabihf/libc.so.6
                                                  c:/sysgcc/raspberry/bin/../arm-linux-gnueabihf/sysroot/lib/arm-linux-gnueabihf/libpthread.so
sched_setscheduler                                c:\sysgcc\raspberry\bin\../arm-linux-gnueabihf/sysroot/lib/arm-linux-gnueabihf/libc.so.6
                                                  obj/Debug/pigpio.o
sched_setscheduler@@GLIBC_2.4                     c:\sysgcc\raspberry\bin\../arm-linux-gnueabihf/sysroot/lib/arm-linux-gnueabihf/libc.so.6
sched_setscheduler@GLIBC_2.4                      c:\sysgcc\raspberry\bin\../arm-linux-gnueabihf/sysroot/lib/arm-linux-gnueabihf/libc.so.6
sched_yield                                       c:\sysgcc\raspberry\bin\../arm-linux-gnueabihf/sysroot/lib/arm-linux-gnueabihf/libc.so.6
sched_yield@@GLIBC_2.4                            c:\sysgcc\raspberry\bin\../arm-linux-gnueabihf/sysroot/lib/arm-linux-gnueabihf/libc.so.6
sched_yield@GLIBC_2.4                             c:\sysgcc\raspberry\bin\../arm-linux-gnueabihf/sysroot/lib/arm-linux-gnueabihf/libc.so.6
                                                  c:/sysgcc/raspberry/bin/../arm-linux-gnueabihf/sysroot/lib/arm-linux-gnueabihf/libpthread.so
secure_getenv                                     c:\sysgcc\raspberry\bin\../arm-linux-gnueabihf/sysroot/lib/arm-linux-gnueabihf/libc.so.6
secure_getenv@@GLIBC_2.17                         c:\sysgcc\raspberry\bin\../arm-linux-gnueabihf/sysroot/lib/arm-linux-gnueabihf/libc.so.6
secure_getenv@GLIBC_2.17                          c:\sysgcc\raspberry\bin\../arm-linux-gnueabihf/sysroot/lib/arm-linux-gnueabihf/libc.so.6
seed48_r                                          c:\sysgcc\raspberry\bin\../arm-linux-gnueabihf/sysroot/lib/arm-linux-gnueabihf/libc.so.6
seed48_r@@GLIBC_2.4                               c:\sysgcc\raspberry\bin\../arm-linux-gnueabihf/sysroot/lib/arm-linux-gnueabihf/libc.so.6
seed48_r@GLIBC_2.4                                c:\sysgcc\raspberry\bin\../arm-linux-gnueabihf/sysroot/lib/arm-linux-gnueabihf/libc.so.6
select                                            c:\sysgcc\raspberry\bin\../arm-linux-gnueabihf/sysroot/lib/arm-linux-gnueabihf/libc.so.6
select@@GLIBC_2.4                                 c:\sysgcc\raspberry\bin\../arm-linux-gnueabihf/sysroot/lib/arm-linux-gnueabihf/libc.so.6
select@GLIBC_2.4                                  c:\sysgcc\raspberry\bin\../arm-linux-gnueabihf/sysroot/lib/arm-linux-gnueabihf/libc.so.6
semtimedop                                        c:\sysgcc\raspberry\bin\../arm-linux-gnueabihf/sysroot/lib/arm-linux-gnueabihf/libc.so.6
semtimedop@@GLIBC_2.4                             c:\sysgcc\raspberry\bin\../arm-linux-gnueabihf/sysroot/lib/arm-linux-gnueabihf/libc.so.6
semtimedop@GLIBC_2.4                              c:\sysgcc\raspberry\bin\../arm-linux-gnueabihf/sysroot/lib/arm-linux-gnueabihf/libc.so.6
send                                              c:/sysgcc/raspberry/bin/../arm-linux-gnueabihf/sysroot/lib/arm-linux-gnueabihf/libpthread.so
send@@GLIBC_2.4                                   c:/sysgcc/raspberry/bin/../arm-linux-gnueabihf/sysroot/lib/arm-linux-gnueabihf/libpthread.so
                                                  c:\sysgcc\raspberry\bin\../arm-linux-gnueabihf/sysroot/lib/arm-linux-gnueabihf/libc.so.6
send@GLIBC_2.4                                    c:/sysgcc/raspberry/bin/../arm-linux-gnueabihf/sysroot/lib/arm-linux-gnueabihf/libpthread.so
sendmmsg                                          c:\sysgcc\raspberry\bin\../arm-linux-gnueabihf/sysroot/lib/arm-linux-gnueabihf/libc.so.6
sendmmsg@@GLIBC_2.14                              c:\sysgcc\raspberry\bin\../arm-linux-gnueabihf/sysroot/lib/arm-linux-gnueabihf/libc.so.6
sendmmsg@GLIBC_2.14                               c:\sysgcc\raspberry\bin\../arm-linux-gnueabihf/sysroot/lib/arm-linux-gnueabihf/libc.so.6
sendmsg                                           c:/sysgcc/raspberry/bin/../arm-linux-gnueabihf/sysroot/lib/arm-linux-gnueabihf/libpthread.so
sendmsg@@GLIBC_2.4                                c:/sysgcc/raspberry/bin/../arm-linux-gnueabihf/sysroot/lib/arm-linux-gnueabihf/libpthread.so
                                                  c:\sysgcc\raspberry\bin\../arm-linux-gnueabihf/sysroot/lib/arm-linux-gnueabihf/libc.so.6
sendmsg@GLIBC_2.4                                 c:/sysgcc/raspberry/bin/../arm-linux-gnueabihf/sysroot/lib/arm-linux-gnueabihf/libpthread.so
sendto                                            c:/sysgcc/raspberry/bin/../arm-linux-gnueabihf/sysroot/lib/arm-linux-gnueabihf/libpthread.so
sendto@@GLIBC_2.4                                 c:/sysgcc/raspberry/bin/../arm-linux-gnueabihf/sysroot/lib/arm-linux-gnueabihf/libpthread.so
                                                  c:\sysgcc\raspberry\bin\../arm-linux-gnueabihf/sysroot/lib/arm-linux-gnueabihf/libc.so.6
sendto@GLIBC_2.4                                  c:/sysgcc/raspberry/bin/../arm-linux-gnueabihf/sysroot/lib/arm-linux-gnueabihf/libpthread.so
serClose                                          obj/Debug/pigpio.o
serDataAvailable                                  obj/Debug/pigpio.o
serOpen                                           obj/Debug/pigpio.o
serRead                                           obj/Debug/pigpio.o
serReadByte                                       obj/Debug/pigpio.o
serWrite                                          obj/Debug/pigpio.o
serWriteByte                                      obj/Debug/pigpio.o
serial                                            obj/Debug/UART/uart.o
setExecuteModule                                  obj/Debug/Executive/modulSPI.o
setbuffer                                         c:\sysgcc\raspberry\bin\../arm-linux-gnueabihf/sysroot/lib/arm-linux-gnueabihf/libc.so.6
setbuffer@@GLIBC_2.4                              c:\sysgcc\raspberry\bin\../arm-linux-gnueabihf/sysroot/lib/arm-linux-gnueabihf/libc.so.6
setbuffer@GLIBC_2.4                               c:\sysgcc\raspberry\bin\../arm-linux-gnueabihf/sysroot/lib/arm-linux-gnueabihf/libc.so.6
setcontext                                        c:\sysgcc\raspberry\bin\../arm-linux-gnueabihf/sysroot/lib/arm-linux-gnueabihf/libc.so.6
setcontext@@GLIBC_2.4                             c:\sysgcc\raspberry\bin\../arm-linux-gnueabihf/sysroot/lib/arm-linux-gnueabihf/libc.so.6
setcontext@GLIBC_2.4                              c:\sysgcc\raspberry\bin\../arm-linux-gnueabihf/sysroot/lib/arm-linux-gnueabihf/libc.so.6
setenv                                            c:\sysgcc\raspberry\bin\../arm-linux-gnueabihf/sysroot/lib/arm-linux-gnueabihf/libc.so.6
setenv@@GLIBC_2.4                                 c:\sysgcc\raspberry\bin\../arm-linux-gnueabihf/sysroot/lib/arm-linux-gnueabihf/libc.so.6
setenv@GLIBC_2.4                                  c:\sysgcc\raspberry\bin\../arm-linux-gnueabihf/sysroot/lib/arm-linux-gnueabihf/libc.so.6
setgid                                            c:\sysgcc\raspberry\bin\../arm-linux-gnueabihf/sysroot/lib/arm-linux-gnueabihf/libc.so.6
setgid@@GLIBC_2.4                                 c:\sysgcc\raspberry\bin\../arm-linux-gnueabihf/sysroot/lib/arm-linux-gnueabihf/libc.so.6
setgid@GLIBC_2.4                                  c:\sysgcc\raspberry\bin\../arm-linux-gnueabihf/sysroot/lib/arm-linux-gnueabihf/libc.so.6
setitimer                                         c:\sysgcc\raspberry\bin\../arm-linux-gnueabihf/sysroot/lib/arm-linux-gnueabihf/libc.so.6
setitimer@@GLIBC_2.4                              c:\sysgcc\raspberry\bin\../arm-linux-gnueabihf/sysroot/lib/arm-linux-gnueabihf/libc.so.6
setitimer@GLIBC_2.4                               c:\sysgcc\raspberry\bin\../arm-linux-gnueabihf/sysroot/lib/arm-linux-gnueabihf/libc.so.6
setmntent                                         c:\sysgcc\raspberry\bin\../arm-linux-gnueabihf/sysroot/lib/arm-linux-gnueabihf/libc.so.6
setmntent@@GLIBC_2.4                              c:\sysgcc\raspberry\bin\../arm-linux-gnueabihf/sysroot/lib/arm-linux-gnueabihf/libc.so.6
setmntent@GLIBC_2.4                               c:\sysgcc\raspberry\bin\../arm-linux-gnueabihf/sysroot/lib/arm-linux-gnueabihf/libc.so.6
setpgid                                           c:\sysgcc\raspberry\bin\../arm-linux-gnueabihf/sysroot/lib/arm-linux-gnueabihf/libc.so.6
setpgid@@GLIBC_2.4                                c:\sysgcc\raspberry\bin\../arm-linux-gnueabihf/sysroot/lib/arm-linux-gnueabihf/libc.so.6
setpgid@GLIBC_2.4                                 c:\sysgcc\raspberry\bin\../arm-linux-gnueabihf/sysroot/lib/arm-linux-gnueabihf/libc.so.6
setpriority                                       c:\sysgcc\raspberry\bin\../arm-linux-gnueabihf/sysroot/lib/arm-linux-gnueabihf/libc.so.6
setpriority@@GLIBC_2.4                            c:\sysgcc\raspberry\bin\../arm-linux-gnueabihf/sysroot/lib/arm-linux-gnueabihf/libc.so.6
setpriority@GLIBC_2.4                             c:\sysgcc\raspberry\bin\../arm-linux-gnueabihf/sysroot/lib/arm-linux-gnueabihf/libc.so.6
setregid                                          c:\sysgcc\raspberry\bin\../arm-linux-gnueabihf/sysroot/lib/arm-linux-gnueabihf/libc.so.6
setregid@@GLIBC_2.4                               c:\sysgcc\raspberry\bin\../arm-linux-gnueabihf/sysroot/lib/arm-linux-gnueabihf/libc.so.6
setregid@GLIBC_2.4                                c:\sysgcc\raspberry\bin\../arm-linux-gnueabihf/sysroot/lib/arm-linux-gnueabihf/libc.so.6
setresgid                                         c:\sysgcc\raspberry\bin\../arm-linux-gnueabihf/sysroot/lib/arm-linux-gnueabihf/libc.so.6
setresgid@@GLIBC_2.4                              c:\sysgcc\raspberry\bin\../arm-linux-gnueabihf/sysroot/lib/arm-linux-gnueabihf/libc.so.6
setresgid@GLIBC_2.4                               c:\sysgcc\raspberry\bin\../arm-linux-gnueabihf/sysroot/lib/arm-linux-gnueabihf/libc.so.6
setresuid                                         c:\sysgcc\raspberry\bin\../arm-linux-gnueabihf/sysroot/lib/arm-linux-gnueabihf/libc.so.6
setresuid@@GLIBC_2.4                              c:\sysgcc\raspberry\bin\../arm-linux-gnueabihf/sysroot/lib/arm-linux-gnueabihf/libc.so.6
setresuid@GLIBC_2.4                               c:\sysgcc\raspberry\bin\../arm-linux-gnueabihf/sysroot/lib/arm-linux-gnueabihf/libc.so.6
setreuid                                          c:\sysgcc\raspberry\bin\../arm-linux-gnueabihf/sysroot/lib/arm-linux-gnueabihf/libc.so.6
setreuid@@GLIBC_2.4                               c:\sysgcc\raspberry\bin\../arm-linux-gnueabihf/sysroot/lib/arm-linux-gnueabihf/libc.so.6
setreuid@GLIBC_2.4                                c:\sysgcc\raspberry\bin\../arm-linux-gnueabihf/sysroot/lib/arm-linux-gnueabihf/libc.so.6
setrlimit                                         c:\sysgcc\raspberry\bin\../arm-linux-gnueabihf/sysroot/lib/arm-linux-gnueabihf/libc.so.6
setrlimit64                                       c:\sysgcc\raspberry\bin\../arm-linux-gnueabihf/sysroot/lib/arm-linux-gnueabihf/libc.so.6
setrlimit64@@GLIBC_2.4                            c:\sysgcc\raspberry\bin\../arm-linux-gnueabihf/sysroot/lib/arm-linux-gnueabihf/libc.so.6
setrlimit64@GLIBC_2.4                             c:\sysgcc\raspberry\bin\../arm-linux-gnueabihf/sysroot/lib/arm-linux-gnueabihf/libc.so.6
setrlimit@@GLIBC_2.4                              c:\sysgcc\raspberry\bin\../arm-linux-gnueabihf/sysroot/lib/arm-linux-gnueabihf/libc.so.6
setrlimit@GLIBC_2.4                               c:\sysgcc\raspberry\bin\../arm-linux-gnueabihf/sysroot/lib/arm-linux-gnueabihf/libc.so.6
setsid                                            c:\sysgcc\raspberry\bin\../arm-linux-gnueabihf/sysroot/lib/arm-linux-gnueabihf/libc.so.6
setsid@@GLIBC_2.4                                 c:\sysgcc\raspberry\bin\../arm-linux-gnueabihf/sysroot/lib/arm-linux-gnueabihf/libc.so.6
setsid@GLIBC_2.4                                  c:\sysgcc\raspberry\bin\../arm-linux-gnueabihf/sysroot/lib/arm-linux-gnueabihf/libc.so.6
setsockopt                                        c:\sysgcc\raspberry\bin\../arm-linux-gnueabihf/sysroot/lib/arm-linux-gnueabihf/libc.so.6
                                                  obj/Debug/pigpio.o
setsockopt@@GLIBC_2.4                             c:\sysgcc\raspberry\bin\../arm-linux-gnueabihf/sysroot/lib/arm-linux-gnueabihf/libc.so.6
setsockopt@GLIBC_2.4                              c:\sysgcc\raspberry\bin\../arm-linux-gnueabihf/sysroot/lib/arm-linux-gnueabihf/libc.so.6
setstate                                          c:\sysgcc\raspberry\bin\../arm-linux-gnueabihf/sysroot/lib/arm-linux-gnueabihf/libc.so.6
setstate@@GLIBC_2.4                               c:\sysgcc\raspberry\bin\../arm-linux-gnueabihf/sysroot/lib/arm-linux-gnueabihf/libc.so.6
setstate@GLIBC_2.4                                c:\sysgcc\raspberry\bin\../arm-linux-gnueabihf/sysroot/lib/arm-linux-gnueabihf/libc.so.6
setstate_r                                        c:\sysgcc\raspberry\bin\../arm-linux-gnueabihf/sysroot/lib/arm-linux-gnueabihf/libc.so.6
setstate_r@@GLIBC_2.4                             c:\sysgcc\raspberry\bin\../arm-linux-gnueabihf/sysroot/lib/arm-linux-gnueabihf/libc.so.6
setstate_r@GLIBC_2.4                              c:\sysgcc\raspberry\bin\../arm-linux-gnueabihf/sysroot/lib/arm-linux-gnueabihf/libc.so.6
settimeofday                                      c:\sysgcc\raspberry\bin\../arm-linux-gnueabihf/sysroot/lib/arm-linux-gnueabihf/libc.so.6
settimeofday@@GLIBC_2.4                           c:\sysgcc\raspberry\bin\../arm-linux-gnueabihf/sysroot/lib/arm-linux-gnueabihf/libc.so.6
settimeofday@GLIBC_2.4                            c:\sysgcc\raspberry\bin\../arm-linux-gnueabihf/sysroot/lib/arm-linux-gnueabihf/libc.so.6
setttyent                                         c:\sysgcc\raspberry\bin\../arm-linux-gnueabihf/sysroot/lib/arm-linux-gnueabihf/libc.so.6
setttyent@@GLIBC_2.4                              c:\sysgcc\raspberry\bin\../arm-linux-gnueabihf/sysroot/lib/arm-linux-gnueabihf/libc.so.6
setttyent@GLIBC_2.4                               c:\sysgcc\raspberry\bin\../arm-linux-gnueabihf/sysroot/lib/arm-linux-gnueabihf/libc.so.6
setuid                                            c:\sysgcc\raspberry\bin\../arm-linux-gnueabihf/sysroot/lib/arm-linux-gnueabihf/libc.so.6
setuid@@GLIBC_2.4                                 c:\sysgcc\raspberry\bin\../arm-linux-gnueabihf/sysroot/lib/arm-linux-gnueabihf/libc.so.6
setuid@GLIBC_2.4                                  c:\sysgcc\raspberry\bin\../arm-linux-gnueabihf/sysroot/lib/arm-linux-gnueabihf/libc.so.6
setutent                                          c:\sysgcc\raspberry\bin\../arm-linux-gnueabihf/sysroot/lib/arm-linux-gnueabihf/libc.so.6
setutent@@GLIBC_2.4                               c:\sysgcc\raspberry\bin\../arm-linux-gnueabihf/sysroot/lib/arm-linux-gnueabihf/libc.so.6
setutent@GLIBC_2.4                                c:\sysgcc\raspberry\bin\../arm-linux-gnueabihf/sysroot/lib/arm-linux-gnueabihf/libc.so.6
setvbuf                                           c:\sysgcc\raspberry\bin\../arm-linux-gnueabihf/sysroot/lib/arm-linux-gnueabihf/libc.so.6
setvbuf@@GLIBC_2.4                                c:\sysgcc\raspberry\bin\../arm-linux-gnueabihf/sysroot/lib/arm-linux-gnueabihf/libc.so.6
setvbuf@GLIBC_2.4                                 c:\sysgcc\raspberry\bin\../arm-linux-gnueabihf/sysroot/lib/arm-linux-gnueabihf/libc.so.6
sgetsgent_r                                       c:\sysgcc\raspberry\bin\../arm-linux-gnueabihf/sysroot/lib/arm-linux-gnueabihf/libc.so.6
sgetsgent_r@@GLIBC_2.10                           c:\sysgcc\raspberry\bin\../arm-linux-gnueabihf/sysroot/lib/arm-linux-gnueabihf/libc.so.6
sgetsgent_r@GLIBC_2.10                            c:\sysgcc\raspberry\bin\../arm-linux-gnueabihf/sysroot/lib/arm-linux-gnueabihf/libc.so.6
sgetspent_r                                       c:\sysgcc\raspberry\bin\../arm-linux-gnueabihf/sysroot/lib/arm-linux-gnueabihf/libc.so.6
sgetspent_r@@GLIBC_2.4                            c:\sysgcc\raspberry\bin\../arm-linux-gnueabihf/sysroot/lib/arm-linux-gnueabihf/libc.so.6
sgetspent_r@GLIBC_2.4                             c:\sysgcc\raspberry\bin\../arm-linux-gnueabihf/sysroot/lib/arm-linux-gnueabihf/libc.so.6
shell                                             obj/Debug/pigpio.o
shutdown                                          c:\sysgcc\raspberry\bin\../arm-linux-gnueabihf/sysroot/lib/arm-linux-gnueabihf/libc.so.6
shutdown@@GLIBC_2.4                               c:\sysgcc\raspberry\bin\../arm-linux-gnueabihf/sysroot/lib/arm-linux-gnueabihf/libc.so.6
shutdown@GLIBC_2.4                                c:\sysgcc\raspberry\bin\../arm-linux-gnueabihf/sysroot/lib/arm-linux-gnueabihf/libc.so.6
sigaction                                         c:/sysgcc/raspberry/bin/../arm-linux-gnueabihf/sysroot/lib/arm-linux-gnueabihf/libpthread.so
                                                  obj/Debug/pigpio.o
sigaction@@GLIBC_2.4                              c:/sysgcc/raspberry/bin/../arm-linux-gnueabihf/sysroot/lib/arm-linux-gnueabihf/libpthread.so
                                                  c:\sysgcc\raspberry\bin\../arm-linux-gnueabihf/sysroot/lib/arm-linux-gnueabihf/libc.so.6
sigaction@GLIBC_2.4                               c:/sysgcc/raspberry/bin/../arm-linux-gnueabihf/sysroot/lib/arm-linux-gnueabihf/libpthread.so
sigaltstack                                       c:\sysgcc\raspberry\bin\../arm-linux-gnueabihf/sysroot/lib/arm-linux-gnueabihf/libc.so.6
sigaltstack@@GLIBC_2.4                            c:\sysgcc\raspberry\bin\../arm-linux-gnueabihf/sysroot/lib/arm-linux-gnueabihf/libc.so.6
sigaltstack@GLIBC_2.4                             c:\sysgcc\raspberry\bin\../arm-linux-gnueabihf/sysroot/lib/arm-linux-gnueabihf/libc.so.6
sigblock                                          c:\sysgcc\raspberry\bin\../arm-linux-gnueabihf/sysroot/lib/arm-linux-gnueabihf/libc.so.6
sigblock@@GLIBC_2.4                               c:\sysgcc\raspberry\bin\../arm-linux-gnueabihf/sysroot/lib/arm-linux-gnueabihf/libc.so.6
sigblock@GLIBC_2.4                                c:\sysgcc\raspberry\bin\../arm-linux-gnueabihf/sysroot/lib/arm-linux-gnueabihf/libc.so.6
siglongjmp                                        c:\sysgcc\raspberry\bin\../arm-linux-gnueabihf/sysroot/lib/arm-linux-gnueabihf/libc.so.6
siglongjmp@@GLIBC_2.4                             c:\sysgcc\raspberry\bin\../arm-linux-gnueabihf/sysroot/lib/arm-linux-gnueabihf/libc.so.6
signal                                            c:\sysgcc\raspberry\bin\../arm-linux-gnueabihf/sysroot/lib/arm-linux-gnueabihf/libc.so.6
                                                  obj/Debug/DEV_Config.o
signal@@GLIBC_2.4                                 c:\sysgcc\raspberry\bin\../arm-linux-gnueabihf/sysroot/lib/arm-linux-gnueabihf/libc.so.6
signal@GLIBC_2.4                                  c:\sysgcc\raspberry\bin\../arm-linux-gnueabihf/sysroot/lib/arm-linux-gnueabihf/libc.so.6
sigpause                                          c:\sysgcc\raspberry\bin\../arm-linux-gnueabihf/sysroot/lib/arm-linux-gnueabihf/libc.so.6
sigpause@@GLIBC_2.4                               c:\sysgcc\raspberry\bin\../arm-linux-gnueabihf/sysroot/lib/arm-linux-gnueabihf/libc.so.6
sigpause@GLIBC_2.4                                c:\sysgcc\raspberry\bin\../arm-linux-gnueabihf/sysroot/lib/arm-linux-gnueabihf/libc.so.6
sigprocmask                                       c:\sysgcc\raspberry\bin\../arm-linux-gnueabihf/sysroot/lib/arm-linux-gnueabihf/libc.so.6
sigprocmask@@GLIBC_2.4                            c:\sysgcc\raspberry\bin\../arm-linux-gnueabihf/sysroot/lib/arm-linux-gnueabihf/libc.so.6
sigprocmask@GLIBC_2.4                             c:\sysgcc\raspberry\bin\../arm-linux-gnueabihf/sysroot/lib/arm-linux-gnueabihf/libc.so.6
sigqueue                                          c:\sysgcc\raspberry\bin\../arm-linux-gnueabihf/sysroot/lib/arm-linux-gnueabihf/libc.so.6
sigqueue@@GLIBC_2.4                               c:\sysgcc\raspberry\bin\../arm-linux-gnueabihf/sysroot/lib/arm-linux-gnueabihf/libc.so.6
sigqueue@GLIBC_2.4                                c:\sysgcc\raspberry\bin\../arm-linux-gnueabihf/sysroot/lib/arm-linux-gnueabihf/libc.so.6
sigreturn                                         c:\sysgcc\raspberry\bin\../arm-linux-gnueabihf/sysroot/lib/arm-linux-gnueabihf/libc.so.6
sigreturn@@GLIBC_2.4                              c:\sysgcc\raspberry\bin\../arm-linux-gnueabihf/sysroot/lib/arm-linux-gnueabihf/libc.so.6
sigreturn@GLIBC_2.4                               c:\sysgcc\raspberry\bin\../arm-linux-gnueabihf/sysroot/lib/arm-linux-gnueabihf/libc.so.6
sigsetmask                                        c:\sysgcc\raspberry\bin\../arm-linux-gnueabihf/sysroot/lib/arm-linux-gnueabihf/libc.so.6
sigsetmask@@GLIBC_2.4                             c:\sysgcc\raspberry\bin\../arm-linux-gnueabihf/sysroot/lib/arm-linux-gnueabihf/libc.so.6
sigsetmask@GLIBC_2.4                              c:\sysgcc\raspberry\bin\../arm-linux-gnueabihf/sysroot/lib/arm-linux-gnueabihf/libc.so.6
sigsuspend                                        c:\sysgcc\raspberry\bin\../arm-linux-gnueabihf/sysroot/lib/arm-linux-gnueabihf/libc.so.6
sigsuspend@@GLIBC_2.4                             c:\sysgcc\raspberry\bin\../arm-linux-gnueabihf/sysroot/lib/arm-linux-gnueabihf/libc.so.6
sigsuspend@GLIBC_2.4                              c:\sysgcc\raspberry\bin\../arm-linux-gnueabihf/sysroot/lib/arm-linux-gnueabihf/libc.so.6
sigtimedwait                                      c:\sysgcc\raspberry\bin\../arm-linux-gnueabihf/sysroot/lib/arm-linux-gnueabihf/libc.so.6
sigtimedwait@@GLIBC_2.4                           c:\sysgcc\raspberry\bin\../arm-linux-gnueabihf/sysroot/lib/arm-linux-gnueabihf/libc.so.6
sigtimedwait@GLIBC_2.4                            c:\sysgcc\raspberry\bin\../arm-linux-gnueabihf/sysroot/lib/arm-linux-gnueabihf/libc.so.6
sigwait                                           c:/sysgcc/raspberry/bin/../arm-linux-gnueabihf/sysroot/lib/arm-linux-gnueabihf/libpthread.so
sigwait@@GLIBC_2.4                                c:/sysgcc/raspberry/bin/../arm-linux-gnueabihf/sysroot/lib/arm-linux-gnueabihf/libpthread.so
                                                  c:\sysgcc\raspberry\bin\../arm-linux-gnueabihf/sysroot/lib/arm-linux-gnueabihf/libc.so.6
sigwait@GLIBC_2.4                                 c:/sysgcc/raspberry/bin/../arm-linux-gnueabihf/sysroot/lib/arm-linux-gnueabihf/libpthread.so
sigwaitinfo                                       c:\sysgcc\raspberry\bin\../arm-linux-gnueabihf/sysroot/lib/arm-linux-gnueabihf/libc.so.6
sigwaitinfo@@GLIBC_2.4                            c:\sysgcc\raspberry\bin\../arm-linux-gnueabihf/sysroot/lib/arm-linux-gnueabihf/libc.so.6
sigwaitinfo@GLIBC_2.4                             c:\sysgcc\raspberry\bin\../arm-linux-gnueabihf/sysroot/lib/arm-linux-gnueabihf/libc.so.6
slTemperatureSpeed                                obj/Debug/globalvardefs.o
                                                  obj/Debug/ThermoControlLibrary/PIDCalculs.o
sleep                                             c:\sysgcc\raspberry\bin\../arm-linux-gnueabihf/sysroot/lib/arm-linux-gnueabihf/libc.so.6
sleep@@GLIBC_2.4                                  c:\sysgcc\raspberry\bin\../arm-linux-gnueabihf/sysroot/lib/arm-linux-gnueabihf/libc.so.6
sleep@GLIBC_2.4                                   c:\sysgcc\raspberry\bin\../arm-linux-gnueabihf/sysroot/lib/arm-linux-gnueabihf/libc.so.6
snprintf                                          c:\sysgcc\raspberry\bin\../arm-linux-gnueabihf/sysroot/lib/arm-linux-gnueabihf/libc.so.6
                                                  obj/Debug/pigpio.o
snprintf@@GLIBC_2.4                               c:\sysgcc\raspberry\bin\../arm-linux-gnueabihf/sysroot/lib/arm-linux-gnueabihf/libc.so.6
snprintf@GLIBC_2.4                                c:\sysgcc\raspberry\bin\../arm-linux-gnueabihf/sysroot/lib/arm-linux-gnueabihf/libc.so.6
socket                                            c:\sysgcc\raspberry\bin\../arm-linux-gnueabihf/sysroot/lib/arm-linux-gnueabihf/libc.so.6
                                                  obj/Debug/pigpio.o
socket@@GLIBC_2.4                                 c:\sysgcc\raspberry\bin\../arm-linux-gnueabihf/sysroot/lib/arm-linux-gnueabihf/libc.so.6
socket@GLIBC_2.4                                  c:\sysgcc\raspberry\bin\../arm-linux-gnueabihf/sysroot/lib/arm-linux-gnueabihf/libc.so.6
socketpair                                        c:\sysgcc\raspberry\bin\../arm-linux-gnueabihf/sysroot/lib/arm-linux-gnueabihf/libc.so.6
socketpair@@GLIBC_2.4                             c:\sysgcc\raspberry\bin\../arm-linux-gnueabihf/sysroot/lib/arm-linux-gnueabihf/libc.so.6
socketpair@GLIBC_2.4                              c:\sysgcc\raspberry\bin\../arm-linux-gnueabihf/sysroot/lib/arm-linux-gnueabihf/libc.so.6
spiClose                                          obj/Debug/pigpio.o
spiOpen                                           obj/Debug/pigpio.o
spiRead                                           obj/Debug/pigpio.o
spiWrite                                          obj/Debug/pigpio.o
spiXfer                                           obj/Debug/pigpio.o
sprintf                                           c:\sysgcc\raspberry\bin\../arm-linux-gnueabihf/sysroot/lib/arm-linux-gnueabihf/libc.so.6
                                                  obj/Debug/i2c_lcd/lcd.o
                                                  obj/Debug/pigpio.o
sprintf@@GLIBC_2.4                                c:\sysgcc\raspberry\bin\../arm-linux-gnueabihf/sysroot/lib/arm-linux-gnueabihf/libc.so.6
sprintf@GLIBC_2.4                                 c:\sysgcc\raspberry\bin\../arm-linux-gnueabihf/sysroot/lib/arm-linux-gnueabihf/libc.so.6
                                                  c:/sysgcc/raspberry/bin/../arm-linux-gnueabihf/sysroot/lib/arm-linux-gnueabihf/libpthread.so
sprofil                                           c:\sysgcc\raspberry\bin\../arm-linux-gnueabihf/sysroot/lib/arm-linux-gnueabihf/libc.so.6
sprofil@@GLIBC_2.4                                c:\sysgcc\raspberry\bin\../arm-linux-gnueabihf/sysroot/lib/arm-linux-gnueabihf/libc.so.6
sprofil@GLIBC_2.4                                 c:\sysgcc\raspberry\bin\../arm-linux-gnueabihf/sysroot/lib/arm-linux-gnueabihf/libc.so.6
srand                                             c:\sysgcc\raspberry\bin\../arm-linux-gnueabihf/sysroot/lib/arm-linux-gnueabihf/libc.so.6
srand48_r                                         c:\sysgcc\raspberry\bin\../arm-linux-gnueabihf/sysroot/lib/arm-linux-gnueabihf/libc.so.6
srand48_r@@GLIBC_2.4                              c:\sysgcc\raspberry\bin\../arm-linux-gnueabihf/sysroot/lib/arm-linux-gnueabihf/libc.so.6
srand48_r@GLIBC_2.4                               c:\sysgcc\raspberry\bin\../arm-linux-gnueabihf/sysroot/lib/arm-linux-gnueabihf/libc.so.6
srand@@GLIBC_2.4                                  c:\sysgcc\raspberry\bin\../arm-linux-gnueabihf/sysroot/lib/arm-linux-gnueabihf/libc.so.6
srand@GLIBC_2.4                                   c:\sysgcc\raspberry\bin\../arm-linux-gnueabihf/sysroot/lib/arm-linux-gnueabihf/libc.so.6
srandom                                           c:\sysgcc\raspberry\bin\../arm-linux-gnueabihf/sysroot/lib/arm-linux-gnueabihf/libc.so.6
srandom@@GLIBC_2.4                                c:\sysgcc\raspberry\bin\../arm-linux-gnueabihf/sysroot/lib/arm-linux-gnueabihf/libc.so.6
srandom@GLIBC_2.4                                 c:\sysgcc\raspberry\bin\../arm-linux-gnueabihf/sysroot/lib/arm-linux-gnueabihf/libc.so.6
srandom_r                                         c:\sysgcc\raspberry\bin\../arm-linux-gnueabihf/sysroot/lib/arm-linux-gnueabihf/libc.so.6
srandom_r@@GLIBC_2.4                              c:\sysgcc\raspberry\bin\../arm-linux-gnueabihf/sysroot/lib/arm-linux-gnueabihf/libc.so.6
srandom_r@GLIBC_2.4                               c:\sysgcc\raspberry\bin\../arm-linux-gnueabihf/sysroot/lib/arm-linux-gnueabihf/libc.so.6
ssignal                                           c:\sysgcc\raspberry\bin\../arm-linux-gnueabihf/sysroot/lib/arm-linux-gnueabihf/libc.so.6
ssignal@@GLIBC_2.4                                c:\sysgcc\raspberry\bin\../arm-linux-gnueabihf/sysroot/lib/arm-linux-gnueabihf/libc.so.6
ssignal@GLIBC_2.4                                 c:\sysgcc\raspberry\bin\../arm-linux-gnueabihf/sysroot/lib/arm-linux-gnueabihf/libc.so.6
stat                                              c:\sysgcc\raspberry\bin\../arm-linux-gnueabihf/sysroot/usr/lib/arm-linux-gnueabihf/libc_nonshared.a(stat.oS)
                                                  obj/Debug/pigpio.o
statfs                                            c:\sysgcc\raspberry\bin\../arm-linux-gnueabihf/sysroot/lib/arm-linux-gnueabihf/libc.so.6
statfs64                                          c:\sysgcc\raspberry\bin\../arm-linux-gnueabihf/sysroot/lib/arm-linux-gnueabihf/libc.so.6
statfs64@@GLIBC_2.4                               c:\sysgcc\raspberry\bin\../arm-linux-gnueabihf/sysroot/lib/arm-linux-gnueabihf/libc.so.6
statfs64@GLIBC_2.4                                c:\sysgcc\raspberry\bin\../arm-linux-gnueabihf/sysroot/lib/arm-linux-gnueabihf/libc.so.6
statfs@@GLIBC_2.4                                 c:\sysgcc\raspberry\bin\../arm-linux-gnueabihf/sysroot/lib/arm-linux-gnueabihf/libc.so.6
statfs@GLIBC_2.4                                  c:\sysgcc\raspberry\bin\../arm-linux-gnueabihf/sysroot/lib/arm-linux-gnueabihf/libc.so.6
statvfs                                           c:\sysgcc\raspberry\bin\../arm-linux-gnueabihf/sysroot/lib/arm-linux-gnueabihf/libc.so.6
statvfs64                                         c:\sysgcc\raspberry\bin\../arm-linux-gnueabihf/sysroot/lib/arm-linux-gnueabihf/libc.so.6
statvfs64@@GLIBC_2.4                              c:\sysgcc\raspberry\bin\../arm-linux-gnueabihf/sysroot/lib/arm-linux-gnueabihf/libc.so.6
statvfs64@GLIBC_2.4                               c:\sysgcc\raspberry\bin\../arm-linux-gnueabihf/sysroot/lib/arm-linux-gnueabihf/libc.so.6
statvfs@@GLIBC_2.4                                c:\sysgcc\raspberry\bin\../arm-linux-gnueabihf/sysroot/lib/arm-linux-gnueabihf/libc.so.6
statvfs@GLIBC_2.4                                 c:\sysgcc\raspberry\bin\../arm-linux-gnueabihf/sysroot/lib/arm-linux-gnueabihf/libc.so.6
stderr                                            c:\sysgcc\raspberry\bin\../arm-linux-gnueabihf/sysroot/lib/arm-linux-gnueabihf/libc.so.6
                                                  obj/Debug/command.o
                                                  obj/Debug/pigpio.o
                                                  obj/Debug/bcm2835.o
                                                  obj/Debug/main.o
stderr@@GLIBC_2.4                                 c:\sysgcc\raspberry\bin\../arm-linux-gnueabihf/sysroot/lib/arm-linux-gnueabihf/libc.so.6
stderr@GLIBC_2.4                                  c:\sysgcc\raspberry\bin\../arm-linux-gnueabihf/sysroot/lib/arm-linux-gnueabihf/libc.so.6
step@GLIBC_2.4                                    c:\sysgcc\raspberry\bin\../arm-linux-gnueabihf/sysroot/lib/arm-linux-gnueabihf/libc.so.6
stpcpy                                            c:\sysgcc\raspberry\bin\../arm-linux-gnueabihf/sysroot/lib/arm-linux-gnueabihf/libc.so.6
stpcpy@@GLIBC_2.4                                 c:\sysgcc\raspberry\bin\../arm-linux-gnueabihf/sysroot/lib/arm-linux-gnueabihf/libc.so.6
stpcpy@GLIBC_2.4                                  c:\sysgcc\raspberry\bin\../arm-linux-gnueabihf/sysroot/lib/arm-linux-gnueabihf/libc.so.6
stpncpy                                           c:\sysgcc\raspberry\bin\../arm-linux-gnueabihf/sysroot/lib/arm-linux-gnueabihf/libc.so.6
stpncpy@@GLIBC_2.4                                c:\sysgcc\raspberry\bin\../arm-linux-gnueabihf/sysroot/lib/arm-linux-gnueabihf/libc.so.6
stpncpy@GLIBC_2.4                                 c:\sysgcc\raspberry\bin\../arm-linux-gnueabihf/sysroot/lib/arm-linux-gnueabihf/libc.so.6
strcasecmp                                        c:\sysgcc\raspberry\bin\../arm-linux-gnueabihf/sysroot/lib/arm-linux-gnueabihf/libc.so.6
                                                  obj/Debug/command.o
strcasecmp@@GLIBC_2.4                             c:\sysgcc\raspberry\bin\../arm-linux-gnueabihf/sysroot/lib/arm-linux-gnueabihf/libc.so.6
strcasecmp@GLIBC_2.4                              c:\sysgcc\raspberry\bin\../arm-linux-gnueabihf/sysroot/lib/arm-linux-gnueabihf/libc.so.6
strcasecmp_l                                      c:\sysgcc\raspberry\bin\../arm-linux-gnueabihf/sysroot/lib/arm-linux-gnueabihf/libc.so.6
strcasecmp_l@@GLIBC_2.4                           c:\sysgcc\raspberry\bin\../arm-linux-gnueabihf/sysroot/lib/arm-linux-gnueabihf/libc.so.6
strcasecmp_l@GLIBC_2.4                            c:\sysgcc\raspberry\bin\../arm-linux-gnueabihf/sysroot/lib/arm-linux-gnueabihf/libc.so.6
strcasestr                                        c:\sysgcc\raspberry\bin\../arm-linux-gnueabihf/sysroot/lib/arm-linux-gnueabihf/libc.so.6
strcasestr@@GLIBC_2.4                             c:\sysgcc\raspberry\bin\../arm-linux-gnueabihf/sysroot/lib/arm-linux-gnueabihf/libc.so.6
strcasestr@GLIBC_2.4                              c:\sysgcc\raspberry\bin\../arm-linux-gnueabihf/sysroot/lib/arm-linux-gnueabihf/libc.so.6
strcat                                            c:\sysgcc\raspberry\bin\../arm-linux-gnueabihf/sysroot/lib/arm-linux-gnueabihf/libc.so.6
                                                  obj/Debug/i2c_lcd/lcd.o
strcat@@GLIBC_2.4                                 c:\sysgcc\raspberry\bin\../arm-linux-gnueabihf/sysroot/lib/arm-linux-gnueabihf/libc.so.6
strcat@GLIBC_2.4                                  c:\sysgcc\raspberry\bin\../arm-linux-gnueabihf/sysroot/lib/arm-linux-gnueabihf/libc.so.6
strchr                                            c:\sysgcc\raspberry\bin\../arm-linux-gnueabihf/sysroot/lib/arm-linux-gnueabihf/libc.so.6
                                                  obj/Debug/command.o
strchr@@GLIBC_2.4                                 c:\sysgcc\raspberry\bin\../arm-linux-gnueabihf/sysroot/lib/arm-linux-gnueabihf/libc.so.6
strchr@GLIBC_2.4                                  c:\sysgcc\raspberry\bin\../arm-linux-gnueabihf/sysroot/lib/arm-linux-gnueabihf/libc.so.6
                                                  c:/sysgcc/raspberry/bin/../arm-linux-gnueabihf/sysroot/lib/arm-linux-gnueabihf/libpthread.so
strchrnul                                         c:\sysgcc\raspberry\bin\../arm-linux-gnueabihf/sysroot/lib/arm-linux-gnueabihf/libc.so.6
strchrnul@@GLIBC_2.4                              c:\sysgcc\raspberry\bin\../arm-linux-gnueabihf/sysroot/lib/arm-linux-gnueabihf/libc.so.6
strchrnul@GLIBC_2.4                               c:\sysgcc\raspberry\bin\../arm-linux-gnueabihf/sysroot/lib/arm-linux-gnueabihf/libc.so.6
strcmp                                            c:\sysgcc\raspberry\bin\../arm-linux-gnueabihf/sysroot/lib/arm-linux-gnueabihf/libc.so.6
                                                  obj/Debug/diskIO.o
                                                  obj/Debug/i2c_lcd/lcd.o
strcmp@@GLIBC_2.4                                 c:\sysgcc\raspberry\bin\../arm-linux-gnueabihf/sysroot/lib/arm-linux-gnueabihf/libc.so.6
strcmp@GLIBC_2.4                                  c:\sysgcc\raspberry\bin\../arm-linux-gnueabihf/sysroot/lib/arm-linux-gnueabihf/libc.so.6
                                                  c:/sysgcc/raspberry/bin/../arm-linux-gnueabihf/sysroot/lib/arm-linux-gnueabihf/libpthread.so
strcoll_l                                         c:\sysgcc\raspberry\bin\../arm-linux-gnueabihf/sysroot/lib/arm-linux-gnueabihf/libc.so.6
strcoll_l@@GLIBC_2.4                              c:\sysgcc\raspberry\bin\../arm-linux-gnueabihf/sysroot/lib/arm-linux-gnueabihf/libc.so.6
strcoll_l@GLIBC_2.4                               c:\sysgcc\raspberry\bin\../arm-linux-gnueabihf/sysroot/lib/arm-linux-gnueabihf/libc.so.6
strcpy                                            c:\sysgcc\raspberry\bin\../arm-linux-gnueabihf/sysroot/lib/arm-linux-gnueabihf/libc.so.6
                                                  obj/Debug/i2c_lcd/lcd.o
                                                  obj/Debug/pigpio.o
strcpy@@GLIBC_2.4                                 c:\sysgcc\raspberry\bin\../arm-linux-gnueabihf/sysroot/lib/arm-linux-gnueabihf/libc.so.6
strcpy@GLIBC_2.4                                  c:\sysgcc\raspberry\bin\../arm-linux-gnueabihf/sysroot/lib/arm-linux-gnueabihf/libc.so.6
strdup                                            c:\sysgcc\raspberry\bin\../arm-linux-gnueabihf/sysroot/lib/arm-linux-gnueabihf/libc.so.6
strdup@@GLIBC_2.4                                 c:\sysgcc\raspberry\bin\../arm-linux-gnueabihf/sysroot/lib/arm-linux-gnueabihf/libc.so.6
strdup@GLIBC_2.4                                  c:\sysgcc\raspberry\bin\../arm-linux-gnueabihf/sysroot/lib/arm-linux-gnueabihf/libc.so.6
strerror                                          c:\sysgcc\raspberry\bin\../arm-linux-gnueabihf/sysroot/lib/arm-linux-gnueabihf/libc.so.6
                                                  obj/Debug/pigpio.o
                                                  obj/Debug/bcm2835.o
strerror@@GLIBC_2.4                               c:\sysgcc\raspberry\bin\../arm-linux-gnueabihf/sysroot/lib/arm-linux-gnueabihf/libc.so.6
strerror@GLIBC_2.4                                c:\sysgcc\raspberry\bin\../arm-linux-gnueabihf/sysroot/lib/arm-linux-gnueabihf/libc.so.6
strerror_r                                        c:\sysgcc\raspberry\bin\../arm-linux-gnueabihf/sysroot/lib/arm-linux-gnueabihf/libc.so.6
strerror_r@@GLIBC_2.4                             c:\sysgcc\raspberry\bin\../arm-linux-gnueabihf/sysroot/lib/arm-linux-gnueabihf/libc.so.6
strerror_r@GLIBC_2.4                              c:\sysgcc\raspberry\bin\../arm-linux-gnueabihf/sysroot/lib/arm-linux-gnueabihf/libc.so.6
strfmon_l                                         c:\sysgcc\raspberry\bin\../arm-linux-gnueabihf/sysroot/lib/arm-linux-gnueabihf/libc.so.6
strfmon_l@@GLIBC_2.4                              c:\sysgcc\raspberry\bin\../arm-linux-gnueabihf/sysroot/lib/arm-linux-gnueabihf/libc.so.6
strfmon_l@GLIBC_2.4                               c:\sysgcc\raspberry\bin\../arm-linux-gnueabihf/sysroot/lib/arm-linux-gnueabihf/libc.so.6
strfromf32                                        c:\sysgcc\raspberry\bin\../arm-linux-gnueabihf/sysroot/lib/arm-linux-gnueabihf/libc.so.6
strfromf32@@GLIBC_2.27                            c:\sysgcc\raspberry\bin\../arm-linux-gnueabihf/sysroot/lib/arm-linux-gnueabihf/libc.so.6
strfromf32@GLIBC_2.27                             c:\sysgcc\raspberry\bin\../arm-linux-gnueabihf/sysroot/lib/arm-linux-gnueabihf/libc.so.6
strfromf32x                                       c:\sysgcc\raspberry\bin\../arm-linux-gnueabihf/sysroot/lib/arm-linux-gnueabihf/libc.so.6
strfromf32x@@GLIBC_2.27                           c:\sysgcc\raspberry\bin\../arm-linux-gnueabihf/sysroot/lib/arm-linux-gnueabihf/libc.so.6
strfromf32x@GLIBC_2.27                            c:\sysgcc\raspberry\bin\../arm-linux-gnueabihf/sysroot/lib/arm-linux-gnueabihf/libc.so.6
strfromf64                                        c:\sysgcc\raspberry\bin\../arm-linux-gnueabihf/sysroot/lib/arm-linux-gnueabihf/libc.so.6
strfromf64@@GLIBC_2.27                            c:\sysgcc\raspberry\bin\../arm-linux-gnueabihf/sysroot/lib/arm-linux-gnueabihf/libc.so.6
strfromf64@GLIBC_2.27                             c:\sysgcc\raspberry\bin\../arm-linux-gnueabihf/sysroot/lib/arm-linux-gnueabihf/libc.so.6
strftime                                          c:\sysgcc\raspberry\bin\../arm-linux-gnueabihf/sysroot/lib/arm-linux-gnueabihf/libc.so.6
                                                  obj/Debug/pigpio.o
strftime@@GLIBC_2.4                               c:\sysgcc\raspberry\bin\../arm-linux-gnueabihf/sysroot/lib/arm-linux-gnueabihf/libc.so.6
strftime@GLIBC_2.4                                c:\sysgcc\raspberry\bin\../arm-linux-gnueabihf/sysroot/lib/arm-linux-gnueabihf/libc.so.6
strftime_l                                        c:\sysgcc\raspberry\bin\../arm-linux-gnueabihf/sysroot/lib/arm-linux-gnueabihf/libc.so.6
strftime_l@@GLIBC_2.4                             c:\sysgcc\raspberry\bin\../arm-linux-gnueabihf/sysroot/lib/arm-linux-gnueabihf/libc.so.6
strftime_l@GLIBC_2.4                              c:\sysgcc\raspberry\bin\../arm-linux-gnueabihf/sysroot/lib/arm-linux-gnueabihf/libc.so.6
strlen                                            c:\sysgcc\raspberry\bin\../arm-linux-gnueabihf/sysroot/lib/arm-linux-gnueabihf/libc.so.6
                                                  obj/Debug/diskIO.o
                                                  obj/Debug/UART/uart.o
                                                  obj/Debug/i2c_lcd/lcd.o
                                                  obj/Debug/command.o
                                                  obj/Debug/pigpio.o
strlen@@GLIBC_2.4                                 c:\sysgcc\raspberry\bin\../arm-linux-gnueabihf/sysroot/lib/arm-linux-gnueabihf/libc.so.6
strlen@GLIBC_2.4                                  c:\sysgcc\raspberry\bin\../arm-linux-gnueabihf/sysroot/lib/arm-linux-gnueabihf/libc.so.6
                                                  c:/sysgcc/raspberry/bin/../arm-linux-gnueabihf/sysroot/lib/arm-linux-gnueabihf/libpthread.so
strncasecmp                                       c:\sysgcc\raspberry\bin\../arm-linux-gnueabihf/sysroot/lib/arm-linux-gnueabihf/libc.so.6
                                                  obj/Debug/pigpio.o
strncasecmp@@GLIBC_2.4                            c:\sysgcc\raspberry\bin\../arm-linux-gnueabihf/sysroot/lib/arm-linux-gnueabihf/libc.so.6
strncasecmp@GLIBC_2.4                             c:\sysgcc\raspberry\bin\../arm-linux-gnueabihf/sysroot/lib/arm-linux-gnueabihf/libc.so.6
strncasecmp_l                                     c:\sysgcc\raspberry\bin\../arm-linux-gnueabihf/sysroot/lib/arm-linux-gnueabihf/libc.so.6
strncasecmp_l@@GLIBC_2.4                          c:\sysgcc\raspberry\bin\../arm-linux-gnueabihf/sysroot/lib/arm-linux-gnueabihf/libc.so.6
strncasecmp_l@GLIBC_2.4                           c:\sysgcc\raspberry\bin\../arm-linux-gnueabihf/sysroot/lib/arm-linux-gnueabihf/libc.so.6
strncmp                                           c:\sysgcc\raspberry\bin\../arm-linux-gnueabihf/sysroot/lib/arm-linux-gnueabihf/libc.so.6
                                                  obj/Debug/pigpio.o
strncmp@@GLIBC_2.4                                c:\sysgcc\raspberry\bin\../arm-linux-gnueabihf/sysroot/lib/arm-linux-gnueabihf/libc.so.6
strncmp@GLIBC_2.4                                 c:\sysgcc\raspberry\bin\../arm-linux-gnueabihf/sysroot/lib/arm-linux-gnueabihf/libc.so.6
strndup                                           c:\sysgcc\raspberry\bin\../arm-linux-gnueabihf/sysroot/lib/arm-linux-gnueabihf/libc.so.6
strndup@@GLIBC_2.4                                c:\sysgcc\raspberry\bin\../arm-linux-gnueabihf/sysroot/lib/arm-linux-gnueabihf/libc.so.6
strndup@GLIBC_2.4                                 c:\sysgcc\raspberry\bin\../arm-linux-gnueabihf/sysroot/lib/arm-linux-gnueabihf/libc.so.6
strptime_l                                        c:\sysgcc\raspberry\bin\../arm-linux-gnueabihf/sysroot/lib/arm-linux-gnueabihf/libc.so.6
strptime_l@@GLIBC_2.4                             c:\sysgcc\raspberry\bin\../arm-linux-gnueabihf/sysroot/lib/arm-linux-gnueabihf/libc.so.6
strptime_l@GLIBC_2.4                              c:\sysgcc\raspberry\bin\../arm-linux-gnueabihf/sysroot/lib/arm-linux-gnueabihf/libc.so.6
strrchr                                           c:\sysgcc\raspberry\bin\../arm-linux-gnueabihf/sysroot/lib/arm-linux-gnueabihf/libc.so.6
                                                  obj/Debug/diskIO.o
strrchr@@GLIBC_2.4                                c:\sysgcc\raspberry\bin\../arm-linux-gnueabihf/sysroot/lib/arm-linux-gnueabihf/libc.so.6
strrchr@GLIBC_2.4                                 c:\sysgcc\raspberry\bin\../arm-linux-gnueabihf/sysroot/lib/arm-linux-gnueabihf/libc.so.6
strsep                                            c:\sysgcc\raspberry\bin\../arm-linux-gnueabihf/sysroot/lib/arm-linux-gnueabihf/libc.so.6
strsep@@GLIBC_2.4                                 c:\sysgcc\raspberry\bin\../arm-linux-gnueabihf/sysroot/lib/arm-linux-gnueabihf/libc.so.6
strsep@GLIBC_2.4                                  c:\sysgcc\raspberry\bin\../arm-linux-gnueabihf/sysroot/lib/arm-linux-gnueabihf/libc.so.6
strstr                                            c:\sysgcc\raspberry\bin\../arm-linux-gnueabihf/sysroot/lib/arm-linux-gnueabihf/libc.so.6
                                                  obj/Debug/pigpio.o
strstr@@GLIBC_2.4                                 c:\sysgcc\raspberry\bin\../arm-linux-gnueabihf/sysroot/lib/arm-linux-gnueabihf/libc.so.6
strstr@GLIBC_2.4                                  c:\sysgcc\raspberry\bin\../arm-linux-gnueabihf/sysroot/lib/arm-linux-gnueabihf/libc.so.6
strtod_l                                          c:\sysgcc\raspberry\bin\../arm-linux-gnueabihf/sysroot/lib/arm-linux-gnueabihf/libc.so.6
strtod_l@@GLIBC_2.4                               c:\sysgcc\raspberry\bin\../arm-linux-gnueabihf/sysroot/lib/arm-linux-gnueabihf/libc.so.6
strtod_l@GLIBC_2.4                                c:\sysgcc\raspberry\bin\../arm-linux-gnueabihf/sysroot/lib/arm-linux-gnueabihf/libc.so.6
strtof32                                          c:\sysgcc\raspberry\bin\../arm-linux-gnueabihf/sysroot/lib/arm-linux-gnueabihf/libc.so.6
strtof32@@GLIBC_2.27                              c:\sysgcc\raspberry\bin\../arm-linux-gnueabihf/sysroot/lib/arm-linux-gnueabihf/libc.so.6
strtof32@GLIBC_2.27                               c:\sysgcc\raspberry\bin\../arm-linux-gnueabihf/sysroot/lib/arm-linux-gnueabihf/libc.so.6
strtof32_l                                        c:\sysgcc\raspberry\bin\../arm-linux-gnueabihf/sysroot/lib/arm-linux-gnueabihf/libc.so.6
strtof32_l@@GLIBC_2.27                            c:\sysgcc\raspberry\bin\../arm-linux-gnueabihf/sysroot/lib/arm-linux-gnueabihf/libc.so.6
strtof32_l@GLIBC_2.27                             c:\sysgcc\raspberry\bin\../arm-linux-gnueabihf/sysroot/lib/arm-linux-gnueabihf/libc.so.6
strtof32x                                         c:\sysgcc\raspberry\bin\../arm-linux-gnueabihf/sysroot/lib/arm-linux-gnueabihf/libc.so.6
strtof32x@@GLIBC_2.27                             c:\sysgcc\raspberry\bin\../arm-linux-gnueabihf/sysroot/lib/arm-linux-gnueabihf/libc.so.6
strtof32x@GLIBC_2.27                              c:\sysgcc\raspberry\bin\../arm-linux-gnueabihf/sysroot/lib/arm-linux-gnueabihf/libc.so.6
strtof32x_l                                       c:\sysgcc\raspberry\bin\../arm-linux-gnueabihf/sysroot/lib/arm-linux-gnueabihf/libc.so.6
strtof32x_l@@GLIBC_2.27                           c:\sysgcc\raspberry\bin\../arm-linux-gnueabihf/sysroot/lib/arm-linux-gnueabihf/libc.so.6
strtof32x_l@GLIBC_2.27                            c:\sysgcc\raspberry\bin\../arm-linux-gnueabihf/sysroot/lib/arm-linux-gnueabihf/libc.so.6
strtof64                                          c:\sysgcc\raspberry\bin\../arm-linux-gnueabihf/sysroot/lib/arm-linux-gnueabihf/libc.so.6
strtof64@@GLIBC_2.27                              c:\sysgcc\raspberry\bin\../arm-linux-gnueabihf/sysroot/lib/arm-linux-gnueabihf/libc.so.6
strtof64@GLIBC_2.27                               c:\sysgcc\raspberry\bin\../arm-linux-gnueabihf/sysroot/lib/arm-linux-gnueabihf/libc.so.6
strtof64_l                                        c:\sysgcc\raspberry\bin\../arm-linux-gnueabihf/sysroot/lib/arm-linux-gnueabihf/libc.so.6
strtof64_l@@GLIBC_2.27                            c:\sysgcc\raspberry\bin\../arm-linux-gnueabihf/sysroot/lib/arm-linux-gnueabihf/libc.so.6
strtof64_l@GLIBC_2.27                             c:\sysgcc\raspberry\bin\../arm-linux-gnueabihf/sysroot/lib/arm-linux-gnueabihf/libc.so.6
strtof_l                                          c:\sysgcc\raspberry\bin\../arm-linux-gnueabihf/sysroot/lib/arm-linux-gnueabihf/libc.so.6
strtof_l@@GLIBC_2.4                               c:\sysgcc\raspberry\bin\../arm-linux-gnueabihf/sysroot/lib/arm-linux-gnueabihf/libc.so.6
strtof_l@GLIBC_2.4                                c:\sysgcc\raspberry\bin\../arm-linux-gnueabihf/sysroot/lib/arm-linux-gnueabihf/libc.so.6
strtok_r                                          c:\sysgcc\raspberry\bin\../arm-linux-gnueabihf/sysroot/lib/arm-linux-gnueabihf/libc.so.6
strtok_r@@GLIBC_2.4                               c:\sysgcc\raspberry\bin\../arm-linux-gnueabihf/sysroot/lib/arm-linux-gnueabihf/libc.so.6
strtok_r@GLIBC_2.4                                c:\sysgcc\raspberry\bin\../arm-linux-gnueabihf/sysroot/lib/arm-linux-gnueabihf/libc.so.6
strtol                                            c:\sysgcc\raspberry\bin\../arm-linux-gnueabihf/sysroot/lib/arm-linux-gnueabihf/libc.so.6
strtol@@GLIBC_2.4                                 c:\sysgcc\raspberry\bin\../arm-linux-gnueabihf/sysroot/lib/arm-linux-gnueabihf/libc.so.6
strtol@GLIBC_2.4                                  c:\sysgcc\raspberry\bin\../arm-linux-gnueabihf/sysroot/lib/arm-linux-gnueabihf/libc.so.6
strtol_l                                          c:\sysgcc\raspberry\bin\../arm-linux-gnueabihf/sysroot/lib/arm-linux-gnueabihf/libc.so.6
strtol_l@@GLIBC_2.4                               c:\sysgcc\raspberry\bin\../arm-linux-gnueabihf/sysroot/lib/arm-linux-gnueabihf/libc.so.6
strtol_l@GLIBC_2.4                                c:\sysgcc\raspberry\bin\../arm-linux-gnueabihf/sysroot/lib/arm-linux-gnueabihf/libc.so.6
strtold_l                                         c:\sysgcc\raspberry\bin\../arm-linux-gnueabihf/sysroot/lib/arm-linux-gnueabihf/libc.so.6
strtold_l@@GLIBC_2.4                              c:\sysgcc\raspberry\bin\../arm-linux-gnueabihf/sysroot/lib/arm-linux-gnueabihf/libc.so.6
strtold_l@GLIBC_2.4                               c:\sysgcc\raspberry\bin\../arm-linux-gnueabihf/sysroot/lib/arm-linux-gnueabihf/libc.so.6
strtoll                                           c:\sysgcc\raspberry\bin\../arm-linux-gnueabihf/sysroot/lib/arm-linux-gnueabihf/libc.so.6
strtoll@@GLIBC_2.4                                c:\sysgcc\raspberry\bin\../arm-linux-gnueabihf/sysroot/lib/arm-linux-gnueabihf/libc.so.6
strtoll@GLIBC_2.4                                 c:\sysgcc\raspberry\bin\../arm-linux-gnueabihf/sysroot/lib/arm-linux-gnueabihf/libc.so.6
strtoll_l                                         c:\sysgcc\raspberry\bin\../arm-linux-gnueabihf/sysroot/lib/arm-linux-gnueabihf/libc.so.6
strtoll_l@@GLIBC_2.4                              c:\sysgcc\raspberry\bin\../arm-linux-gnueabihf/sysroot/lib/arm-linux-gnueabihf/libc.so.6
strtoll_l@GLIBC_2.4                               c:\sysgcc\raspberry\bin\../arm-linux-gnueabihf/sysroot/lib/arm-linux-gnueabihf/libc.so.6
strtoq                                            c:\sysgcc\raspberry\bin\../arm-linux-gnueabihf/sysroot/lib/arm-linux-gnueabihf/libc.so.6
strtoq@@GLIBC_2.4                                 c:\sysgcc\raspberry\bin\../arm-linux-gnueabihf/sysroot/lib/arm-linux-gnueabihf/libc.so.6
strtoq@GLIBC_2.4                                  c:\sysgcc\raspberry\bin\../arm-linux-gnueabihf/sysroot/lib/arm-linux-gnueabihf/libc.so.6
strtoul                                           c:\sysgcc\raspberry\bin\../arm-linux-gnueabihf/sysroot/lib/arm-linux-gnueabihf/libc.so.6
strtoul@@GLIBC_2.4                                c:\sysgcc\raspberry\bin\../arm-linux-gnueabihf/sysroot/lib/arm-linux-gnueabihf/libc.so.6
strtoul@GLIBC_2.4                                 c:\sysgcc\raspberry\bin\../arm-linux-gnueabihf/sysroot/lib/arm-linux-gnueabihf/libc.so.6
strtoul_l                                         c:\sysgcc\raspberry\bin\../arm-linux-gnueabihf/sysroot/lib/arm-linux-gnueabihf/libc.so.6
strtoul_l@@GLIBC_2.4                              c:\sysgcc\raspberry\bin\../arm-linux-gnueabihf/sysroot/lib/arm-linux-gnueabihf/libc.so.6
strtoul_l@GLIBC_2.4                               c:\sysgcc\raspberry\bin\../arm-linux-gnueabihf/sysroot/lib/arm-linux-gnueabihf/libc.so.6
strtoull                                          c:\sysgcc\raspberry\bin\../arm-linux-gnueabihf/sysroot/lib/arm-linux-gnueabihf/libc.so.6
strtoull@@GLIBC_2.4                               c:\sysgcc\raspberry\bin\../arm-linux-gnueabihf/sysroot/lib/arm-linux-gnueabihf/libc.so.6
strtoull@GLIBC_2.4                                c:\sysgcc\raspberry\bin\../arm-linux-gnueabihf/sysroot/lib/arm-linux-gnueabihf/libc.so.6
strtoull_l                                        c:\sysgcc\raspberry\bin\../arm-linux-gnueabihf/sysroot/lib/arm-linux-gnueabihf/libc.so.6
strtoull_l@@GLIBC_2.4                             c:\sysgcc\raspberry\bin\../arm-linux-gnueabihf/sysroot/lib/arm-linux-gnueabihf/libc.so.6
strtoull_l@GLIBC_2.4                              c:\sysgcc\raspberry\bin\../arm-linux-gnueabihf/sysroot/lib/arm-linux-gnueabihf/libc.so.6
strtouq                                           c:\sysgcc\raspberry\bin\../arm-linux-gnueabihf/sysroot/lib/arm-linux-gnueabihf/libc.so.6
strtouq@@GLIBC_2.4                                c:\sysgcc\raspberry\bin\../arm-linux-gnueabihf/sysroot/lib/arm-linux-gnueabihf/libc.so.6
strtouq@GLIBC_2.4                                 c:\sysgcc\raspberry\bin\../arm-linux-gnueabihf/sysroot/lib/arm-linux-gnueabihf/libc.so.6
strverscmp                                        c:\sysgcc\raspberry\bin\../arm-linux-gnueabihf/sysroot/lib/arm-linux-gnueabihf/libc.so.6
strverscmp@@GLIBC_2.4                             c:\sysgcc\raspberry\bin\../arm-linux-gnueabihf/sysroot/lib/arm-linux-gnueabihf/libc.so.6
strverscmp@GLIBC_2.4                              c:\sysgcc\raspberry\bin\../arm-linux-gnueabihf/sysroot/lib/arm-linux-gnueabihf/libc.so.6
strxfrm_l                                         c:\sysgcc\raspberry\bin\../arm-linux-gnueabihf/sysroot/lib/arm-linux-gnueabihf/libc.so.6
strxfrm_l@@GLIBC_2.4                              c:\sysgcc\raspberry\bin\../arm-linux-gnueabihf/sysroot/lib/arm-linux-gnueabihf/libc.so.6
strxfrm_l@GLIBC_2.4                               c:\sysgcc\raspberry\bin\../arm-linux-gnueabihf/sysroot/lib/arm-linux-gnueabihf/libc.so.6
swapoff                                           c:\sysgcc\raspberry\bin\../arm-linux-gnueabihf/sysroot/lib/arm-linux-gnueabihf/libc.so.6
swapoff@@GLIBC_2.4                                c:\sysgcc\raspberry\bin\../arm-linux-gnueabihf/sysroot/lib/arm-linux-gnueabihf/libc.so.6
swapoff@GLIBC_2.4                                 c:\sysgcc\raspberry\bin\../arm-linux-gnueabihf/sysroot/lib/arm-linux-gnueabihf/libc.so.6
swapon                                            c:\sysgcc\raspberry\bin\../arm-linux-gnueabihf/sysroot/lib/arm-linux-gnueabihf/libc.so.6
swapon@@GLIBC_2.4                                 c:\sysgcc\raspberry\bin\../arm-linux-gnueabihf/sysroot/lib/arm-linux-gnueabihf/libc.so.6
swapon@GLIBC_2.4                                  c:\sysgcc\raspberry\bin\../arm-linux-gnueabihf/sysroot/lib/arm-linux-gnueabihf/libc.so.6
symlink                                           c:\sysgcc\raspberry\bin\../arm-linux-gnueabihf/sysroot/lib/arm-linux-gnueabihf/libc.so.6
symlink@@GLIBC_2.4                                c:\sysgcc\raspberry\bin\../arm-linux-gnueabihf/sysroot/lib/arm-linux-gnueabihf/libc.so.6
symlink@GLIBC_2.4                                 c:\sysgcc\raspberry\bin\../arm-linux-gnueabihf/sysroot/lib/arm-linux-gnueabihf/libc.so.6
sysconf                                           c:\sysgcc\raspberry\bin\../arm-linux-gnueabihf/sysroot/lib/arm-linux-gnueabihf/libc.so.6
sysconf@@GLIBC_2.4                                c:\sysgcc\raspberry\bin\../arm-linux-gnueabihf/sysroot/lib/arm-linux-gnueabihf/libc.so.6
sysconf@GLIBC_2.4                                 c:\sysgcc\raspberry\bin\../arm-linux-gnueabihf/sysroot/lib/arm-linux-gnueabihf/libc.so.6
sysctl                                            c:\sysgcc\raspberry\bin\../arm-linux-gnueabihf/sysroot/lib/arm-linux-gnueabihf/libc.so.6
sysctl@@GLIBC_2.4                                 c:\sysgcc\raspberry\bin\../arm-linux-gnueabihf/sysroot/lib/arm-linux-gnueabihf/libc.so.6
sysctl@GLIBC_2.4                                  c:\sysgcc\raspberry\bin\../arm-linux-gnueabihf/sysroot/lib/arm-linux-gnueabihf/libc.so.6
sysinfo                                           c:\sysgcc\raspberry\bin\../arm-linux-gnueabihf/sysroot/lib/arm-linux-gnueabihf/libc.so.6
sysinfo@@GLIBC_2.4                                c:\sysgcc\raspberry\bin\../arm-linux-gnueabihf/sysroot/lib/arm-linux-gnueabihf/libc.so.6
sysinfo@GLIBC_2.4                                 c:\sysgcc\raspberry\bin\../arm-linux-gnueabihf/sysroot/lib/arm-linux-gnueabihf/libc.so.6
system                                            c:\sysgcc\raspberry\bin\../arm-linux-gnueabihf/sysroot/lib/arm-linux-gnueabihf/libc.so.6
                                                  obj/Debug/pigpio.o
system@@GLIBC_2.4                                 c:\sysgcc\raspberry\bin\../arm-linux-gnueabihf/sysroot/lib/arm-linux-gnueabihf/libc.so.6
sysv_signal                                       c:\sysgcc\raspberry\bin\../arm-linux-gnueabihf/sysroot/lib/arm-linux-gnueabihf/libc.so.6
sysv_signal@@GLIBC_2.4                            c:\sysgcc\raspberry\bin\../arm-linux-gnueabihf/sysroot/lib/arm-linux-gnueabihf/libc.so.6
sysv_signal@GLIBC_2.4                             c:\sysgcc\raspberry\bin\../arm-linux-gnueabihf/sysroot/lib/arm-linux-gnueabihf/libc.so.6
tcdrain                                           c:/sysgcc/raspberry/bin/../arm-linux-gnueabihf/sysroot/lib/arm-linux-gnueabihf/libpthread.so
tcdrain@@GLIBC_2.4                                c:/sysgcc/raspberry/bin/../arm-linux-gnueabihf/sysroot/lib/arm-linux-gnueabihf/libpthread.so
                                                  c:\sysgcc\raspberry\bin\../arm-linux-gnueabihf/sysroot/lib/arm-linux-gnueabihf/libc.so.6
tcdrain@GLIBC_2.4                                 c:/sysgcc/raspberry/bin/../arm-linux-gnueabihf/sysroot/lib/arm-linux-gnueabihf/libpthread.so
tcflush                                           c:\sysgcc\raspberry\bin\../arm-linux-gnueabihf/sysroot/lib/arm-linux-gnueabihf/libc.so.6
                                                  obj/Debug/pigpio.o
tcflush@@GLIBC_2.4                                c:\sysgcc\raspberry\bin\../arm-linux-gnueabihf/sysroot/lib/arm-linux-gnueabihf/libc.so.6
tcflush@GLIBC_2.4                                 c:\sysgcc\raspberry\bin\../arm-linux-gnueabihf/sysroot/lib/arm-linux-gnueabihf/libc.so.6
tcgetattr                                         c:\sysgcc\raspberry\bin\../arm-linux-gnueabihf/sysroot/lib/arm-linux-gnueabihf/libc.so.6
                                                  obj/Debug/UART/uart.o
                                                  obj/Debug/pigpio.o
tcgetattr@@GLIBC_2.4                              c:\sysgcc\raspberry\bin\../arm-linux-gnueabihf/sysroot/lib/arm-linux-gnueabihf/libc.so.6
tcgetattr@GLIBC_2.4                               c:\sysgcc\raspberry\bin\../arm-linux-gnueabihf/sysroot/lib/arm-linux-gnueabihf/libc.so.6
tcsetattr                                         c:\sysgcc\raspberry\bin\../arm-linux-gnueabihf/sysroot/lib/arm-linux-gnueabihf/libc.so.6
                                                  obj/Debug/UART/uart.o
                                                  obj/Debug/pigpio.o
tcsetattr@@GLIBC_2.4                              c:\sysgcc\raspberry\bin\../arm-linux-gnueabihf/sysroot/lib/arm-linux-gnueabihf/libc.so.6
tcsetattr@GLIBC_2.4                               c:\sysgcc\raspberry\bin\../arm-linux-gnueabihf/sysroot/lib/arm-linux-gnueabihf/libc.so.6
tdelete                                           c:\sysgcc\raspberry\bin\../arm-linux-gnueabihf/sysroot/lib/arm-linux-gnueabihf/libc.so.6
tdelete@@GLIBC_2.4                                c:\sysgcc\raspberry\bin\../arm-linux-gnueabihf/sysroot/lib/arm-linux-gnueabihf/libc.so.6
tdelete@GLIBC_2.4                                 c:\sysgcc\raspberry\bin\../arm-linux-gnueabihf/sysroot/lib/arm-linux-gnueabihf/libc.so.6
tdestroy                                          c:\sysgcc\raspberry\bin\../arm-linux-gnueabihf/sysroot/lib/arm-linux-gnueabihf/libc.so.6
tdestroy@@GLIBC_2.4                               c:\sysgcc\raspberry\bin\../arm-linux-gnueabihf/sysroot/lib/arm-linux-gnueabihf/libc.so.6
tdestroy@GLIBC_2.4                                c:\sysgcc\raspberry\bin\../arm-linux-gnueabihf/sysroot/lib/arm-linux-gnueabihf/libc.so.6
textdomain                                        c:\sysgcc\raspberry\bin\../arm-linux-gnueabihf/sysroot/lib/arm-linux-gnueabihf/libc.so.6
textdomain@@GLIBC_2.4                             c:\sysgcc\raspberry\bin\../arm-linux-gnueabihf/sysroot/lib/arm-linux-gnueabihf/libc.so.6
textdomain@GLIBC_2.4                              c:\sysgcc\raspberry\bin\../arm-linux-gnueabihf/sysroot/lib/arm-linux-gnueabihf/libc.so.6
tfind                                             c:\sysgcc\raspberry\bin\../arm-linux-gnueabihf/sysroot/lib/arm-linux-gnueabihf/libc.so.6
tfind@@GLIBC_2.4                                  c:\sysgcc\raspberry\bin\../arm-linux-gnueabihf/sysroot/lib/arm-linux-gnueabihf/libc.so.6
tfind@GLIBC_2.4                                   c:\sysgcc\raspberry\bin\../arm-linux-gnueabihf/sysroot/lib/arm-linux-gnueabihf/libc.so.6
tgkill                                            c:\sysgcc\raspberry\bin\../arm-linux-gnueabihf/sysroot/lib/arm-linux-gnueabihf/libc.so.6
tgkill@@GLIBC_2.30                                c:\sysgcc\raspberry\bin\../arm-linux-gnueabihf/sysroot/lib/arm-linux-gnueabihf/libc.so.6
tgkill@GLIBC_2.30                                 c:\sysgcc\raspberry\bin\../arm-linux-gnueabihf/sysroot/lib/arm-linux-gnueabihf/libc.so.6
time_sleep                                        obj/Debug/pigpio.o
time_time                                         obj/Debug/pigpio.o
timelocal                                         c:\sysgcc\raspberry\bin\../arm-linux-gnueabihf/sysroot/lib/arm-linux-gnueabihf/libc.so.6
timelocal@@GLIBC_2.4                              c:\sysgcc\raspberry\bin\../arm-linux-gnueabihf/sysroot/lib/arm-linux-gnueabihf/libc.so.6
timelocal@GLIBC_2.4                               c:\sysgcc\raspberry\bin\../arm-linux-gnueabihf/sysroot/lib/arm-linux-gnueabihf/libc.so.6
times                                             c:\sysgcc\raspberry\bin\../arm-linux-gnueabihf/sysroot/lib/arm-linux-gnueabihf/libc.so.6
times@@GLIBC_2.4                                  c:\sysgcc\raspberry\bin\../arm-linux-gnueabihf/sysroot/lib/arm-linux-gnueabihf/libc.so.6
times@GLIBC_2.4                                   c:\sysgcc\raspberry\bin\../arm-linux-gnueabihf/sysroot/lib/arm-linux-gnueabihf/libc.so.6
timezone                                          c:\sysgcc\raspberry\bin\../arm-linux-gnueabihf/sysroot/lib/arm-linux-gnueabihf/libc.so.6
timezone@@GLIBC_2.4                               c:\sysgcc\raspberry\bin\../arm-linux-gnueabihf/sysroot/lib/arm-linux-gnueabihf/libc.so.6
timezone@GLIBC_2.4                                c:\sysgcc\raspberry\bin\../arm-linux-gnueabihf/sysroot/lib/arm-linux-gnueabihf/libc.so.6
tolower_l                                         c:\sysgcc\raspberry\bin\../arm-linux-gnueabihf/sysroot/lib/arm-linux-gnueabihf/libc.so.6
tolower_l@@GLIBC_2.4                              c:\sysgcc\raspberry\bin\../arm-linux-gnueabihf/sysroot/lib/arm-linux-gnueabihf/libc.so.6
tolower_l@GLIBC_2.4                               c:\sysgcc\raspberry\bin\../arm-linux-gnueabihf/sysroot/lib/arm-linux-gnueabihf/libc.so.6
toupper                                           c:\sysgcc\raspberry\bin\../arm-linux-gnueabihf/sysroot/lib/arm-linux-gnueabihf/libc.so.6
                                                  obj/Debug/command.o
                                                  obj/Debug/pigpio.o
toupper@@GLIBC_2.4                                c:\sysgcc\raspberry\bin\../arm-linux-gnueabihf/sysroot/lib/arm-linux-gnueabihf/libc.so.6
toupper@GLIBC_2.4                                 c:\sysgcc\raspberry\bin\../arm-linux-gnueabihf/sysroot/lib/arm-linux-gnueabihf/libc.so.6
toupper_l                                         c:\sysgcc\raspberry\bin\../arm-linux-gnueabihf/sysroot/lib/arm-linux-gnueabihf/libc.so.6
toupper_l@@GLIBC_2.4                              c:\sysgcc\raspberry\bin\../arm-linux-gnueabihf/sysroot/lib/arm-linux-gnueabihf/libc.so.6
toupper_l@GLIBC_2.4                               c:\sysgcc\raspberry\bin\../arm-linux-gnueabihf/sysroot/lib/arm-linux-gnueabihf/libc.so.6
towctrans                                         c:\sysgcc\raspberry\bin\../arm-linux-gnueabihf/sysroot/lib/arm-linux-gnueabihf/libc.so.6
towctrans@@GLIBC_2.4                              c:\sysgcc\raspberry\bin\../arm-linux-gnueabihf/sysroot/lib/arm-linux-gnueabihf/libc.so.6
towctrans@GLIBC_2.4                               c:\sysgcc\raspberry\bin\../arm-linux-gnueabihf/sysroot/lib/arm-linux-gnueabihf/libc.so.6
towctrans_l                                       c:\sysgcc\raspberry\bin\../arm-linux-gnueabihf/sysroot/lib/arm-linux-gnueabihf/libc.so.6
towctrans_l@@GLIBC_2.4                            c:\sysgcc\raspberry\bin\../arm-linux-gnueabihf/sysroot/lib/arm-linux-gnueabihf/libc.so.6
towctrans_l@GLIBC_2.4                             c:\sysgcc\raspberry\bin\../arm-linux-gnueabihf/sysroot/lib/arm-linux-gnueabihf/libc.so.6
towlower                                          c:\sysgcc\raspberry\bin\../arm-linux-gnueabihf/sysroot/lib/arm-linux-gnueabihf/libc.so.6
towlower@@GLIBC_2.4                               c:\sysgcc\raspberry\bin\../arm-linux-gnueabihf/sysroot/lib/arm-linux-gnueabihf/libc.so.6
towlower@GLIBC_2.4                                c:\sysgcc\raspberry\bin\../arm-linux-gnueabihf/sysroot/lib/arm-linux-gnueabihf/libc.so.6
towlower_l                                        c:\sysgcc\raspberry\bin\../arm-linux-gnueabihf/sysroot/lib/arm-linux-gnueabihf/libc.so.6
towlower_l@@GLIBC_2.4                             c:\sysgcc\raspberry\bin\../arm-linux-gnueabihf/sysroot/lib/arm-linux-gnueabihf/libc.so.6
towlower_l@GLIBC_2.4                              c:\sysgcc\raspberry\bin\../arm-linux-gnueabihf/sysroot/lib/arm-linux-gnueabihf/libc.so.6
towupper                                          c:\sysgcc\raspberry\bin\../arm-linux-gnueabihf/sysroot/lib/arm-linux-gnueabihf/libc.so.6
towupper@@GLIBC_2.4                               c:\sysgcc\raspberry\bin\../arm-linux-gnueabihf/sysroot/lib/arm-linux-gnueabihf/libc.so.6
towupper@GLIBC_2.4                                c:\sysgcc\raspberry\bin\../arm-linux-gnueabihf/sysroot/lib/arm-linux-gnueabihf/libc.so.6
towupper_l                                        c:\sysgcc\raspberry\bin\../arm-linux-gnueabihf/sysroot/lib/arm-linux-gnueabihf/libc.so.6
towupper_l@@GLIBC_2.4                             c:\sysgcc\raspberry\bin\../arm-linux-gnueabihf/sysroot/lib/arm-linux-gnueabihf/libc.so.6
towupper_l@GLIBC_2.4                              c:\sysgcc\raspberry\bin\../arm-linux-gnueabihf/sysroot/lib/arm-linux-gnueabihf/libc.so.6
transferAndWait                                   obj/Debug/Executive/modulSPI.o
transferMsG                                       obj/Debug/Executive/modulSPI.o
truncate                                          c:\sysgcc\raspberry\bin\../arm-linux-gnueabihf/sysroot/lib/arm-linux-gnueabihf/libc.so.6
truncate64                                        c:\sysgcc\raspberry\bin\../arm-linux-gnueabihf/sysroot/lib/arm-linux-gnueabihf/libc.so.6
truncate64@@GLIBC_2.4                             c:\sysgcc\raspberry\bin\../arm-linux-gnueabihf/sysroot/lib/arm-linux-gnueabihf/libc.so.6
truncate64@GLIBC_2.4                              c:\sysgcc\raspberry\bin\../arm-linux-gnueabihf/sysroot/lib/arm-linux-gnueabihf/libc.so.6
truncate@@GLIBC_2.4                               c:\sysgcc\raspberry\bin\../arm-linux-gnueabihf/sysroot/lib/arm-linux-gnueabihf/libc.so.6
truncate@GLIBC_2.4                                c:\sysgcc\raspberry\bin\../arm-linux-gnueabihf/sysroot/lib/arm-linux-gnueabihf/libc.so.6
tsearch                                           c:\sysgcc\raspberry\bin\../arm-linux-gnueabihf/sysroot/lib/arm-linux-gnueabihf/libc.so.6
tsearch@@GLIBC_2.4                                c:\sysgcc\raspberry\bin\../arm-linux-gnueabihf/sysroot/lib/arm-linux-gnueabihf/libc.so.6
tsearch@GLIBC_2.4                                 c:\sysgcc\raspberry\bin\../arm-linux-gnueabihf/sysroot/lib/arm-linux-gnueabihf/libc.so.6
ttyname_r                                         c:\sysgcc\raspberry\bin\../arm-linux-gnueabihf/sysroot/lib/arm-linux-gnueabihf/libc.so.6
ttyname_r@@GLIBC_2.4                              c:\sysgcc\raspberry\bin\../arm-linux-gnueabihf/sysroot/lib/arm-linux-gnueabihf/libc.so.6
ttyname_r@GLIBC_2.4                               c:\sysgcc\raspberry\bin\../arm-linux-gnueabihf/sysroot/lib/arm-linux-gnueabihf/libc.so.6
twalk                                             c:\sysgcc\raspberry\bin\../arm-linux-gnueabihf/sysroot/lib/arm-linux-gnueabihf/libc.so.6
twalk@@GLIBC_2.4                                  c:\sysgcc\raspberry\bin\../arm-linux-gnueabihf/sysroot/lib/arm-linux-gnueabihf/libc.so.6
twalk@GLIBC_2.4                                   c:\sysgcc\raspberry\bin\../arm-linux-gnueabihf/sysroot/lib/arm-linux-gnueabihf/libc.so.6
twalk_r                                           c:\sysgcc\raspberry\bin\../arm-linux-gnueabihf/sysroot/lib/arm-linux-gnueabihf/libc.so.6
twalk_r@@GLIBC_2.30                               c:\sysgcc\raspberry\bin\../arm-linux-gnueabihf/sysroot/lib/arm-linux-gnueabihf/libc.so.6
twalk_r@GLIBC_2.30                                c:\sysgcc\raspberry\bin\../arm-linux-gnueabihf/sysroot/lib/arm-linux-gnueabihf/libc.so.6
tzname                                            c:\sysgcc\raspberry\bin\../arm-linux-gnueabihf/sysroot/lib/arm-linux-gnueabihf/libc.so.6
tzname@@GLIBC_2.4                                 c:\sysgcc\raspberry\bin\../arm-linux-gnueabihf/sysroot/lib/arm-linux-gnueabihf/libc.so.6
tzname@GLIBC_2.4                                  c:\sysgcc\raspberry\bin\../arm-linux-gnueabihf/sysroot/lib/arm-linux-gnueabihf/libc.so.6
tzset                                             c:\sysgcc\raspberry\bin\../arm-linux-gnueabihf/sysroot/lib/arm-linux-gnueabihf/libc.so.6
tzset@@GLIBC_2.4                                  c:\sysgcc\raspberry\bin\../arm-linux-gnueabihf/sysroot/lib/arm-linux-gnueabihf/libc.so.6
tzset@GLIBC_2.4                                   c:\sysgcc\raspberry\bin\../arm-linux-gnueabihf/sysroot/lib/arm-linux-gnueabihf/libc.so.6
uart_addBuffer                                    obj/Debug/UART/uart.o
uart_close                                        obj/Debug/UART/uart.o
uart_data_receive                                 obj/Debug/UART/uart.o
                                                  obj/Debug/main.o
uart_init                                         obj/Debug/UART/uart.o
                                                  obj/Debug/main.o
uart_read                                         obj/Debug/UART/uart.o
                                                  obj/Debug/main.o
uart_send                                         obj/Debug/UART/uart.o
                                                  obj/Debug/main.o
uart_send_responce                                obj/Debug/UART/uart.o
ulckpwdf                                          c:\sysgcc\raspberry\bin\../arm-linux-gnueabihf/sysroot/lib/arm-linux-gnueabihf/libc.so.6
ulckpwdf@@GLIBC_2.4                               c:\sysgcc\raspberry\bin\../arm-linux-gnueabihf/sysroot/lib/arm-linux-gnueabihf/libc.so.6
ulckpwdf@GLIBC_2.4                                c:\sysgcc\raspberry\bin\../arm-linux-gnueabihf/sysroot/lib/arm-linux-gnueabihf/libc.so.6
ulimit                                            c:\sysgcc\raspberry\bin\../arm-linux-gnueabihf/sysroot/lib/arm-linux-gnueabihf/libc.so.6
ulimit@@GLIBC_2.4                                 c:\sysgcc\raspberry\bin\../arm-linux-gnueabihf/sysroot/lib/arm-linux-gnueabihf/libc.so.6
ulimit@GLIBC_2.4                                  c:\sysgcc\raspberry\bin\../arm-linux-gnueabihf/sysroot/lib/arm-linux-gnueabihf/libc.so.6
umask                                             c:\sysgcc\raspberry\bin\../arm-linux-gnueabihf/sysroot/lib/arm-linux-gnueabihf/libc.so.6
umask@@GLIBC_2.4                                  c:\sysgcc\raspberry\bin\../arm-linux-gnueabihf/sysroot/lib/arm-linux-gnueabihf/libc.so.6
umask@GLIBC_2.4                                   c:\sysgcc\raspberry\bin\../arm-linux-gnueabihf/sysroot/lib/arm-linux-gnueabihf/libc.so.6
umount                                            c:\sysgcc\raspberry\bin\../arm-linux-gnueabihf/sysroot/lib/arm-linux-gnueabihf/libc.so.6
umount2                                           c:\sysgcc\raspberry\bin\../arm-linux-gnueabihf/sysroot/lib/arm-linux-gnueabihf/libc.so.6
umount2@@GLIBC_2.4                                c:\sysgcc\raspberry\bin\../arm-linux-gnueabihf/sysroot/lib/arm-linux-gnueabihf/libc.so.6
umount2@GLIBC_2.4                                 c:\sysgcc\raspberry\bin\../arm-linux-gnueabihf/sysroot/lib/arm-linux-gnueabihf/libc.so.6
umount@@GLIBC_2.4                                 c:\sysgcc\raspberry\bin\../arm-linux-gnueabihf/sysroot/lib/arm-linux-gnueabihf/libc.so.6
umount@GLIBC_2.4                                  c:\sysgcc\raspberry\bin\../arm-linux-gnueabihf/sysroot/lib/arm-linux-gnueabihf/libc.so.6
uname                                             c:\sysgcc\raspberry\bin\../arm-linux-gnueabihf/sysroot/lib/arm-linux-gnueabihf/libc.so.6
uname@@GLIBC_2.4                                  c:\sysgcc\raspberry\bin\../arm-linux-gnueabihf/sysroot/lib/arm-linux-gnueabihf/libc.so.6
uname@GLIBC_2.4                                   c:\sysgcc\raspberry\bin\../arm-linux-gnueabihf/sysroot/lib/arm-linux-gnueabihf/libc.so.6
ungetc                                            c:\sysgcc\raspberry\bin\../arm-linux-gnueabihf/sysroot/lib/arm-linux-gnueabihf/libc.so.6
ungetc@@GLIBC_2.4                                 c:\sysgcc\raspberry\bin\../arm-linux-gnueabihf/sysroot/lib/arm-linux-gnueabihf/libc.so.6
ungetc@GLIBC_2.4                                  c:\sysgcc\raspberry\bin\../arm-linux-gnueabihf/sysroot/lib/arm-linux-gnueabihf/libc.so.6
unlink                                            c:\sysgcc\raspberry\bin\../arm-linux-gnueabihf/sysroot/lib/arm-linux-gnueabihf/libc.so.6
                                                  obj/Debug/pigpio.o
unlink@@GLIBC_2.4                                 c:\sysgcc\raspberry\bin\../arm-linux-gnueabihf/sysroot/lib/arm-linux-gnueabihf/libc.so.6
unlink@GLIBC_2.4                                  c:\sysgcc\raspberry\bin\../arm-linux-gnueabihf/sysroot/lib/arm-linux-gnueabihf/libc.so.6
                                                  c:/sysgcc/raspberry/bin/../arm-linux-gnueabihf/sysroot/lib/arm-linux-gnueabihf/libpthread.so
unsetenv                                          c:\sysgcc\raspberry\bin\../arm-linux-gnueabihf/sysroot/lib/arm-linux-gnueabihf/libc.so.6
unsetenv@@GLIBC_2.4                               c:\sysgcc\raspberry\bin\../arm-linux-gnueabihf/sysroot/lib/arm-linux-gnueabihf/libc.so.6
unsetenv@GLIBC_2.4                                c:\sysgcc\raspberry\bin\../arm-linux-gnueabihf/sysroot/lib/arm-linux-gnueabihf/libc.so.6
updateCurrentVoltages                             obj/Debug/ADC/ADC_Unit.o
                                                  obj/Debug/main.o
updwtmp                                           c:\sysgcc\raspberry\bin\../arm-linux-gnueabihf/sysroot/lib/arm-linux-gnueabihf/libc.so.6
updwtmp@@GLIBC_2.4                                c:\sysgcc\raspberry\bin\../arm-linux-gnueabihf/sysroot/lib/arm-linux-gnueabihf/libc.so.6
updwtmp@GLIBC_2.4                                 c:\sysgcc\raspberry\bin\../arm-linux-gnueabihf/sysroot/lib/arm-linux-gnueabihf/libc.so.6
uselocale                                         c:\sysgcc\raspberry\bin\../arm-linux-gnueabihf/sysroot/lib/arm-linux-gnueabihf/libc.so.6
uselocale@@GLIBC_2.4                              c:\sysgcc\raspberry\bin\../arm-linux-gnueabihf/sysroot/lib/arm-linux-gnueabihf/libc.so.6
uselocale@GLIBC_2.4                               c:\sysgcc\raspberry\bin\../arm-linux-gnueabihf/sysroot/lib/arm-linux-gnueabihf/libc.so.6
usleep                                            c:\sysgcc\raspberry\bin\../arm-linux-gnueabihf/sysroot/lib/arm-linux-gnueabihf/libc.so.6
                                                  obj/Debug/pigpio.o
usleep@@GLIBC_2.4                                 c:\sysgcc\raspberry\bin\../arm-linux-gnueabihf/sysroot/lib/arm-linux-gnueabihf/libc.so.6
usleep@GLIBC_2.4                                  c:\sysgcc\raspberry\bin\../arm-linux-gnueabihf/sysroot/lib/arm-linux-gnueabihf/libc.so.6
utimensat                                         c:\sysgcc\raspberry\bin\../arm-linux-gnueabihf/sysroot/lib/arm-linux-gnueabihf/libc.so.6
utimensat@@GLIBC_2.6                              c:\sysgcc\raspberry\bin\../arm-linux-gnueabihf/sysroot/lib/arm-linux-gnueabihf/libc.so.6
utimensat@GLIBC_2.6                               c:\sysgcc\raspberry\bin\../arm-linux-gnueabihf/sysroot/lib/arm-linux-gnueabihf/libc.so.6
utimes                                            c:\sysgcc\raspberry\bin\../arm-linux-gnueabihf/sysroot/lib/arm-linux-gnueabihf/libc.so.6
utimes@@GLIBC_2.4                                 c:\sysgcc\raspberry\bin\../arm-linux-gnueabihf/sysroot/lib/arm-linux-gnueabihf/libc.so.6
utimes@GLIBC_2.4                                  c:\sysgcc\raspberry\bin\../arm-linux-gnueabihf/sysroot/lib/arm-linux-gnueabihf/libc.so.6
utmpname                                          c:\sysgcc\raspberry\bin\../arm-linux-gnueabihf/sysroot/lib/arm-linux-gnueabihf/libc.so.6
utmpname@@GLIBC_2.4                               c:\sysgcc\raspberry\bin\../arm-linux-gnueabihf/sysroot/lib/arm-linux-gnueabihf/libc.so.6
utmpname@GLIBC_2.4                                c:\sysgcc\raspberry\bin\../arm-linux-gnueabihf/sysroot/lib/arm-linux-gnueabihf/libc.so.6
valloc                                            c:\sysgcc\raspberry\bin\../arm-linux-gnueabihf/sysroot/lib/arm-linux-gnueabihf/libc.so.6
valloc@@GLIBC_2.4                                 c:\sysgcc\raspberry\bin\../arm-linux-gnueabihf/sysroot/lib/arm-linux-gnueabihf/libc.so.6
valloc@GLIBC_2.4                                  c:\sysgcc\raspberry\bin\../arm-linux-gnueabihf/sysroot/lib/arm-linux-gnueabihf/libc.so.6
vasprintf                                         c:\sysgcc\raspberry\bin\../arm-linux-gnueabihf/sysroot/lib/arm-linux-gnueabihf/libc.so.6
vasprintf@@GLIBC_2.4                              c:\sysgcc\raspberry\bin\../arm-linux-gnueabihf/sysroot/lib/arm-linux-gnueabihf/libc.so.6
vasprintf@GLIBC_2.4                               c:\sysgcc\raspberry\bin\../arm-linux-gnueabihf/sysroot/lib/arm-linux-gnueabihf/libc.so.6
vdprintf                                          c:\sysgcc\raspberry\bin\../arm-linux-gnueabihf/sysroot/lib/arm-linux-gnueabihf/libc.so.6
vdprintf@@GLIBC_2.4                               c:\sysgcc\raspberry\bin\../arm-linux-gnueabihf/sysroot/lib/arm-linux-gnueabihf/libc.so.6
vdprintf@GLIBC_2.4                                c:\sysgcc\raspberry\bin\../arm-linux-gnueabihf/sysroot/lib/arm-linux-gnueabihf/libc.so.6
vfork                                             c:\sysgcc\raspberry\bin\../arm-linux-gnueabihf/sysroot/lib/arm-linux-gnueabihf/libc.so.6
vfork@@GLIBC_2.4                                  c:\sysgcc\raspberry\bin\../arm-linux-gnueabihf/sysroot/lib/arm-linux-gnueabihf/libc.so.6
vfork@GLIBC_2.4                                   c:\sysgcc\raspberry\bin\../arm-linux-gnueabihf/sysroot/lib/arm-linux-gnueabihf/libc.so.6
vfscanf                                           c:\sysgcc\raspberry\bin\../arm-linux-gnueabihf/sysroot/lib/arm-linux-gnueabihf/libc.so.6
vfscanf@@GLIBC_2.4                                c:\sysgcc\raspberry\bin\../arm-linux-gnueabihf/sysroot/lib/arm-linux-gnueabihf/libc.so.6
vfscanf@GLIBC_2.4                                 c:\sysgcc\raspberry\bin\../arm-linux-gnueabihf/sysroot/lib/arm-linux-gnueabihf/libc.so.6
vfwprintf                                         c:\sysgcc\raspberry\bin\../arm-linux-gnueabihf/sysroot/lib/arm-linux-gnueabihf/libc.so.6
vfwprintf@@GLIBC_2.4                              c:\sysgcc\raspberry\bin\../arm-linux-gnueabihf/sysroot/lib/arm-linux-gnueabihf/libc.so.6
vfwprintf@GLIBC_2.4                               c:\sysgcc\raspberry\bin\../arm-linux-gnueabihf/sysroot/lib/arm-linux-gnueabihf/libc.so.6
vfwscanf                                          c:\sysgcc\raspberry\bin\../arm-linux-gnueabihf/sysroot/lib/arm-linux-gnueabihf/libc.so.6
vfwscanf@@GLIBC_2.4                               c:\sysgcc\raspberry\bin\../arm-linux-gnueabihf/sysroot/lib/arm-linux-gnueabihf/libc.so.6
vfwscanf@GLIBC_2.4                                c:\sysgcc\raspberry\bin\../arm-linux-gnueabihf/sysroot/lib/arm-linux-gnueabihf/libc.so.6
vscanf                                            c:\sysgcc\raspberry\bin\../arm-linux-gnueabihf/sysroot/lib/arm-linux-gnueabihf/libc.so.6
vscanf@@GLIBC_2.4                                 c:\sysgcc\raspberry\bin\../arm-linux-gnueabihf/sysroot/lib/arm-linux-gnueabihf/libc.so.6
vscanf@GLIBC_2.4                                  c:\sysgcc\raspberry\bin\../arm-linux-gnueabihf/sysroot/lib/arm-linux-gnueabihf/libc.so.6
vsnprintf                                         c:\sysgcc\raspberry\bin\../arm-linux-gnueabihf/sysroot/lib/arm-linux-gnueabihf/libc.so.6
vsnprintf@@GLIBC_2.4                              c:\sysgcc\raspberry\bin\../arm-linux-gnueabihf/sysroot/lib/arm-linux-gnueabihf/libc.so.6
vsnprintf@GLIBC_2.4                               c:\sysgcc\raspberry\bin\../arm-linux-gnueabihf/sysroot/lib/arm-linux-gnueabihf/libc.so.6
vsprintf                                          c:\sysgcc\raspberry\bin\../arm-linux-gnueabihf/sysroot/lib/arm-linux-gnueabihf/libc.so.6
vsprintf@@GLIBC_2.4                               c:\sysgcc\raspberry\bin\../arm-linux-gnueabihf/sysroot/lib/arm-linux-gnueabihf/libc.so.6
vsprintf@GLIBC_2.4                                c:\sysgcc\raspberry\bin\../arm-linux-gnueabihf/sysroot/lib/arm-linux-gnueabihf/libc.so.6
vsscanf                                           c:\sysgcc\raspberry\bin\../arm-linux-gnueabihf/sysroot/lib/arm-linux-gnueabihf/libc.so.6
vsscanf@@GLIBC_2.4                                c:\sysgcc\raspberry\bin\../arm-linux-gnueabihf/sysroot/lib/arm-linux-gnueabihf/libc.so.6
vsscanf@GLIBC_2.4                                 c:\sysgcc\raspberry\bin\../arm-linux-gnueabihf/sysroot/lib/arm-linux-gnueabihf/libc.so.6
vswprintf                                         c:\sysgcc\raspberry\bin\../arm-linux-gnueabihf/sysroot/lib/arm-linux-gnueabihf/libc.so.6
vswprintf@@GLIBC_2.4                              c:\sysgcc\raspberry\bin\../arm-linux-gnueabihf/sysroot/lib/arm-linux-gnueabihf/libc.so.6
vswprintf@GLIBC_2.4                               c:\sysgcc\raspberry\bin\../arm-linux-gnueabihf/sysroot/lib/arm-linux-gnueabihf/libc.so.6
vswscanf                                          c:\sysgcc\raspberry\bin\../arm-linux-gnueabihf/sysroot/lib/arm-linux-gnueabihf/libc.so.6
vswscanf@@GLIBC_2.4                               c:\sysgcc\raspberry\bin\../arm-linux-gnueabihf/sysroot/lib/arm-linux-gnueabihf/libc.so.6
vswscanf@GLIBC_2.4                                c:\sysgcc\raspberry\bin\../arm-linux-gnueabihf/sysroot/lib/arm-linux-gnueabihf/libc.so.6
vsyslog                                           c:\sysgcc\raspberry\bin\../arm-linux-gnueabihf/sysroot/lib/arm-linux-gnueabihf/libc.so.6
vsyslog@@GLIBC_2.4                                c:\sysgcc\raspberry\bin\../arm-linux-gnueabihf/sysroot/lib/arm-linux-gnueabihf/libc.so.6
vsyslog@GLIBC_2.4                                 c:\sysgcc\raspberry\bin\../arm-linux-gnueabihf/sysroot/lib/arm-linux-gnueabihf/libc.so.6
wait                                              c:\sysgcc\raspberry\bin\../arm-linux-gnueabihf/sysroot/lib/arm-linux-gnueabihf/libc.so.6
wait3                                             c:\sysgcc\raspberry\bin\../arm-linux-gnueabihf/sysroot/lib/arm-linux-gnueabihf/libc.so.6
wait3@@GLIBC_2.4                                  c:\sysgcc\raspberry\bin\../arm-linux-gnueabihf/sysroot/lib/arm-linux-gnueabihf/libc.so.6
wait3@GLIBC_2.4                                   c:\sysgcc\raspberry\bin\../arm-linux-gnueabihf/sysroot/lib/arm-linux-gnueabihf/libc.so.6
wait4                                             c:\sysgcc\raspberry\bin\../arm-linux-gnueabihf/sysroot/lib/arm-linux-gnueabihf/libc.so.6
wait4@@GLIBC_2.4                                  c:\sysgcc\raspberry\bin\../arm-linux-gnueabihf/sysroot/lib/arm-linux-gnueabihf/libc.so.6
wait4@GLIBC_2.4                                   c:\sysgcc\raspberry\bin\../arm-linux-gnueabihf/sysroot/lib/arm-linux-gnueabihf/libc.so.6
wait@@GLIBC_2.4                                   c:\sysgcc\raspberry\bin\../arm-linux-gnueabihf/sysroot/lib/arm-linux-gnueabihf/libc.so.6
wait@GLIBC_2.4                                    c:\sysgcc\raspberry\bin\../arm-linux-gnueabihf/sysroot/lib/arm-linux-gnueabihf/libc.so.6
wait_key                                          obj/Debug/Keyboard_Indicator/Keypad.o
waitid                                            c:\sysgcc\raspberry\bin\../arm-linux-gnueabihf/sysroot/lib/arm-linux-gnueabihf/libc.so.6
waitid@@GLIBC_2.4                                 c:\sysgcc\raspberry\bin\../arm-linux-gnueabihf/sysroot/lib/arm-linux-gnueabihf/libc.so.6
waitid@GLIBC_2.4                                  c:\sysgcc\raspberry\bin\../arm-linux-gnueabihf/sysroot/lib/arm-linux-gnueabihf/libc.so.6
waitpid                                           c:\sysgcc\raspberry\bin\../arm-linux-gnueabihf/sysroot/lib/arm-linux-gnueabihf/libc.so.6
waitpid@@GLIBC_2.4                                c:\sysgcc\raspberry\bin\../arm-linux-gnueabihf/sysroot/lib/arm-linux-gnueabihf/libc.so.6
waitpid@GLIBC_2.4                                 c:\sysgcc\raspberry\bin\../arm-linux-gnueabihf/sysroot/lib/arm-linux-gnueabihf/libc.so.6
wcpcpy                                            c:\sysgcc\raspberry\bin\../arm-linux-gnueabihf/sysroot/lib/arm-linux-gnueabihf/libc.so.6
wcpcpy@@GLIBC_2.4                                 c:\sysgcc\raspberry\bin\../arm-linux-gnueabihf/sysroot/lib/arm-linux-gnueabihf/libc.so.6
wcpcpy@GLIBC_2.4                                  c:\sysgcc\raspberry\bin\../arm-linux-gnueabihf/sysroot/lib/arm-linux-gnueabihf/libc.so.6
wcpncpy                                           c:\sysgcc\raspberry\bin\../arm-linux-gnueabihf/sysroot/lib/arm-linux-gnueabihf/libc.so.6
wcpncpy@@GLIBC_2.4                                c:\sysgcc\raspberry\bin\../arm-linux-gnueabihf/sysroot/lib/arm-linux-gnueabihf/libc.so.6
wcpncpy@GLIBC_2.4                                 c:\sysgcc\raspberry\bin\../arm-linux-gnueabihf/sysroot/lib/arm-linux-gnueabihf/libc.so.6
wcrtomb                                           c:\sysgcc\raspberry\bin\../arm-linux-gnueabihf/sysroot/lib/arm-linux-gnueabihf/libc.so.6
wcrtomb@@GLIBC_2.4                                c:\sysgcc\raspberry\bin\../arm-linux-gnueabihf/sysroot/lib/arm-linux-gnueabihf/libc.so.6
wcrtomb@GLIBC_2.4                                 c:\sysgcc\raspberry\bin\../arm-linux-gnueabihf/sysroot/lib/arm-linux-gnueabihf/libc.so.6
wcscasecmp                                        c:\sysgcc\raspberry\bin\../arm-linux-gnueabihf/sysroot/lib/arm-linux-gnueabihf/libc.so.6
wcscasecmp@@GLIBC_2.4                             c:\sysgcc\raspberry\bin\../arm-linux-gnueabihf/sysroot/lib/arm-linux-gnueabihf/libc.so.6
wcscasecmp@GLIBC_2.4                              c:\sysgcc\raspberry\bin\../arm-linux-gnueabihf/sysroot/lib/arm-linux-gnueabihf/libc.so.6
wcscasecmp_l                                      c:\sysgcc\raspberry\bin\../arm-linux-gnueabihf/sysroot/lib/arm-linux-gnueabihf/libc.so.6
wcscasecmp_l@@GLIBC_2.4                           c:\sysgcc\raspberry\bin\../arm-linux-gnueabihf/sysroot/lib/arm-linux-gnueabihf/libc.so.6
wcscasecmp_l@GLIBC_2.4                            c:\sysgcc\raspberry\bin\../arm-linux-gnueabihf/sysroot/lib/arm-linux-gnueabihf/libc.so.6
wcscat                                            c:\sysgcc\raspberry\bin\../arm-linux-gnueabihf/sysroot/lib/arm-linux-gnueabihf/libc.so.6
wcscat@@GLIBC_2.4                                 c:\sysgcc\raspberry\bin\../arm-linux-gnueabihf/sysroot/lib/arm-linux-gnueabihf/libc.so.6
wcscat@GLIBC_2.4                                  c:\sysgcc\raspberry\bin\../arm-linux-gnueabihf/sysroot/lib/arm-linux-gnueabihf/libc.so.6
wcschr                                            c:\sysgcc\raspberry\bin\../arm-linux-gnueabihf/sysroot/lib/arm-linux-gnueabihf/libc.so.6
wcschr@@GLIBC_2.4                                 c:\sysgcc\raspberry\bin\../arm-linux-gnueabihf/sysroot/lib/arm-linux-gnueabihf/libc.so.6
wcschr@GLIBC_2.4                                  c:\sysgcc\raspberry\bin\../arm-linux-gnueabihf/sysroot/lib/arm-linux-gnueabihf/libc.so.6
wcschrnul                                         c:\sysgcc\raspberry\bin\../arm-linux-gnueabihf/sysroot/lib/arm-linux-gnueabihf/libc.so.6
wcschrnul@@GLIBC_2.4                              c:\sysgcc\raspberry\bin\../arm-linux-gnueabihf/sysroot/lib/arm-linux-gnueabihf/libc.so.6
wcschrnul@GLIBC_2.4                               c:\sysgcc\raspberry\bin\../arm-linux-gnueabihf/sysroot/lib/arm-linux-gnueabihf/libc.so.6
wcscmp                                            c:\sysgcc\raspberry\bin\../arm-linux-gnueabihf/sysroot/lib/arm-linux-gnueabihf/libc.so.6
wcscmp@@GLIBC_2.4                                 c:\sysgcc\raspberry\bin\../arm-linux-gnueabihf/sysroot/lib/arm-linux-gnueabihf/libc.so.6
wcscmp@GLIBC_2.4                                  c:\sysgcc\raspberry\bin\../arm-linux-gnueabihf/sysroot/lib/arm-linux-gnueabihf/libc.so.6
wcscoll                                           c:\sysgcc\raspberry\bin\../arm-linux-gnueabihf/sysroot/lib/arm-linux-gnueabihf/libc.so.6
wcscoll@@GLIBC_2.4                                c:\sysgcc\raspberry\bin\../arm-linux-gnueabihf/sysroot/lib/arm-linux-gnueabihf/libc.so.6
wcscoll@GLIBC_2.4                                 c:\sysgcc\raspberry\bin\../arm-linux-gnueabihf/sysroot/lib/arm-linux-gnueabihf/libc.so.6
wcscoll_l                                         c:\sysgcc\raspberry\bin\../arm-linux-gnueabihf/sysroot/lib/arm-linux-gnueabihf/libc.so.6
wcscoll_l@@GLIBC_2.4                              c:\sysgcc\raspberry\bin\../arm-linux-gnueabihf/sysroot/lib/arm-linux-gnueabihf/libc.so.6
wcscoll_l@GLIBC_2.4                               c:\sysgcc\raspberry\bin\../arm-linux-gnueabihf/sysroot/lib/arm-linux-gnueabihf/libc.so.6
wcscpy                                            c:\sysgcc\raspberry\bin\../arm-linux-gnueabihf/sysroot/lib/arm-linux-gnueabihf/libc.so.6
wcscpy@@GLIBC_2.4                                 c:\sysgcc\raspberry\bin\../arm-linux-gnueabihf/sysroot/lib/arm-linux-gnueabihf/libc.so.6
wcscpy@GLIBC_2.4                                  c:\sysgcc\raspberry\bin\../arm-linux-gnueabihf/sysroot/lib/arm-linux-gnueabihf/libc.so.6
wcsftime_l                                        c:\sysgcc\raspberry\bin\../arm-linux-gnueabihf/sysroot/lib/arm-linux-gnueabihf/libc.so.6
wcsftime_l@@GLIBC_2.4                             c:\sysgcc\raspberry\bin\../arm-linux-gnueabihf/sysroot/lib/arm-linux-gnueabihf/libc.so.6
wcsftime_l@GLIBC_2.4                              c:\sysgcc\raspberry\bin\../arm-linux-gnueabihf/sysroot/lib/arm-linux-gnueabihf/libc.so.6
wcslen                                            c:\sysgcc\raspberry\bin\../arm-linux-gnueabihf/sysroot/lib/arm-linux-gnueabihf/libc.so.6
wcslen@@GLIBC_2.4                                 c:\sysgcc\raspberry\bin\../arm-linux-gnueabihf/sysroot/lib/arm-linux-gnueabihf/libc.so.6
wcslen@GLIBC_2.4                                  c:\sysgcc\raspberry\bin\../arm-linux-gnueabihf/sysroot/lib/arm-linux-gnueabihf/libc.so.6
wcsncasecmp                                       c:\sysgcc\raspberry\bin\../arm-linux-gnueabihf/sysroot/lib/arm-linux-gnueabihf/libc.so.6
wcsncasecmp@@GLIBC_2.4                            c:\sysgcc\raspberry\bin\../arm-linux-gnueabihf/sysroot/lib/arm-linux-gnueabihf/libc.so.6
wcsncasecmp@GLIBC_2.4                             c:\sysgcc\raspberry\bin\../arm-linux-gnueabihf/sysroot/lib/arm-linux-gnueabihf/libc.so.6
wcsncasecmp_l                                     c:\sysgcc\raspberry\bin\../arm-linux-gnueabihf/sysroot/lib/arm-linux-gnueabihf/libc.so.6
wcsncasecmp_l@@GLIBC_2.4                          c:\sysgcc\raspberry\bin\../arm-linux-gnueabihf/sysroot/lib/arm-linux-gnueabihf/libc.so.6
wcsncasecmp_l@GLIBC_2.4                           c:\sysgcc\raspberry\bin\../arm-linux-gnueabihf/sysroot/lib/arm-linux-gnueabihf/libc.so.6
wcsncpy                                           c:\sysgcc\raspberry\bin\../arm-linux-gnueabihf/sysroot/lib/arm-linux-gnueabihf/libc.so.6
wcsncpy@@GLIBC_2.4                                c:\sysgcc\raspberry\bin\../arm-linux-gnueabihf/sysroot/lib/arm-linux-gnueabihf/libc.so.6
wcsncpy@GLIBC_2.4                                 c:\sysgcc\raspberry\bin\../arm-linux-gnueabihf/sysroot/lib/arm-linux-gnueabihf/libc.so.6
wcsnlen                                           c:\sysgcc\raspberry\bin\../arm-linux-gnueabihf/sysroot/lib/arm-linux-gnueabihf/libc.so.6
wcsnlen@@GLIBC_2.4                                c:\sysgcc\raspberry\bin\../arm-linux-gnueabihf/sysroot/lib/arm-linux-gnueabihf/libc.so.6
wcsnlen@GLIBC_2.4                                 c:\sysgcc\raspberry\bin\../arm-linux-gnueabihf/sysroot/lib/arm-linux-gnueabihf/libc.so.6
wcsnrtombs                                        c:\sysgcc\raspberry\bin\../arm-linux-gnueabihf/sysroot/lib/arm-linux-gnueabihf/libc.so.6
wcsnrtombs@@GLIBC_2.4                             c:\sysgcc\raspberry\bin\../arm-linux-gnueabihf/sysroot/lib/arm-linux-gnueabihf/libc.so.6
wcsnrtombs@GLIBC_2.4                              c:\sysgcc\raspberry\bin\../arm-linux-gnueabihf/sysroot/lib/arm-linux-gnueabihf/libc.so.6
wcsrtombs                                         c:\sysgcc\raspberry\bin\../arm-linux-gnueabihf/sysroot/lib/arm-linux-gnueabihf/libc.so.6
wcsrtombs@@GLIBC_2.4                              c:\sysgcc\raspberry\bin\../arm-linux-gnueabihf/sysroot/lib/arm-linux-gnueabihf/libc.so.6
wcsrtombs@GLIBC_2.4                               c:\sysgcc\raspberry\bin\../arm-linux-gnueabihf/sysroot/lib/arm-linux-gnueabihf/libc.so.6
wcstod_l                                          c:\sysgcc\raspberry\bin\../arm-linux-gnueabihf/sysroot/lib/arm-linux-gnueabihf/libc.so.6
wcstod_l@@GLIBC_2.4                               c:\sysgcc\raspberry\bin\../arm-linux-gnueabihf/sysroot/lib/arm-linux-gnueabihf/libc.so.6
wcstod_l@GLIBC_2.4                                c:\sysgcc\raspberry\bin\../arm-linux-gnueabihf/sysroot/lib/arm-linux-gnueabihf/libc.so.6
wcstof32                                          c:\sysgcc\raspberry\bin\../arm-linux-gnueabihf/sysroot/lib/arm-linux-gnueabihf/libc.so.6
wcstof32@@GLIBC_2.27                              c:\sysgcc\raspberry\bin\../arm-linux-gnueabihf/sysroot/lib/arm-linux-gnueabihf/libc.so.6
wcstof32@GLIBC_2.27                               c:\sysgcc\raspberry\bin\../arm-linux-gnueabihf/sysroot/lib/arm-linux-gnueabihf/libc.so.6
wcstof32_l                                        c:\sysgcc\raspberry\bin\../arm-linux-gnueabihf/sysroot/lib/arm-linux-gnueabihf/libc.so.6
wcstof32_l@@GLIBC_2.27                            c:\sysgcc\raspberry\bin\../arm-linux-gnueabihf/sysroot/lib/arm-linux-gnueabihf/libc.so.6
wcstof32_l@GLIBC_2.27                             c:\sysgcc\raspberry\bin\../arm-linux-gnueabihf/sysroot/lib/arm-linux-gnueabihf/libc.so.6
wcstof32x                                         c:\sysgcc\raspberry\bin\../arm-linux-gnueabihf/sysroot/lib/arm-linux-gnueabihf/libc.so.6
wcstof32x@@GLIBC_2.27                             c:\sysgcc\raspberry\bin\../arm-linux-gnueabihf/sysroot/lib/arm-linux-gnueabihf/libc.so.6
wcstof32x@GLIBC_2.27                              c:\sysgcc\raspberry\bin\../arm-linux-gnueabihf/sysroot/lib/arm-linux-gnueabihf/libc.so.6
wcstof32x_l                                       c:\sysgcc\raspberry\bin\../arm-linux-gnueabihf/sysroot/lib/arm-linux-gnueabihf/libc.so.6
wcstof32x_l@@GLIBC_2.27                           c:\sysgcc\raspberry\bin\../arm-linux-gnueabihf/sysroot/lib/arm-linux-gnueabihf/libc.so.6
wcstof32x_l@GLIBC_2.27                            c:\sysgcc\raspberry\bin\../arm-linux-gnueabihf/sysroot/lib/arm-linux-gnueabihf/libc.so.6
wcstof64                                          c:\sysgcc\raspberry\bin\../arm-linux-gnueabihf/sysroot/lib/arm-linux-gnueabihf/libc.so.6
wcstof64@@GLIBC_2.27                              c:\sysgcc\raspberry\bin\../arm-linux-gnueabihf/sysroot/lib/arm-linux-gnueabihf/libc.so.6
wcstof64@GLIBC_2.27                               c:\sysgcc\raspberry\bin\../arm-linux-gnueabihf/sysroot/lib/arm-linux-gnueabihf/libc.so.6
wcstof64_l                                        c:\sysgcc\raspberry\bin\../arm-linux-gnueabihf/sysroot/lib/arm-linux-gnueabihf/libc.so.6
wcstof64_l@@GLIBC_2.27                            c:\sysgcc\raspberry\bin\../arm-linux-gnueabihf/sysroot/lib/arm-linux-gnueabihf/libc.so.6
wcstof64_l@GLIBC_2.27                             c:\sysgcc\raspberry\bin\../arm-linux-gnueabihf/sysroot/lib/arm-linux-gnueabihf/libc.so.6
wcstof_l                                          c:\sysgcc\raspberry\bin\../arm-linux-gnueabihf/sysroot/lib/arm-linux-gnueabihf/libc.so.6
wcstof_l@@GLIBC_2.4                               c:\sysgcc\raspberry\bin\../arm-linux-gnueabihf/sysroot/lib/arm-linux-gnueabihf/libc.so.6
wcstof_l@GLIBC_2.4                                c:\sysgcc\raspberry\bin\../arm-linux-gnueabihf/sysroot/lib/arm-linux-gnueabihf/libc.so.6
wcstol                                            c:\sysgcc\raspberry\bin\../arm-linux-gnueabihf/sysroot/lib/arm-linux-gnueabihf/libc.so.6
wcstol@@GLIBC_2.4                                 c:\sysgcc\raspberry\bin\../arm-linux-gnueabihf/sysroot/lib/arm-linux-gnueabihf/libc.so.6
wcstol@GLIBC_2.4                                  c:\sysgcc\raspberry\bin\../arm-linux-gnueabihf/sysroot/lib/arm-linux-gnueabihf/libc.so.6
wcstol_l                                          c:\sysgcc\raspberry\bin\../arm-linux-gnueabihf/sysroot/lib/arm-linux-gnueabihf/libc.so.6
wcstol_l@@GLIBC_2.4                               c:\sysgcc\raspberry\bin\../arm-linux-gnueabihf/sysroot/lib/arm-linux-gnueabihf/libc.so.6
wcstol_l@GLIBC_2.4                                c:\sysgcc\raspberry\bin\../arm-linux-gnueabihf/sysroot/lib/arm-linux-gnueabihf/libc.so.6
wcstold_l                                         c:\sysgcc\raspberry\bin\../arm-linux-gnueabihf/sysroot/lib/arm-linux-gnueabihf/libc.so.6
wcstold_l@@GLIBC_2.4                              c:\sysgcc\raspberry\bin\../arm-linux-gnueabihf/sysroot/lib/arm-linux-gnueabihf/libc.so.6
wcstold_l@GLIBC_2.4                               c:\sysgcc\raspberry\bin\../arm-linux-gnueabihf/sysroot/lib/arm-linux-gnueabihf/libc.so.6
wcstoll                                           c:\sysgcc\raspberry\bin\../arm-linux-gnueabihf/sysroot/lib/arm-linux-gnueabihf/libc.so.6
wcstoll@@GLIBC_2.4                                c:\sysgcc\raspberry\bin\../arm-linux-gnueabihf/sysroot/lib/arm-linux-gnueabihf/libc.so.6
wcstoll@GLIBC_2.4                                 c:\sysgcc\raspberry\bin\../arm-linux-gnueabihf/sysroot/lib/arm-linux-gnueabihf/libc.so.6
wcstoll_l                                         c:\sysgcc\raspberry\bin\../arm-linux-gnueabihf/sysroot/lib/arm-linux-gnueabihf/libc.so.6
wcstoll_l@@GLIBC_2.4                              c:\sysgcc\raspberry\bin\../arm-linux-gnueabihf/sysroot/lib/arm-linux-gnueabihf/libc.so.6
wcstoll_l@GLIBC_2.4                               c:\sysgcc\raspberry\bin\../arm-linux-gnueabihf/sysroot/lib/arm-linux-gnueabihf/libc.so.6
wcstoq                                            c:\sysgcc\raspberry\bin\../arm-linux-gnueabihf/sysroot/lib/arm-linux-gnueabihf/libc.so.6
wcstoq@@GLIBC_2.4                                 c:\sysgcc\raspberry\bin\../arm-linux-gnueabihf/sysroot/lib/arm-linux-gnueabihf/libc.so.6
wcstoq@GLIBC_2.4                                  c:\sysgcc\raspberry\bin\../arm-linux-gnueabihf/sysroot/lib/arm-linux-gnueabihf/libc.so.6
wcstoul                                           c:\sysgcc\raspberry\bin\../arm-linux-gnueabihf/sysroot/lib/arm-linux-gnueabihf/libc.so.6
wcstoul@@GLIBC_2.4                                c:\sysgcc\raspberry\bin\../arm-linux-gnueabihf/sysroot/lib/arm-linux-gnueabihf/libc.so.6
wcstoul@GLIBC_2.4                                 c:\sysgcc\raspberry\bin\../arm-linux-gnueabihf/sysroot/lib/arm-linux-gnueabihf/libc.so.6
wcstoul_l                                         c:\sysgcc\raspberry\bin\../arm-linux-gnueabihf/sysroot/lib/arm-linux-gnueabihf/libc.so.6
wcstoul_l@@GLIBC_2.4                              c:\sysgcc\raspberry\bin\../arm-linux-gnueabihf/sysroot/lib/arm-linux-gnueabihf/libc.so.6
wcstoul_l@GLIBC_2.4                               c:\sysgcc\raspberry\bin\../arm-linux-gnueabihf/sysroot/lib/arm-linux-gnueabihf/libc.so.6
wcstoull                                          c:\sysgcc\raspberry\bin\../arm-linux-gnueabihf/sysroot/lib/arm-linux-gnueabihf/libc.so.6
wcstoull@@GLIBC_2.4                               c:\sysgcc\raspberry\bin\../arm-linux-gnueabihf/sysroot/lib/arm-linux-gnueabihf/libc.so.6
wcstoull@GLIBC_2.4                                c:\sysgcc\raspberry\bin\../arm-linux-gnueabihf/sysroot/lib/arm-linux-gnueabihf/libc.so.6
wcstoull_l                                        c:\sysgcc\raspberry\bin\../arm-linux-gnueabihf/sysroot/lib/arm-linux-gnueabihf/libc.so.6
wcstoull_l@@GLIBC_2.4                             c:\sysgcc\raspberry\bin\../arm-linux-gnueabihf/sysroot/lib/arm-linux-gnueabihf/libc.so.6
wcstoull_l@GLIBC_2.4                              c:\sysgcc\raspberry\bin\../arm-linux-gnueabihf/sysroot/lib/arm-linux-gnueabihf/libc.so.6
wcstouq                                           c:\sysgcc\raspberry\bin\../arm-linux-gnueabihf/sysroot/lib/arm-linux-gnueabihf/libc.so.6
wcstouq@@GLIBC_2.4                                c:\sysgcc\raspberry\bin\../arm-linux-gnueabihf/sysroot/lib/arm-linux-gnueabihf/libc.so.6
wcstouq@GLIBC_2.4                                 c:\sysgcc\raspberry\bin\../arm-linux-gnueabihf/sysroot/lib/arm-linux-gnueabihf/libc.so.6
wcswcs                                            c:\sysgcc\raspberry\bin\../arm-linux-gnueabihf/sysroot/lib/arm-linux-gnueabihf/libc.so.6
wcswcs@@GLIBC_2.4                                 c:\sysgcc\raspberry\bin\../arm-linux-gnueabihf/sysroot/lib/arm-linux-gnueabihf/libc.so.6
wcswcs@GLIBC_2.4                                  c:\sysgcc\raspberry\bin\../arm-linux-gnueabihf/sysroot/lib/arm-linux-gnueabihf/libc.so.6
wcsxfrm_l                                         c:\sysgcc\raspberry\bin\../arm-linux-gnueabihf/sysroot/lib/arm-linux-gnueabihf/libc.so.6
wcsxfrm_l@@GLIBC_2.4                              c:\sysgcc\raspberry\bin\../arm-linux-gnueabihf/sysroot/lib/arm-linux-gnueabihf/libc.so.6
wcsxfrm_l@GLIBC_2.4                               c:\sysgcc\raspberry\bin\../arm-linux-gnueabihf/sysroot/lib/arm-linux-gnueabihf/libc.so.6
wctrans                                           c:\sysgcc\raspberry\bin\../arm-linux-gnueabihf/sysroot/lib/arm-linux-gnueabihf/libc.so.6
wctrans@@GLIBC_2.4                                c:\sysgcc\raspberry\bin\../arm-linux-gnueabihf/sysroot/lib/arm-linux-gnueabihf/libc.so.6
wctrans@GLIBC_2.4                                 c:\sysgcc\raspberry\bin\../arm-linux-gnueabihf/sysroot/lib/arm-linux-gnueabihf/libc.so.6
wctrans_l                                         c:\sysgcc\raspberry\bin\../arm-linux-gnueabihf/sysroot/lib/arm-linux-gnueabihf/libc.so.6
wctrans_l@@GLIBC_2.4                              c:\sysgcc\raspberry\bin\../arm-linux-gnueabihf/sysroot/lib/arm-linux-gnueabihf/libc.so.6
wctrans_l@GLIBC_2.4                               c:\sysgcc\raspberry\bin\../arm-linux-gnueabihf/sysroot/lib/arm-linux-gnueabihf/libc.so.6
wctype                                            c:\sysgcc\raspberry\bin\../arm-linux-gnueabihf/sysroot/lib/arm-linux-gnueabihf/libc.so.6
wctype@@GLIBC_2.4                                 c:\sysgcc\raspberry\bin\../arm-linux-gnueabihf/sysroot/lib/arm-linux-gnueabihf/libc.so.6
wctype@GLIBC_2.4                                  c:\sysgcc\raspberry\bin\../arm-linux-gnueabihf/sysroot/lib/arm-linux-gnueabihf/libc.so.6
wctype_l                                          c:\sysgcc\raspberry\bin\../arm-linux-gnueabihf/sysroot/lib/arm-linux-gnueabihf/libc.so.6
wctype_l@@GLIBC_2.4                               c:\sysgcc\raspberry\bin\../arm-linux-gnueabihf/sysroot/lib/arm-linux-gnueabihf/libc.so.6
wctype_l@GLIBC_2.4                                c:\sysgcc\raspberry\bin\../arm-linux-gnueabihf/sysroot/lib/arm-linux-gnueabihf/libc.so.6
wmemchr                                           c:\sysgcc\raspberry\bin\../arm-linux-gnueabihf/sysroot/lib/arm-linux-gnueabihf/libc.so.6
wmemchr@@GLIBC_2.4                                c:\sysgcc\raspberry\bin\../arm-linux-gnueabihf/sysroot/lib/arm-linux-gnueabihf/libc.so.6
wmemchr@GLIBC_2.4                                 c:\sysgcc\raspberry\bin\../arm-linux-gnueabihf/sysroot/lib/arm-linux-gnueabihf/libc.so.6
wmemcmp                                           c:\sysgcc\raspberry\bin\../arm-linux-gnueabihf/sysroot/lib/arm-linux-gnueabihf/libc.so.6
wmemcmp@@GLIBC_2.4                                c:\sysgcc\raspberry\bin\../arm-linux-gnueabihf/sysroot/lib/arm-linux-gnueabihf/libc.so.6
wmemcmp@GLIBC_2.4                                 c:\sysgcc\raspberry\bin\../arm-linux-gnueabihf/sysroot/lib/arm-linux-gnueabihf/libc.so.6
wmemcpy                                           c:\sysgcc\raspberry\bin\../arm-linux-gnueabihf/sysroot/lib/arm-linux-gnueabihf/libc.so.6
wmemcpy@@GLIBC_2.4                                c:\sysgcc\raspberry\bin\../arm-linux-gnueabihf/sysroot/lib/arm-linux-gnueabihf/libc.so.6
wmemcpy@GLIBC_2.4                                 c:\sysgcc\raspberry\bin\../arm-linux-gnueabihf/sysroot/lib/arm-linux-gnueabihf/libc.so.6
wmemmove                                          c:\sysgcc\raspberry\bin\../arm-linux-gnueabihf/sysroot/lib/arm-linux-gnueabihf/libc.so.6
wmemmove@@GLIBC_2.4                               c:\sysgcc\raspberry\bin\../arm-linux-gnueabihf/sysroot/lib/arm-linux-gnueabihf/libc.so.6
wmemmove@GLIBC_2.4                                c:\sysgcc\raspberry\bin\../arm-linux-gnueabihf/sysroot/lib/arm-linux-gnueabihf/libc.so.6
wmempcpy                                          c:\sysgcc\raspberry\bin\../arm-linux-gnueabihf/sysroot/lib/arm-linux-gnueabihf/libc.so.6
wmempcpy@@GLIBC_2.4                               c:\sysgcc\raspberry\bin\../arm-linux-gnueabihf/sysroot/lib/arm-linux-gnueabihf/libc.so.6
wmempcpy@GLIBC_2.4                                c:\sysgcc\raspberry\bin\../arm-linux-gnueabihf/sysroot/lib/arm-linux-gnueabihf/libc.so.6
wmemset                                           c:\sysgcc\raspberry\bin\../arm-linux-gnueabihf/sysroot/lib/arm-linux-gnueabihf/libc.so.6
wmemset@@GLIBC_2.4                                c:\sysgcc\raspberry\bin\../arm-linux-gnueabihf/sysroot/lib/arm-linux-gnueabihf/libc.so.6
wmemset@GLIBC_2.4                                 c:\sysgcc\raspberry\bin\../arm-linux-gnueabihf/sysroot/lib/arm-linux-gnueabihf/libc.so.6
write                                             c:/sysgcc/raspberry/bin/../arm-linux-gnueabihf/sysroot/lib/arm-linux-gnueabihf/libpthread.so
                                                  obj/Debug/UART/uart.o
                                                  obj/Debug/pigpio.o
write@@GLIBC_2.4                                  c:/sysgcc/raspberry/bin/../arm-linux-gnueabihf/sysroot/lib/arm-linux-gnueabihf/libpthread.so
                                                  c:\sysgcc\raspberry\bin\../arm-linux-gnueabihf/sysroot/lib/arm-linux-gnueabihf/libc.so.6
write@GLIBC_2.4                                   c:/sysgcc/raspberry/bin/../arm-linux-gnueabihf/sysroot/lib/arm-linux-gnueabihf/libpthread.so
writev                                            c:\sysgcc\raspberry\bin\../arm-linux-gnueabihf/sysroot/lib/arm-linux-gnueabihf/libc.so.6
writev@@GLIBC_2.4                                 c:\sysgcc\raspberry\bin\../arm-linux-gnueabihf/sysroot/lib/arm-linux-gnueabihf/libc.so.6
writev@GLIBC_2.4                                  c:\sysgcc\raspberry\bin\../arm-linux-gnueabihf/sysroot/lib/arm-linux-gnueabihf/libc.so.6
